
/home/sandra/Escritorio/Prácticas/proyectoTinyML/src/build/tests/kernels_depthwise_conv_test/kernels_depthwise_conv_test.elf:     file format elf32-littlearm

Sections:
Idx Name          Size      VMA       LMA       File off  Algn
  0 .boot2        00000100  10000000  10000000  00001000  2**0
                  CONTENTS, ALLOC, LOAD, READONLY, CODE
  1 .text         00013630  10000100  10000100  00001100  2**3
                  CONTENTS, ALLOC, LOAD, READONLY, CODE
  2 .rodata       00002798  10013730  10013730  00014730  2**3
                  CONTENTS, ALLOC, LOAD, READONLY, DATA
  3 .ARM.exidx    00000008  10015ec8  10015ec8  00016ec8  2**2
                  CONTENTS, ALLOC, LOAD, READONLY, DATA
  4 .binary_info  00000020  10015ed0  10015ed0  00016ed0  2**2
                  CONTENTS, ALLOC, LOAD, READONLY, DATA
  5 .ram_vector_table 000000c0  20000000  20000000  00019000  2**2
                  ALLOC
  6 .uninitialized_data 00000000  200000c0  200000c0  000188c0  2**0
                  CONTENTS
  7 .data         00001800  200000c0  10015ef0  000170c0  2**4
                  CONTENTS, ALLOC, LOAD, READONLY, CODE
  8 .tdata        00000000  200018c0  200018c0  000188c0  2**0
                  CONTENTS, ALLOC, LOAD, DATA, THREAD_LOCAL
  9 .tbss         00000000  200018c0  200018c0  00000000  2**0
                  ALLOC, THREAD_LOCAL
 10 .bss          00003928  200018c0  100176f0  000188c0  2**3
                  ALLOC
 11 .heap         00000800  200051e8  200051e8  000188c0  2**2
                  CONTENTS, READONLY
 12 .scratch_x    00000000  20040000  20040000  000190c0  2**0
                  CONTENTS
 13 .scratch_y    00000000  20041000  20041000  000190c0  2**0
                  CONTENTS
 14 .stack1_dummy 00000800  20040000  20040000  00019000  2**2
                  ALLOC
 15 .stack_dummy  00000800  20041000  20041000  000190c0  2**5
                  CONTENTS, READONLY
 16 .ARM.attributes 00000028  00000000  00000000  000198c0  2**0
                  CONTENTS, READONLY
 17 .comment      00000045  00000000  00000000  000198e8  2**0
                  CONTENTS, READONLY
 18 .debug_info   0012e303  00000000  00000000  0001992d  2**0
                  CONTENTS, READONLY, DEBUGGING, OCTETS
 19 .debug_abbrev 00014149  00000000  00000000  00147c30  2**0
                  CONTENTS, READONLY, DEBUGGING, OCTETS
 20 .debug_loclists 00063b8a  00000000  00000000  0015bd79  2**0
                  CONTENTS, READONLY, DEBUGGING, OCTETS
 21 .debug_aranges 000023b0  00000000  00000000  001bf908  2**3
                  CONTENTS, READONLY, DEBUGGING, OCTETS
 22 .debug_rnglists 00015175  00000000  00000000  001c1cb8  2**0
                  CONTENTS, READONLY, DEBUGGING, OCTETS
 23 .debug_line   0005c57a  00000000  00000000  001d6e2d  2**0
                  CONTENTS, READONLY, DEBUGGING, OCTETS
 24 .debug_str    000ac4bd  00000000  00000000  002333a7  2**0
                  CONTENTS, READONLY, DEBUGGING, OCTETS
 25 .debug_frame  00006af0  00000000  00000000  002df864  2**2
                  CONTENTS, READONLY, DEBUGGING, OCTETS
 26 .debug_line_str 0000037a  00000000  00000000  002e6354  2**0
                  CONTENTS, READONLY, DEBUGGING, OCTETS

/home/sandra/Escritorio/Prácticas/proyectoTinyML/src/build/tests/kernels_depthwise_conv_test/kernels_depthwise_conv_test.elf:     file format elf32-littlearm


Disassembly of section .boot2:

10000000 <__boot2_start__>:
10000000:	4b32b500 	.word	0x4b32b500
10000004:	60582021 	.word	0x60582021
10000008:	21026898 	.word	0x21026898
1000000c:	60984388 	.word	0x60984388
10000010:	611860d8 	.word	0x611860d8
10000014:	4b2e6158 	.word	0x4b2e6158
10000018:	60992100 	.word	0x60992100
1000001c:	61592102 	.word	0x61592102
10000020:	22f02101 	.word	0x22f02101
10000024:	492b5099 	.word	0x492b5099
10000028:	21016019 	.word	0x21016019
1000002c:	20356099 	.word	0x20356099
10000030:	f844f000 	.word	0xf844f000
10000034:	42902202 	.word	0x42902202
10000038:	2106d014 	.word	0x2106d014
1000003c:	f0006619 	.word	0xf0006619
10000040:	6e19f834 	.word	0x6e19f834
10000044:	66192101 	.word	0x66192101
10000048:	66182000 	.word	0x66182000
1000004c:	f000661a 	.word	0xf000661a
10000050:	6e19f82c 	.word	0x6e19f82c
10000054:	6e196e19 	.word	0x6e196e19
10000058:	f0002005 	.word	0xf0002005
1000005c:	2101f82f 	.word	0x2101f82f
10000060:	d1f94208 	.word	0xd1f94208
10000064:	60992100 	.word	0x60992100
10000068:	6019491b 	.word	0x6019491b
1000006c:	60592100 	.word	0x60592100
10000070:	481b491a 	.word	0x481b491a
10000074:	21016001 	.word	0x21016001
10000078:	21eb6099 	.word	0x21eb6099
1000007c:	21a06619 	.word	0x21a06619
10000080:	f0006619 	.word	0xf0006619
10000084:	2100f812 	.word	0x2100f812
10000088:	49166099 	.word	0x49166099
1000008c:	60014814 	.word	0x60014814
10000090:	60992101 	.word	0x60992101
10000094:	2800bc01 	.word	0x2800bc01
10000098:	4700d000 	.word	0x4700d000
1000009c:	49134812 	.word	0x49134812
100000a0:	c8036008 	.word	0xc8036008
100000a4:	8808f380 	.word	0x8808f380
100000a8:	b5034708 	.word	0xb5034708
100000ac:	20046a99 	.word	0x20046a99
100000b0:	d0fb4201 	.word	0xd0fb4201
100000b4:	42012001 	.word	0x42012001
100000b8:	bd03d1f8 	.word	0xbd03d1f8
100000bc:	6618b502 	.word	0x6618b502
100000c0:	f7ff6618 	.word	0xf7ff6618
100000c4:	6e18fff2 	.word	0x6e18fff2
100000c8:	bd026e18 	.word	0xbd026e18
100000cc:	40020000 	.word	0x40020000
100000d0:	18000000 	.word	0x18000000
100000d4:	00070000 	.word	0x00070000
100000d8:	005f0300 	.word	0x005f0300
100000dc:	00002221 	.word	0x00002221
100000e0:	180000f4 	.word	0x180000f4
100000e4:	a0002022 	.word	0xa0002022
100000e8:	10000100 	.word	0x10000100
100000ec:	e000ed08 	.word	0xe000ed08
	...
100000fc:	7a4eb274 	.word	0x7a4eb274

Disassembly of section .text:

10000100 <__VECTOR_TABLE>:
10000100:	20042000 	.word	0x20042000
10000104:	100001f7 	.word	0x100001f7
10000108:	100001c3 	.word	0x100001c3
1000010c:	100001c5 	.word	0x100001c5
10000110:	100001c1 	.word	0x100001c1
10000114:	100001c1 	.word	0x100001c1
10000118:	100001c1 	.word	0x100001c1
1000011c:	100001c1 	.word	0x100001c1
10000120:	100001c1 	.word	0x100001c1
10000124:	100001c1 	.word	0x100001c1
10000128:	100001c1 	.word	0x100001c1
1000012c:	100001c7 	.word	0x100001c7
10000130:	100001c1 	.word	0x100001c1
10000134:	100001c1 	.word	0x100001c1
10000138:	100001c9 	.word	0x100001c9
1000013c:	100001cb 	.word	0x100001cb
10000140:	100001cd 	.word	0x100001cd
10000144:	100001cd 	.word	0x100001cd
10000148:	100001cd 	.word	0x100001cd
1000014c:	100001cd 	.word	0x100001cd
10000150:	100001cd 	.word	0x100001cd
10000154:	100001cd 	.word	0x100001cd
10000158:	100001cd 	.word	0x100001cd
1000015c:	100001cd 	.word	0x100001cd
10000160:	100001cd 	.word	0x100001cd
10000164:	100001cd 	.word	0x100001cd
10000168:	100001cd 	.word	0x100001cd
1000016c:	100001cd 	.word	0x100001cd
10000170:	100001cd 	.word	0x100001cd
10000174:	100001cd 	.word	0x100001cd
10000178:	100001cd 	.word	0x100001cd
1000017c:	100001cd 	.word	0x100001cd
10000180:	100001cd 	.word	0x100001cd
10000184:	100001cd 	.word	0x100001cd
10000188:	100001cd 	.word	0x100001cd
1000018c:	100001cd 	.word	0x100001cd
10000190:	100001cd 	.word	0x100001cd
10000194:	100001cd 	.word	0x100001cd
10000198:	100001cd 	.word	0x100001cd
1000019c:	100001cd 	.word	0x100001cd
100001a0:	100001cd 	.word	0x100001cd
100001a4:	100001cd 	.word	0x100001cd
100001a8:	100001cd 	.word	0x100001cd
100001ac:	100001cd 	.word	0x100001cd
100001b0:	100001cd 	.word	0x100001cd
100001b4:	100001cd 	.word	0x100001cd
100001b8:	100001cd 	.word	0x100001cd
100001bc:	100001cd 	.word	0x100001cd

100001c0 <isr_invalid>:
100001c0:	be00      	bkpt	0x0000

100001c2 <isr_nmi>:
100001c2:	be00      	bkpt	0x0000

100001c4 <isr_hardfault>:
100001c4:	be00      	bkpt	0x0000

100001c6 <isr_svcall>:
100001c6:	be00      	bkpt	0x0000

100001c8 <isr_pendsv>:
100001c8:	be00      	bkpt	0x0000

100001ca <isr_systick>:
100001ca:	be00      	bkpt	0x0000

100001cc <__unhandled_user_irq>:
100001cc:	f3ef 8005 	mrs	r0, IPSR
100001d0:	3810      	subs	r0, #16

100001d2 <unhandled_user_irq_num_in_r0>:
100001d2:	be00      	bkpt	0x0000

100001d4 <binary_info_header>:
100001d4:	7188ebf2 	.word	0x7188ebf2
100001d8:	10015ed0 	.word	0x10015ed0
100001dc:	10015ef0 	.word	0x10015ef0
100001e0:	10000238 	.word	0x10000238
100001e4:	e71aa390 	.word	0xe71aa390

100001e8 <_entry_point>:
100001e8:	481e      	ldr	r0, [pc, #120]	@ (10000264 <data_cpy_table+0x2c>)

100001ea <_enter_vtable_in_r0>:
100001ea:	491f      	ldr	r1, [pc, #124]	@ (10000268 <data_cpy_table+0x30>)
100001ec:	6008      	str	r0, [r1, #0]
100001ee:	c806      	ldmia	r0!, {r1, r2}
100001f0:	f381 8808 	msr	MSP, r1
100001f4:	4710      	bx	r2

100001f6 <_reset_handler>:
100001f6:	481d      	ldr	r0, [pc, #116]	@ (1000026c <data_cpy_table+0x34>)
100001f8:	6800      	ldr	r0, [r0, #0]
100001fa:	2800      	cmp	r0, #0
100001fc:	d001      	beq.n	10000202 <hold_non_core0_in_bootrom+0x4>

100001fe <hold_non_core0_in_bootrom>:
100001fe:	4819      	ldr	r0, [pc, #100]	@ (10000264 <data_cpy_table+0x2c>)
10000200:	e7f3      	b.n	100001ea <_enter_vtable_in_r0>
10000202:	a40d      	add	r4, pc, #52	@ (adr r4, 10000238 <data_cpy_table>)
10000204:	cc0e      	ldmia	r4!, {r1, r2, r3}
10000206:	2900      	cmp	r1, #0
10000208:	d002      	beq.n	10000210 <hold_non_core0_in_bootrom+0x12>
1000020a:	f000 f812 	bl	10000232 <data_cpy>
1000020e:	e7f9      	b.n	10000204 <hold_non_core0_in_bootrom+0x6>
10000210:	4917      	ldr	r1, [pc, #92]	@ (10000270 <data_cpy_table+0x38>)
10000212:	4a18      	ldr	r2, [pc, #96]	@ (10000274 <data_cpy_table+0x3c>)
10000214:	2000      	movs	r0, #0
10000216:	e000      	b.n	1000021a <bss_fill_test>

10000218 <bss_fill_loop>:
10000218:	c101      	stmia	r1!, {r0}

1000021a <bss_fill_test>:
1000021a:	4291      	cmp	r1, r2
1000021c:	d1fc      	bne.n	10000218 <bss_fill_loop>

1000021e <platform_entry>:
1000021e:	4916      	ldr	r1, [pc, #88]	@ (10000278 <data_cpy_table+0x40>)
10000220:	4788      	blx	r1
10000222:	4916      	ldr	r1, [pc, #88]	@ (1000027c <data_cpy_table+0x44>)
10000224:	4788      	blx	r1
10000226:	4916      	ldr	r1, [pc, #88]	@ (10000280 <data_cpy_table+0x48>)
10000228:	4788      	blx	r1
1000022a:	be00      	bkpt	0x0000
1000022c:	e7fd      	b.n	1000022a <platform_entry+0xc>

1000022e <data_cpy_loop>:
1000022e:	c901      	ldmia	r1!, {r0}
10000230:	c201      	stmia	r2!, {r0}

10000232 <data_cpy>:
10000232:	429a      	cmp	r2, r3
10000234:	d3fb      	bcc.n	1000022e <data_cpy_loop>
10000236:	4770      	bx	lr

10000238 <data_cpy_table>:
10000238:	10015ef0 	.word	0x10015ef0
1000023c:	200000c0 	.word	0x200000c0
10000240:	200018c0 	.word	0x200018c0
10000244:	100176f0 	.word	0x100176f0
10000248:	20040000 	.word	0x20040000
1000024c:	20040000 	.word	0x20040000
10000250:	100176f0 	.word	0x100176f0
10000254:	20041000 	.word	0x20041000
10000258:	20041000 	.word	0x20041000
1000025c:	00000000 	.word	0x00000000
10000260:	4770      	bx	lr
10000262:	0000      	.short	0x0000
10000264:	00000000 	.word	0x00000000
10000268:	e000ed08 	.word	0xe000ed08
1000026c:	d0000000 	.word	0xd0000000
10000270:	200018c0 	.word	0x200018c0
10000274:	200051e8 	.word	0x200051e8
10000278:	10005c1d 	.word	0x10005c1d
1000027c:	1000108d 	.word	0x1000108d
10000280:	10005bdd 	.word	0x10005bdd

10000284 <_init>:
10000284:	b5f8      	push	{r3, r4, r5, r6, r7, lr}
10000286:	46c0      	nop			@ (mov r8, r8)

10000288 <register_tm_clones>:
10000288:	4806      	ldr	r0, [pc, #24]	@ (100002a4 <register_tm_clones+0x1c>)
1000028a:	4907      	ldr	r1, [pc, #28]	@ (100002a8 <register_tm_clones+0x20>)
1000028c:	1a09      	subs	r1, r1, r0
1000028e:	108b      	asrs	r3, r1, #2
10000290:	0fc9      	lsrs	r1, r1, #31
10000292:	18c9      	adds	r1, r1, r3
10000294:	b510      	push	{r4, lr}
10000296:	1049      	asrs	r1, r1, #1
10000298:	d003      	beq.n	100002a2 <register_tm_clones+0x1a>
1000029a:	4b04      	ldr	r3, [pc, #16]	@ (100002ac <register_tm_clones+0x24>)
1000029c:	2b00      	cmp	r3, #0
1000029e:	d000      	beq.n	100002a2 <register_tm_clones+0x1a>
100002a0:	4798      	blx	r3
100002a2:	bd10      	pop	{r4, pc}
100002a4:	200018c0 	.word	0x200018c0
100002a8:	200018c0 	.word	0x200018c0
100002ac:	00000000 	.word	0x00000000

100002b0 <frame_dummy>:
100002b0:	4b05      	ldr	r3, [pc, #20]	@ (100002c8 <frame_dummy+0x18>)
100002b2:	b510      	push	{r4, lr}
100002b4:	2b00      	cmp	r3, #0
100002b6:	d003      	beq.n	100002c0 <frame_dummy+0x10>
100002b8:	4904      	ldr	r1, [pc, #16]	@ (100002cc <frame_dummy+0x1c>)
100002ba:	4805      	ldr	r0, [pc, #20]	@ (100002d0 <frame_dummy+0x20>)
100002bc:	e000      	b.n	100002c0 <frame_dummy+0x10>
100002be:	bf00      	nop
100002c0:	f7ff ffe2 	bl	10000288 <register_tm_clones>
100002c4:	bd10      	pop	{r4, pc}
100002c6:	46c0      	nop			@ (mov r8, r8)
100002c8:	00000000 	.word	0x00000000
100002cc:	20005184 	.word	0x20005184
100002d0:	10013730 	.word	0x10013730

100002d4 <_ZN6tflite7testing12_GLOBAL__N_128ValidateDepthwiseConvGoldensIavvEE12TfLiteStatusPKT_iP25TfLiteDepthwiseConvParamsfiP12TfLiteTensor.constprop.0>:
100002d4:	b5f0      	push	{r4, r5, r6, r7, lr}
100002d6:	46de      	mov	lr, fp
100002d8:	4657      	mov	r7, sl
100002da:	464e      	mov	r6, r9
100002dc:	4645      	mov	r5, r8
100002de:	4c43      	ldr	r4, [pc, #268]	@ (100003ec <_ZN6tflite7testing12_GLOBAL__N_128ValidateDepthwiseConvGoldensIavvEE12TfLiteStatusPKT_iP25TfLiteDepthwiseConvParamsfiP12TfLiteTensor.constprop.0+0x118>)
100002e0:	b5e0      	push	{r5, r6, r7, lr}
100002e2:	0016      	movs	r6, r2
100002e4:	0022      	movs	r2, r4
100002e6:	b0d9      	sub	sp, #356	@ 0x164
100002e8:	ab09      	add	r3, sp, #36	@ 0x24
100002ea:	469c      	mov	ip, r3
100002ec:	000d      	movs	r5, r1
100002ee:	4680      	mov	r8, r0
100002f0:	ca83      	ldmia	r2!, {r0, r1, r7}
100002f2:	c383      	stmia	r3!, {r0, r1, r7}
100002f4:	6812      	ldr	r2, [r2, #0]
100002f6:	4660      	mov	r0, ip
100002f8:	601a      	str	r2, [r3, #0]
100002fa:	f009 ff21 	bl	1000a140 <_ZN6tflite7testing16IntArrayFromIntsEPKi>
100002fe:	0007      	movs	r7, r0
10000300:	a807      	add	r0, sp, #28
10000302:	0003      	movs	r3, r0
10000304:	3410      	adds	r4, #16
10000306:	cc06      	ldmia	r4!, {r1, r2}
10000308:	c306      	stmia	r3!, {r1, r2}
1000030a:	f009 ff19 	bl	1000a140 <_ZN6tflite7testing16IntArrayFromIntsEPKi>
1000030e:	0004      	movs	r4, r0
10000310:	a80d      	add	r0, sp, #52	@ 0x34
10000312:	f009 fa9f 	bl	10009854 <_ZN6tflite26Register_DEPTHWISE_CONV_2DEv>
10000316:	2300      	movs	r3, #0
10000318:	0032      	movs	r2, r6
1000031a:	9303      	str	r3, [sp, #12]
1000031c:	a90d      	add	r1, sp, #52	@ 0x34
1000031e:	3304      	adds	r3, #4
10000320:	9502      	str	r5, [sp, #8]
10000322:	9401      	str	r4, [sp, #4]
10000324:	9700      	str	r7, [sp, #0]
10000326:	a814      	add	r0, sp, #80	@ 0x50
10000328:	f009 fc4e 	bl	10009bc8 <_ZN6tflite5micro12KernelRunnerC1ERK16TFLMRegistrationP12TfLiteTensoriP14TfLiteIntArrayS8_PKvS8_>
1000032c:	6b73      	ldr	r3, [r6, #52]	@ 0x34
1000032e:	6972      	ldr	r2, [r6, #20]
10000330:	6918      	ldr	r0, [r3, #16]
10000332:	6911      	ldr	r1, [r2, #16]
10000334:	f004 fb18 	bl	10004968 <__wrap___aeabi_idiv>
10000338:	2302      	movs	r3, #2
1000033a:	60e8      	str	r0, [r5, #12]
1000033c:	2200      	movs	r2, #0
1000033e:	0029      	movs	r1, r5
10000340:	702b      	strb	r3, [r5, #0]
10000342:	a814      	add	r0, sp, #80	@ 0x50
10000344:	f009 fc8e 	bl	10009c64 <_ZN6tflite5micro12KernelRunner14InitAndPrepareEPKcj>
10000348:	4681      	mov	r9, r0
1000034a:	2800      	cmp	r0, #0
1000034c:	d007      	beq.n	1000035e <_ZN6tflite7testing12_GLOBAL__N_128ValidateDepthwiseConvGoldensIavvEE12TfLiteStatusPKT_iP25TfLiteDepthwiseConvParamsfiP12TfLiteTensor.constprop.0+0x8a>
1000034e:	4648      	mov	r0, r9
10000350:	b059      	add	sp, #356	@ 0x164
10000352:	bcf0      	pop	{r4, r5, r6, r7}
10000354:	46bb      	mov	fp, r7
10000356:	46b2      	mov	sl, r6
10000358:	46a9      	mov	r9, r5
1000035a:	46a0      	mov	r8, r4
1000035c:	bdf0      	pop	{r4, r5, r6, r7, pc}
1000035e:	a814      	add	r0, sp, #80	@ 0x50
10000360:	f009 fcd4 	bl	10009d0c <_ZN6tflite5micro12KernelRunner6InvokeEv>
10000364:	2800      	cmp	r0, #0
10000366:	d134      	bne.n	100003d2 <_ZN6tflite7testing12_GLOBAL__N_128ValidateDepthwiseConvGoldensIavvEE12TfLiteStatusPKT_iP25TfLiteDepthwiseConvParamsfiP12TfLiteTensor.constprop.0+0xfe>
10000368:	6f33      	ldr	r3, [r6, #112]	@ 0x70
1000036a:	2400      	movs	r4, #0
1000036c:	469a      	mov	sl, r3
1000036e:	4b20      	ldr	r3, [pc, #128]	@ (100003f0 <_ZN6tflite7testing12_GLOBAL__N_128ValidateDepthwiseConvGoldensIavvEE12TfLiteStatusPKT_iP25TfLiteDepthwiseConvParamsfiP12TfLiteTensor.constprop.0+0x11c>)
10000370:	9305      	str	r3, [sp, #20]
10000372:	4b20      	ldr	r3, [pc, #128]	@ (100003f4 <_ZN6tflite7testing12_GLOBAL__N_128ValidateDepthwiseConvGoldensIavvEE12TfLiteStatusPKT_iP25TfLiteDepthwiseConvParamsfiP12TfLiteTensor.constprop.0+0x120>)
10000374:	469b      	mov	fp, r3
10000376:	e004      	b.n	10000382 <_ZN6tflite7testing12_GLOBAL__N_128ValidateDepthwiseConvGoldensIavvEE12TfLiteStatusPKT_iP25TfLiteDepthwiseConvParamsfiP12TfLiteTensor.constprop.0+0xae>
10000378:	42ae      	cmp	r6, r5
1000037a:	d128      	bne.n	100003ce <_ZN6tflite7testing12_GLOBAL__N_128ValidateDepthwiseConvGoldensIavvEE12TfLiteStatusPKT_iP25TfLiteDepthwiseConvParamsfiP12TfLiteTensor.constprop.0+0xfa>
1000037c:	3401      	adds	r4, #1
1000037e:	2c20      	cmp	r4, #32
10000380:	d0e5      	beq.n	1000034e <_ZN6tflite7testing12_GLOBAL__N_128ValidateDepthwiseConvGoldensIavvEE12TfLiteStatusPKT_iP25TfLiteDepthwiseConvParamsfiP12TfLiteTensor.constprop.0+0x7a>
10000382:	4643      	mov	r3, r8
10000384:	571e      	ldrsb	r6, [r3, r4]
10000386:	4653      	mov	r3, sl
10000388:	571d      	ldrsb	r5, [r3, r4]
1000038a:	1b70      	subs	r0, r6, r5
1000038c:	42ae      	cmp	r6, r5
1000038e:	ddf3      	ble.n	10000378 <_ZN6tflite7testing12_GLOBAL__N_128ValidateDepthwiseConvGoldensIavvEE12TfLiteStatusPKT_iP25TfLiteDepthwiseConvParamsfiP12TfLiteTensor.constprop.0+0xa4>
10000390:	f005 fa6e 	bl	10005870 <__wrap___aeabi_i2f>
10000394:	21fe      	movs	r1, #254	@ 0xfe
10000396:	0589      	lsls	r1, r1, #22
10000398:	f005 fa64 	bl	10005864 <__wrap___aeabi_fcmpgt>
1000039c:	2800      	cmp	r0, #0
1000039e:	d0ed      	beq.n	1000037c <_ZN6tflite7testing12_GLOBAL__N_128ValidateDepthwiseConvGoldensIavvEE12TfLiteStatusPKT_iP25TfLiteDepthwiseConvParamsfiP12TfLiteTensor.constprop.0+0xa8>
100003a0:	0030      	movs	r0, r6
100003a2:	f004 fde3 	bl	10004f6c <__wrap___aeabi_i2d>
100003a6:	23a3      	movs	r3, #163	@ 0xa3
100003a8:	9303      	str	r3, [sp, #12]
100003aa:	465b      	mov	r3, fp
100003ac:	0006      	movs	r6, r0
100003ae:	0028      	movs	r0, r5
100003b0:	000f      	movs	r7, r1
100003b2:	9302      	str	r3, [sp, #8]
100003b4:	f004 fdda 	bl	10004f6c <__wrap___aeabi_i2d>
100003b8:	0032      	movs	r2, r6
100003ba:	003b      	movs	r3, r7
100003bc:	9000      	str	r0, [sp, #0]
100003be:	9101      	str	r1, [sp, #4]
100003c0:	9805      	ldr	r0, [sp, #20]
100003c2:	f009 fd73 	bl	10009eac <_Z11MicroPrintfPKcz>
100003c6:	2201      	movs	r2, #1
100003c8:	4b0b      	ldr	r3, [pc, #44]	@ (100003f8 <_ZN6tflite7testing12_GLOBAL__N_128ValidateDepthwiseConvGoldensIavvEE12TfLiteStatusPKT_iP25TfLiteDepthwiseConvParamsfiP12TfLiteTensor.constprop.0+0x124>)
100003ca:	701a      	strb	r2, [r3, #0]
100003cc:	e7d6      	b.n	1000037c <_ZN6tflite7testing12_GLOBAL__N_128ValidateDepthwiseConvGoldensIavvEE12TfLiteStatusPKT_iP25TfLiteDepthwiseConvParamsfiP12TfLiteTensor.constprop.0+0xa8>
100003ce:	1ba8      	subs	r0, r5, r6
100003d0:	e7de      	b.n	10000390 <_ZN6tflite7testing12_GLOBAL__N_128ValidateDepthwiseConvGoldensIavvEE12TfLiteStatusPKT_iP25TfLiteDepthwiseConvParamsfiP12TfLiteTensor.constprop.0+0xbc>
100003d2:	4c0a      	ldr	r4, [pc, #40]	@ (100003fc <_ZN6tflite7testing12_GLOBAL__N_128ValidateDepthwiseConvGoldensIavvEE12TfLiteStatusPKT_iP25TfLiteDepthwiseConvParamsfiP12TfLiteTensor.constprop.0+0x128>)
100003d4:	2300      	movs	r3, #0
100003d6:	229e      	movs	r2, #158	@ 0x9e
100003d8:	9000      	str	r0, [sp, #0]
100003da:	4906      	ldr	r1, [pc, #24]	@ (100003f4 <_ZN6tflite7testing12_GLOBAL__N_128ValidateDepthwiseConvGoldensIavvEE12TfLiteStatusPKT_iP25TfLiteDepthwiseConvParamsfiP12TfLiteTensor.constprop.0+0x120>)
100003dc:	0020      	movs	r0, r4
100003de:	f009 fd65 	bl	10009eac <_Z11MicroPrintfPKcz>
100003e2:	2201      	movs	r2, #1
100003e4:	4b04      	ldr	r3, [pc, #16]	@ (100003f8 <_ZN6tflite7testing12_GLOBAL__N_128ValidateDepthwiseConvGoldensIavvEE12TfLiteStatusPKT_iP25TfLiteDepthwiseConvParamsfiP12TfLiteTensor.constprop.0+0x124>)
100003e6:	701a      	strb	r2, [r3, #0]
100003e8:	e7be      	b.n	10000368 <_ZN6tflite7testing12_GLOBAL__N_128ValidateDepthwiseConvGoldensIavvEE12TfLiteStatusPKT_iP25TfLiteDepthwiseConvParamsfiP12TfLiteTensor.constprop.0+0x94>
100003ea:	46c0      	nop			@ (mov r8, r8)
100003ec:	10014aec 	.word	0x10014aec
100003f0:	100137d8 	.word	0x100137d8
100003f4:	10013730 	.word	0x10013730
100003f8:	200051dd 	.word	0x200051dd
100003fc:	100137a0 	.word	0x100137a0

10000400 <_ZN6tflite7testing12_GLOBAL__N_128ValidateDepthwiseConvGoldensIavvEE12TfLiteStatusPKT_iP25TfLiteDepthwiseConvParamsfiP12TfLiteTensor.constprop.1>:
10000400:	b5f0      	push	{r4, r5, r6, r7, lr}
10000402:	46ce      	mov	lr, r9
10000404:	4647      	mov	r7, r8
10000406:	b580      	push	{r7, lr}
10000408:	b0d9      	sub	sp, #356	@ 0x164
1000040a:	ab09      	add	r3, sp, #36	@ 0x24
1000040c:	469c      	mov	ip, r3
1000040e:	4bcb      	ldr	r3, [pc, #812]	@ (1000073c <_ZN6tflite7testing12_GLOBAL__N_128ValidateDepthwiseConvGoldensIavvEE12TfLiteStatusPKT_iP25TfLiteDepthwiseConvParamsfiP12TfLiteTensor.constprop.1+0x33c>)
10000410:	0017      	movs	r7, r2
10000412:	4699      	mov	r9, r3
10000414:	4663      	mov	r3, ip
10000416:	464a      	mov	r2, r9
10000418:	000d      	movs	r5, r1
1000041a:	0006      	movs	r6, r0
1000041c:	ca13      	ldmia	r2!, {r0, r1, r4}
1000041e:	c313      	stmia	r3!, {r0, r1, r4}
10000420:	6812      	ldr	r2, [r2, #0]
10000422:	4660      	mov	r0, ip
10000424:	601a      	str	r2, [r3, #0]
10000426:	f009 fe8b 	bl	1000a140 <_ZN6tflite7testing16IntArrayFromIntsEPKi>
1000042a:	464c      	mov	r4, r9
1000042c:	4680      	mov	r8, r0
1000042e:	a807      	add	r0, sp, #28
10000430:	0003      	movs	r3, r0
10000432:	3410      	adds	r4, #16
10000434:	cc06      	ldmia	r4!, {r1, r2}
10000436:	c306      	stmia	r3!, {r1, r2}
10000438:	f009 fe82 	bl	1000a140 <_ZN6tflite7testing16IntArrayFromIntsEPKi>
1000043c:	0004      	movs	r4, r0
1000043e:	a80d      	add	r0, sp, #52	@ 0x34
10000440:	f009 fa08 	bl	10009854 <_ZN6tflite26Register_DEPTHWISE_CONV_2DEv>
10000444:	2300      	movs	r3, #0
10000446:	9303      	str	r3, [sp, #12]
10000448:	4643      	mov	r3, r8
1000044a:	003a      	movs	r2, r7
1000044c:	9300      	str	r3, [sp, #0]
1000044e:	a90d      	add	r1, sp, #52	@ 0x34
10000450:	2304      	movs	r3, #4
10000452:	9502      	str	r5, [sp, #8]
10000454:	9401      	str	r4, [sp, #4]
10000456:	a814      	add	r0, sp, #80	@ 0x50
10000458:	f009 fbb6 	bl	10009bc8 <_ZN6tflite5micro12KernelRunnerC1ERK16TFLMRegistrationP12TfLiteTensoriP14TfLiteIntArrayS8_PKvS8_>
1000045c:	6b7b      	ldr	r3, [r7, #52]	@ 0x34
1000045e:	697a      	ldr	r2, [r7, #20]
10000460:	6918      	ldr	r0, [r3, #16]
10000462:	6911      	ldr	r1, [r2, #16]
10000464:	f004 fa80 	bl	10004968 <__wrap___aeabi_idiv>
10000468:	2302      	movs	r3, #2
1000046a:	60e8      	str	r0, [r5, #12]
1000046c:	2200      	movs	r2, #0
1000046e:	0029      	movs	r1, r5
10000470:	702b      	strb	r3, [r5, #0]
10000472:	a814      	add	r0, sp, #80	@ 0x50
10000474:	f009 fbf6 	bl	10009c64 <_ZN6tflite5micro12KernelRunner14InitAndPrepareEPKcj>
10000478:	4680      	mov	r8, r0
1000047a:	2800      	cmp	r0, #0
1000047c:	d005      	beq.n	1000048a <_ZN6tflite7testing12_GLOBAL__N_128ValidateDepthwiseConvGoldensIavvEE12TfLiteStatusPKT_iP25TfLiteDepthwiseConvParamsfiP12TfLiteTensor.constprop.1+0x8a>
1000047e:	4640      	mov	r0, r8
10000480:	b059      	add	sp, #356	@ 0x164
10000482:	bcc0      	pop	{r6, r7}
10000484:	46b9      	mov	r9, r7
10000486:	46b0      	mov	r8, r6
10000488:	bdf0      	pop	{r4, r5, r6, r7, pc}
1000048a:	a814      	add	r0, sp, #80	@ 0x50
1000048c:	f009 fc3e 	bl	10009d0c <_ZN6tflite5micro12KernelRunner6InvokeEv>
10000490:	2800      	cmp	r0, #0
10000492:	d000      	beq.n	10000496 <_ZN6tflite7testing12_GLOBAL__N_128ValidateDepthwiseConvGoldensIavvEE12TfLiteStatusPKT_iP25TfLiteDepthwiseConvParamsfiP12TfLiteTensor.constprop.1+0x96>
10000494:	e0b5      	b.n	10000602 <_ZN6tflite7testing12_GLOBAL__N_128ValidateDepthwiseConvGoldensIavvEE12TfLiteStatusPKT_iP25TfLiteDepthwiseConvParamsfiP12TfLiteTensor.constprop.1+0x202>
10000496:	2400      	movs	r4, #0
10000498:	2500      	movs	r5, #0
1000049a:	6f3f      	ldr	r7, [r7, #112]	@ 0x70
1000049c:	5734      	ldrsb	r4, [r6, r4]
1000049e:	577d      	ldrsb	r5, [r7, r5]
100004a0:	42a5      	cmp	r5, r4
100004a2:	db00      	blt.n	100004a6 <_ZN6tflite7testing12_GLOBAL__N_128ValidateDepthwiseConvGoldensIavvEE12TfLiteStatusPKT_iP25TfLiteDepthwiseConvParamsfiP12TfLiteTensor.constprop.1+0xa6>
100004a4:	e0a8      	b.n	100005f8 <_ZN6tflite7testing12_GLOBAL__N_128ValidateDepthwiseConvGoldensIavvEE12TfLiteStatusPKT_iP25TfLiteDepthwiseConvParamsfiP12TfLiteTensor.constprop.1+0x1f8>
100004a6:	1b60      	subs	r0, r4, r5
100004a8:	f005 f9e2 	bl	10005870 <__wrap___aeabi_i2f>
100004ac:	49a4      	ldr	r1, [pc, #656]	@ (10000740 <_ZN6tflite7testing12_GLOBAL__N_128ValidateDepthwiseConvGoldensIavvEE12TfLiteStatusPKT_iP25TfLiteDepthwiseConvParamsfiP12TfLiteTensor.constprop.1+0x340>)
100004ae:	f005 f9d9 	bl	10005864 <__wrap___aeabi_fcmpgt>
100004b2:	2800      	cmp	r0, #0
100004b4:	d000      	beq.n	100004b8 <_ZN6tflite7testing12_GLOBAL__N_128ValidateDepthwiseConvGoldensIavvEE12TfLiteStatusPKT_iP25TfLiteDepthwiseConvParamsfiP12TfLiteTensor.constprop.1+0xb8>
100004b6:	e0b0      	b.n	1000061a <_ZN6tflite7testing12_GLOBAL__N_128ValidateDepthwiseConvGoldensIavvEE12TfLiteStatusPKT_iP25TfLiteDepthwiseConvParamsfiP12TfLiteTensor.constprop.1+0x21a>
100004b8:	2401      	movs	r4, #1
100004ba:	2501      	movs	r5, #1
100004bc:	5734      	ldrsb	r4, [r6, r4]
100004be:	577d      	ldrsb	r5, [r7, r5]
100004c0:	42ac      	cmp	r4, r5
100004c2:	dc00      	bgt.n	100004c6 <_ZN6tflite7testing12_GLOBAL__N_128ValidateDepthwiseConvGoldensIavvEE12TfLiteStatusPKT_iP25TfLiteDepthwiseConvParamsfiP12TfLiteTensor.constprop.1+0xc6>
100004c4:	e093      	b.n	100005ee <_ZN6tflite7testing12_GLOBAL__N_128ValidateDepthwiseConvGoldensIavvEE12TfLiteStatusPKT_iP25TfLiteDepthwiseConvParamsfiP12TfLiteTensor.constprop.1+0x1ee>
100004c6:	1b60      	subs	r0, r4, r5
100004c8:	f005 f9d2 	bl	10005870 <__wrap___aeabi_i2f>
100004cc:	499c      	ldr	r1, [pc, #624]	@ (10000740 <_ZN6tflite7testing12_GLOBAL__N_128ValidateDepthwiseConvGoldensIavvEE12TfLiteStatusPKT_iP25TfLiteDepthwiseConvParamsfiP12TfLiteTensor.constprop.1+0x340>)
100004ce:	f005 f9c9 	bl	10005864 <__wrap___aeabi_fcmpgt>
100004d2:	2800      	cmp	r0, #0
100004d4:	d000      	beq.n	100004d8 <_ZN6tflite7testing12_GLOBAL__N_128ValidateDepthwiseConvGoldensIavvEE12TfLiteStatusPKT_iP25TfLiteDepthwiseConvParamsfiP12TfLiteTensor.constprop.1+0xd8>
100004d6:	e0d0      	b.n	1000067a <_ZN6tflite7testing12_GLOBAL__N_128ValidateDepthwiseConvGoldensIavvEE12TfLiteStatusPKT_iP25TfLiteDepthwiseConvParamsfiP12TfLiteTensor.constprop.1+0x27a>
100004d8:	2402      	movs	r4, #2
100004da:	2502      	movs	r5, #2
100004dc:	5734      	ldrsb	r4, [r6, r4]
100004de:	577d      	ldrsb	r5, [r7, r5]
100004e0:	42ac      	cmp	r4, r5
100004e2:	dc00      	bgt.n	100004e6 <_ZN6tflite7testing12_GLOBAL__N_128ValidateDepthwiseConvGoldensIavvEE12TfLiteStatusPKT_iP25TfLiteDepthwiseConvParamsfiP12TfLiteTensor.constprop.1+0xe6>
100004e4:	e07e      	b.n	100005e4 <_ZN6tflite7testing12_GLOBAL__N_128ValidateDepthwiseConvGoldensIavvEE12TfLiteStatusPKT_iP25TfLiteDepthwiseConvParamsfiP12TfLiteTensor.constprop.1+0x1e4>
100004e6:	1b60      	subs	r0, r4, r5
100004e8:	f005 f9c2 	bl	10005870 <__wrap___aeabi_i2f>
100004ec:	4994      	ldr	r1, [pc, #592]	@ (10000740 <_ZN6tflite7testing12_GLOBAL__N_128ValidateDepthwiseConvGoldensIavvEE12TfLiteStatusPKT_iP25TfLiteDepthwiseConvParamsfiP12TfLiteTensor.constprop.1+0x340>)
100004ee:	f005 f9b9 	bl	10005864 <__wrap___aeabi_fcmpgt>
100004f2:	2800      	cmp	r0, #0
100004f4:	d000      	beq.n	100004f8 <_ZN6tflite7testing12_GLOBAL__N_128ValidateDepthwiseConvGoldensIavvEE12TfLiteStatusPKT_iP25TfLiteDepthwiseConvParamsfiP12TfLiteTensor.constprop.1+0xf8>
100004f6:	e0a8      	b.n	1000064a <_ZN6tflite7testing12_GLOBAL__N_128ValidateDepthwiseConvGoldensIavvEE12TfLiteStatusPKT_iP25TfLiteDepthwiseConvParamsfiP12TfLiteTensor.constprop.1+0x24a>
100004f8:	2403      	movs	r4, #3
100004fa:	2503      	movs	r5, #3
100004fc:	5734      	ldrsb	r4, [r6, r4]
100004fe:	577d      	ldrsb	r5, [r7, r5]
10000500:	42ac      	cmp	r4, r5
10000502:	dd6b      	ble.n	100005dc <_ZN6tflite7testing12_GLOBAL__N_128ValidateDepthwiseConvGoldensIavvEE12TfLiteStatusPKT_iP25TfLiteDepthwiseConvParamsfiP12TfLiteTensor.constprop.1+0x1dc>
10000504:	1b60      	subs	r0, r4, r5
10000506:	f005 f9b3 	bl	10005870 <__wrap___aeabi_i2f>
1000050a:	498d      	ldr	r1, [pc, #564]	@ (10000740 <_ZN6tflite7testing12_GLOBAL__N_128ValidateDepthwiseConvGoldensIavvEE12TfLiteStatusPKT_iP25TfLiteDepthwiseConvParamsfiP12TfLiteTensor.constprop.1+0x340>)
1000050c:	f005 f9aa 	bl	10005864 <__wrap___aeabi_fcmpgt>
10000510:	2800      	cmp	r0, #0
10000512:	d000      	beq.n	10000516 <_ZN6tflite7testing12_GLOBAL__N_128ValidateDepthwiseConvGoldensIavvEE12TfLiteStatusPKT_iP25TfLiteDepthwiseConvParamsfiP12TfLiteTensor.constprop.1+0x116>
10000514:	e11e      	b.n	10000754 <_ZN6tflite7testing12_GLOBAL__N_128ValidateDepthwiseConvGoldensIavvEE12TfLiteStatusPKT_iP25TfLiteDepthwiseConvParamsfiP12TfLiteTensor.constprop.1+0x354>
10000516:	2404      	movs	r4, #4
10000518:	2504      	movs	r5, #4
1000051a:	5734      	ldrsb	r4, [r6, r4]
1000051c:	577d      	ldrsb	r5, [r7, r5]
1000051e:	42ac      	cmp	r4, r5
10000520:	dd58      	ble.n	100005d4 <_ZN6tflite7testing12_GLOBAL__N_128ValidateDepthwiseConvGoldensIavvEE12TfLiteStatusPKT_iP25TfLiteDepthwiseConvParamsfiP12TfLiteTensor.constprop.1+0x1d4>
10000522:	1b60      	subs	r0, r4, r5
10000524:	f005 f9a4 	bl	10005870 <__wrap___aeabi_i2f>
10000528:	4985      	ldr	r1, [pc, #532]	@ (10000740 <_ZN6tflite7testing12_GLOBAL__N_128ValidateDepthwiseConvGoldensIavvEE12TfLiteStatusPKT_iP25TfLiteDepthwiseConvParamsfiP12TfLiteTensor.constprop.1+0x340>)
1000052a:	f005 f99b 	bl	10005864 <__wrap___aeabi_fcmpgt>
1000052e:	2800      	cmp	r0, #0
10000530:	d000      	beq.n	10000534 <_ZN6tflite7testing12_GLOBAL__N_128ValidateDepthwiseConvGoldensIavvEE12TfLiteStatusPKT_iP25TfLiteDepthwiseConvParamsfiP12TfLiteTensor.constprop.1+0x134>
10000532:	e0ea      	b.n	1000070a <_ZN6tflite7testing12_GLOBAL__N_128ValidateDepthwiseConvGoldensIavvEE12TfLiteStatusPKT_iP25TfLiteDepthwiseConvParamsfiP12TfLiteTensor.constprop.1+0x30a>
10000534:	2405      	movs	r4, #5
10000536:	2505      	movs	r5, #5
10000538:	5734      	ldrsb	r4, [r6, r4]
1000053a:	577d      	ldrsb	r5, [r7, r5]
1000053c:	42ac      	cmp	r4, r5
1000053e:	dd45      	ble.n	100005cc <_ZN6tflite7testing12_GLOBAL__N_128ValidateDepthwiseConvGoldensIavvEE12TfLiteStatusPKT_iP25TfLiteDepthwiseConvParamsfiP12TfLiteTensor.constprop.1+0x1cc>
10000540:	1b60      	subs	r0, r4, r5
10000542:	f005 f995 	bl	10005870 <__wrap___aeabi_i2f>
10000546:	497e      	ldr	r1, [pc, #504]	@ (10000740 <_ZN6tflite7testing12_GLOBAL__N_128ValidateDepthwiseConvGoldensIavvEE12TfLiteStatusPKT_iP25TfLiteDepthwiseConvParamsfiP12TfLiteTensor.constprop.1+0x340>)
10000548:	f005 f98c 	bl	10005864 <__wrap___aeabi_fcmpgt>
1000054c:	2800      	cmp	r0, #0
1000054e:	d000      	beq.n	10000552 <_ZN6tflite7testing12_GLOBAL__N_128ValidateDepthwiseConvGoldensIavvEE12TfLiteStatusPKT_iP25TfLiteDepthwiseConvParamsfiP12TfLiteTensor.constprop.1+0x152>
10000550:	e0c3      	b.n	100006da <_ZN6tflite7testing12_GLOBAL__N_128ValidateDepthwiseConvGoldensIavvEE12TfLiteStatusPKT_iP25TfLiteDepthwiseConvParamsfiP12TfLiteTensor.constprop.1+0x2da>
10000552:	2406      	movs	r4, #6
10000554:	2506      	movs	r5, #6
10000556:	5734      	ldrsb	r4, [r6, r4]
10000558:	577d      	ldrsb	r5, [r7, r5]
1000055a:	42ac      	cmp	r4, r5
1000055c:	dd32      	ble.n	100005c4 <_ZN6tflite7testing12_GLOBAL__N_128ValidateDepthwiseConvGoldensIavvEE12TfLiteStatusPKT_iP25TfLiteDepthwiseConvParamsfiP12TfLiteTensor.constprop.1+0x1c4>
1000055e:	1b60      	subs	r0, r4, r5
10000560:	f005 f986 	bl	10005870 <__wrap___aeabi_i2f>
10000564:	4976      	ldr	r1, [pc, #472]	@ (10000740 <_ZN6tflite7testing12_GLOBAL__N_128ValidateDepthwiseConvGoldensIavvEE12TfLiteStatusPKT_iP25TfLiteDepthwiseConvParamsfiP12TfLiteTensor.constprop.1+0x340>)
10000566:	f005 f97d 	bl	10005864 <__wrap___aeabi_fcmpgt>
1000056a:	2800      	cmp	r0, #0
1000056c:	d000      	beq.n	10000570 <_ZN6tflite7testing12_GLOBAL__N_128ValidateDepthwiseConvGoldensIavvEE12TfLiteStatusPKT_iP25TfLiteDepthwiseConvParamsfiP12TfLiteTensor.constprop.1+0x170>
1000056e:	e09c      	b.n	100006aa <_ZN6tflite7testing12_GLOBAL__N_128ValidateDepthwiseConvGoldensIavvEE12TfLiteStatusPKT_iP25TfLiteDepthwiseConvParamsfiP12TfLiteTensor.constprop.1+0x2aa>
10000570:	2407      	movs	r4, #7
10000572:	79ff      	ldrb	r7, [r7, #7]
10000574:	5734      	ldrsb	r4, [r6, r4]
10000576:	b27f      	sxtb	r7, r7
10000578:	1be0      	subs	r0, r4, r7
1000057a:	42bc      	cmp	r4, r7
1000057c:	dc02      	bgt.n	10000584 <_ZN6tflite7testing12_GLOBAL__N_128ValidateDepthwiseConvGoldensIavvEE12TfLiteStatusPKT_iP25TfLiteDepthwiseConvParamsfiP12TfLiteTensor.constprop.1+0x184>
1000057e:	d100      	bne.n	10000582 <_ZN6tflite7testing12_GLOBAL__N_128ValidateDepthwiseConvGoldensIavvEE12TfLiteStatusPKT_iP25TfLiteDepthwiseConvParamsfiP12TfLiteTensor.constprop.1+0x182>
10000580:	e77d      	b.n	1000047e <_ZN6tflite7testing12_GLOBAL__N_128ValidateDepthwiseConvGoldensIavvEE12TfLiteStatusPKT_iP25TfLiteDepthwiseConvParamsfiP12TfLiteTensor.constprop.1+0x7e>
10000582:	1b38      	subs	r0, r7, r4
10000584:	f005 f974 	bl	10005870 <__wrap___aeabi_i2f>
10000588:	496d      	ldr	r1, [pc, #436]	@ (10000740 <_ZN6tflite7testing12_GLOBAL__N_128ValidateDepthwiseConvGoldensIavvEE12TfLiteStatusPKT_iP25TfLiteDepthwiseConvParamsfiP12TfLiteTensor.constprop.1+0x340>)
1000058a:	f005 f96b 	bl	10005864 <__wrap___aeabi_fcmpgt>
1000058e:	2800      	cmp	r0, #0
10000590:	d100      	bne.n	10000594 <_ZN6tflite7testing12_GLOBAL__N_128ValidateDepthwiseConvGoldensIavvEE12TfLiteStatusPKT_iP25TfLiteDepthwiseConvParamsfiP12TfLiteTensor.constprop.1+0x194>
10000592:	e774      	b.n	1000047e <_ZN6tflite7testing12_GLOBAL__N_128ValidateDepthwiseConvGoldensIavvEE12TfLiteStatusPKT_iP25TfLiteDepthwiseConvParamsfiP12TfLiteTensor.constprop.1+0x7e>
10000594:	0020      	movs	r0, r4
10000596:	f004 fce9 	bl	10004f6c <__wrap___aeabi_i2d>
1000059a:	23a3      	movs	r3, #163	@ 0xa3
1000059c:	9303      	str	r3, [sp, #12]
1000059e:	4b69      	ldr	r3, [pc, #420]	@ (10000744 <_ZN6tflite7testing12_GLOBAL__N_128ValidateDepthwiseConvGoldensIavvEE12TfLiteStatusPKT_iP25TfLiteDepthwiseConvParamsfiP12TfLiteTensor.constprop.1+0x344>)
100005a0:	0004      	movs	r4, r0
100005a2:	0038      	movs	r0, r7
100005a4:	000d      	movs	r5, r1
100005a6:	9302      	str	r3, [sp, #8]
100005a8:	f004 fce0 	bl	10004f6c <__wrap___aeabi_i2d>
100005ac:	4e66      	ldr	r6, [pc, #408]	@ (10000748 <_ZN6tflite7testing12_GLOBAL__N_128ValidateDepthwiseConvGoldensIavvEE12TfLiteStatusPKT_iP25TfLiteDepthwiseConvParamsfiP12TfLiteTensor.constprop.1+0x348>)
100005ae:	0022      	movs	r2, r4
100005b0:	002b      	movs	r3, r5
100005b2:	9000      	str	r0, [sp, #0]
100005b4:	9101      	str	r1, [sp, #4]
100005b6:	0030      	movs	r0, r6
100005b8:	f009 fc78 	bl	10009eac <_Z11MicroPrintfPKcz>
100005bc:	2201      	movs	r2, #1
100005be:	4b63      	ldr	r3, [pc, #396]	@ (1000074c <_ZN6tflite7testing12_GLOBAL__N_128ValidateDepthwiseConvGoldensIavvEE12TfLiteStatusPKT_iP25TfLiteDepthwiseConvParamsfiP12TfLiteTensor.constprop.1+0x34c>)
100005c0:	701a      	strb	r2, [r3, #0]
100005c2:	e75c      	b.n	1000047e <_ZN6tflite7testing12_GLOBAL__N_128ValidateDepthwiseConvGoldensIavvEE12TfLiteStatusPKT_iP25TfLiteDepthwiseConvParamsfiP12TfLiteTensor.constprop.1+0x7e>
100005c4:	1b28      	subs	r0, r5, r4
100005c6:	42ac      	cmp	r4, r5
100005c8:	d0d2      	beq.n	10000570 <_ZN6tflite7testing12_GLOBAL__N_128ValidateDepthwiseConvGoldensIavvEE12TfLiteStatusPKT_iP25TfLiteDepthwiseConvParamsfiP12TfLiteTensor.constprop.1+0x170>
100005ca:	e7c9      	b.n	10000560 <_ZN6tflite7testing12_GLOBAL__N_128ValidateDepthwiseConvGoldensIavvEE12TfLiteStatusPKT_iP25TfLiteDepthwiseConvParamsfiP12TfLiteTensor.constprop.1+0x160>
100005cc:	1b28      	subs	r0, r5, r4
100005ce:	42ac      	cmp	r4, r5
100005d0:	d0bf      	beq.n	10000552 <_ZN6tflite7testing12_GLOBAL__N_128ValidateDepthwiseConvGoldensIavvEE12TfLiteStatusPKT_iP25TfLiteDepthwiseConvParamsfiP12TfLiteTensor.constprop.1+0x152>
100005d2:	e7b6      	b.n	10000542 <_ZN6tflite7testing12_GLOBAL__N_128ValidateDepthwiseConvGoldensIavvEE12TfLiteStatusPKT_iP25TfLiteDepthwiseConvParamsfiP12TfLiteTensor.constprop.1+0x142>
100005d4:	1b28      	subs	r0, r5, r4
100005d6:	42ac      	cmp	r4, r5
100005d8:	d0ac      	beq.n	10000534 <_ZN6tflite7testing12_GLOBAL__N_128ValidateDepthwiseConvGoldensIavvEE12TfLiteStatusPKT_iP25TfLiteDepthwiseConvParamsfiP12TfLiteTensor.constprop.1+0x134>
100005da:	e7a3      	b.n	10000524 <_ZN6tflite7testing12_GLOBAL__N_128ValidateDepthwiseConvGoldensIavvEE12TfLiteStatusPKT_iP25TfLiteDepthwiseConvParamsfiP12TfLiteTensor.constprop.1+0x124>
100005dc:	1b28      	subs	r0, r5, r4
100005de:	42ac      	cmp	r4, r5
100005e0:	d099      	beq.n	10000516 <_ZN6tflite7testing12_GLOBAL__N_128ValidateDepthwiseConvGoldensIavvEE12TfLiteStatusPKT_iP25TfLiteDepthwiseConvParamsfiP12TfLiteTensor.constprop.1+0x116>
100005e2:	e790      	b.n	10000506 <_ZN6tflite7testing12_GLOBAL__N_128ValidateDepthwiseConvGoldensIavvEE12TfLiteStatusPKT_iP25TfLiteDepthwiseConvParamsfiP12TfLiteTensor.constprop.1+0x106>
100005e4:	1b28      	subs	r0, r5, r4
100005e6:	42ac      	cmp	r4, r5
100005e8:	d100      	bne.n	100005ec <_ZN6tflite7testing12_GLOBAL__N_128ValidateDepthwiseConvGoldensIavvEE12TfLiteStatusPKT_iP25TfLiteDepthwiseConvParamsfiP12TfLiteTensor.constprop.1+0x1ec>
100005ea:	e785      	b.n	100004f8 <_ZN6tflite7testing12_GLOBAL__N_128ValidateDepthwiseConvGoldensIavvEE12TfLiteStatusPKT_iP25TfLiteDepthwiseConvParamsfiP12TfLiteTensor.constprop.1+0xf8>
100005ec:	e77c      	b.n	100004e8 <_ZN6tflite7testing12_GLOBAL__N_128ValidateDepthwiseConvGoldensIavvEE12TfLiteStatusPKT_iP25TfLiteDepthwiseConvParamsfiP12TfLiteTensor.constprop.1+0xe8>
100005ee:	1b28      	subs	r0, r5, r4
100005f0:	42ac      	cmp	r4, r5
100005f2:	d100      	bne.n	100005f6 <_ZN6tflite7testing12_GLOBAL__N_128ValidateDepthwiseConvGoldensIavvEE12TfLiteStatusPKT_iP25TfLiteDepthwiseConvParamsfiP12TfLiteTensor.constprop.1+0x1f6>
100005f4:	e770      	b.n	100004d8 <_ZN6tflite7testing12_GLOBAL__N_128ValidateDepthwiseConvGoldensIavvEE12TfLiteStatusPKT_iP25TfLiteDepthwiseConvParamsfiP12TfLiteTensor.constprop.1+0xd8>
100005f6:	e767      	b.n	100004c8 <_ZN6tflite7testing12_GLOBAL__N_128ValidateDepthwiseConvGoldensIavvEE12TfLiteStatusPKT_iP25TfLiteDepthwiseConvParamsfiP12TfLiteTensor.constprop.1+0xc8>
100005f8:	1b28      	subs	r0, r5, r4
100005fa:	42a5      	cmp	r5, r4
100005fc:	d100      	bne.n	10000600 <_ZN6tflite7testing12_GLOBAL__N_128ValidateDepthwiseConvGoldensIavvEE12TfLiteStatusPKT_iP25TfLiteDepthwiseConvParamsfiP12TfLiteTensor.constprop.1+0x200>
100005fe:	e75b      	b.n	100004b8 <_ZN6tflite7testing12_GLOBAL__N_128ValidateDepthwiseConvGoldensIavvEE12TfLiteStatusPKT_iP25TfLiteDepthwiseConvParamsfiP12TfLiteTensor.constprop.1+0xb8>
10000600:	e752      	b.n	100004a8 <_ZN6tflite7testing12_GLOBAL__N_128ValidateDepthwiseConvGoldensIavvEE12TfLiteStatusPKT_iP25TfLiteDepthwiseConvParamsfiP12TfLiteTensor.constprop.1+0xa8>
10000602:	4c53      	ldr	r4, [pc, #332]	@ (10000750 <_ZN6tflite7testing12_GLOBAL__N_128ValidateDepthwiseConvGoldensIavvEE12TfLiteStatusPKT_iP25TfLiteDepthwiseConvParamsfiP12TfLiteTensor.constprop.1+0x350>)
10000604:	2300      	movs	r3, #0
10000606:	229e      	movs	r2, #158	@ 0x9e
10000608:	9000      	str	r0, [sp, #0]
1000060a:	494e      	ldr	r1, [pc, #312]	@ (10000744 <_ZN6tflite7testing12_GLOBAL__N_128ValidateDepthwiseConvGoldensIavvEE12TfLiteStatusPKT_iP25TfLiteDepthwiseConvParamsfiP12TfLiteTensor.constprop.1+0x344>)
1000060c:	0020      	movs	r0, r4
1000060e:	f009 fc4d 	bl	10009eac <_Z11MicroPrintfPKcz>
10000612:	2201      	movs	r2, #1
10000614:	4b4d      	ldr	r3, [pc, #308]	@ (1000074c <_ZN6tflite7testing12_GLOBAL__N_128ValidateDepthwiseConvGoldensIavvEE12TfLiteStatusPKT_iP25TfLiteDepthwiseConvParamsfiP12TfLiteTensor.constprop.1+0x34c>)
10000616:	701a      	strb	r2, [r3, #0]
10000618:	e73d      	b.n	10000496 <_ZN6tflite7testing12_GLOBAL__N_128ValidateDepthwiseConvGoldensIavvEE12TfLiteStatusPKT_iP25TfLiteDepthwiseConvParamsfiP12TfLiteTensor.constprop.1+0x96>
1000061a:	0020      	movs	r0, r4
1000061c:	f004 fca6 	bl	10004f6c <__wrap___aeabi_i2d>
10000620:	23a3      	movs	r3, #163	@ 0xa3
10000622:	9303      	str	r3, [sp, #12]
10000624:	4b47      	ldr	r3, [pc, #284]	@ (10000744 <_ZN6tflite7testing12_GLOBAL__N_128ValidateDepthwiseConvGoldensIavvEE12TfLiteStatusPKT_iP25TfLiteDepthwiseConvParamsfiP12TfLiteTensor.constprop.1+0x344>)
10000626:	9004      	str	r0, [sp, #16]
10000628:	9105      	str	r1, [sp, #20]
1000062a:	0028      	movs	r0, r5
1000062c:	9302      	str	r3, [sp, #8]
1000062e:	f004 fc9d 	bl	10004f6c <__wrap___aeabi_i2d>
10000632:	9a04      	ldr	r2, [sp, #16]
10000634:	9b05      	ldr	r3, [sp, #20]
10000636:	4c44      	ldr	r4, [pc, #272]	@ (10000748 <_ZN6tflite7testing12_GLOBAL__N_128ValidateDepthwiseConvGoldensIavvEE12TfLiteStatusPKT_iP25TfLiteDepthwiseConvParamsfiP12TfLiteTensor.constprop.1+0x348>)
10000638:	9000      	str	r0, [sp, #0]
1000063a:	9101      	str	r1, [sp, #4]
1000063c:	0020      	movs	r0, r4
1000063e:	f009 fc35 	bl	10009eac <_Z11MicroPrintfPKcz>
10000642:	2201      	movs	r2, #1
10000644:	4b41      	ldr	r3, [pc, #260]	@ (1000074c <_ZN6tflite7testing12_GLOBAL__N_128ValidateDepthwiseConvGoldensIavvEE12TfLiteStatusPKT_iP25TfLiteDepthwiseConvParamsfiP12TfLiteTensor.constprop.1+0x34c>)
10000646:	701a      	strb	r2, [r3, #0]
10000648:	e736      	b.n	100004b8 <_ZN6tflite7testing12_GLOBAL__N_128ValidateDepthwiseConvGoldensIavvEE12TfLiteStatusPKT_iP25TfLiteDepthwiseConvParamsfiP12TfLiteTensor.constprop.1+0xb8>
1000064a:	0020      	movs	r0, r4
1000064c:	f004 fc8e 	bl	10004f6c <__wrap___aeabi_i2d>
10000650:	23a3      	movs	r3, #163	@ 0xa3
10000652:	9303      	str	r3, [sp, #12]
10000654:	4b3b      	ldr	r3, [pc, #236]	@ (10000744 <_ZN6tflite7testing12_GLOBAL__N_128ValidateDepthwiseConvGoldensIavvEE12TfLiteStatusPKT_iP25TfLiteDepthwiseConvParamsfiP12TfLiteTensor.constprop.1+0x344>)
10000656:	9004      	str	r0, [sp, #16]
10000658:	9105      	str	r1, [sp, #20]
1000065a:	0028      	movs	r0, r5
1000065c:	9302      	str	r3, [sp, #8]
1000065e:	f004 fc85 	bl	10004f6c <__wrap___aeabi_i2d>
10000662:	9a04      	ldr	r2, [sp, #16]
10000664:	9b05      	ldr	r3, [sp, #20]
10000666:	4c38      	ldr	r4, [pc, #224]	@ (10000748 <_ZN6tflite7testing12_GLOBAL__N_128ValidateDepthwiseConvGoldensIavvEE12TfLiteStatusPKT_iP25TfLiteDepthwiseConvParamsfiP12TfLiteTensor.constprop.1+0x348>)
10000668:	9000      	str	r0, [sp, #0]
1000066a:	9101      	str	r1, [sp, #4]
1000066c:	0020      	movs	r0, r4
1000066e:	f009 fc1d 	bl	10009eac <_Z11MicroPrintfPKcz>
10000672:	2201      	movs	r2, #1
10000674:	4b35      	ldr	r3, [pc, #212]	@ (1000074c <_ZN6tflite7testing12_GLOBAL__N_128ValidateDepthwiseConvGoldensIavvEE12TfLiteStatusPKT_iP25TfLiteDepthwiseConvParamsfiP12TfLiteTensor.constprop.1+0x34c>)
10000676:	701a      	strb	r2, [r3, #0]
10000678:	e73e      	b.n	100004f8 <_ZN6tflite7testing12_GLOBAL__N_128ValidateDepthwiseConvGoldensIavvEE12TfLiteStatusPKT_iP25TfLiteDepthwiseConvParamsfiP12TfLiteTensor.constprop.1+0xf8>
1000067a:	0020      	movs	r0, r4
1000067c:	f004 fc76 	bl	10004f6c <__wrap___aeabi_i2d>
10000680:	23a3      	movs	r3, #163	@ 0xa3
10000682:	9303      	str	r3, [sp, #12]
10000684:	4b2f      	ldr	r3, [pc, #188]	@ (10000744 <_ZN6tflite7testing12_GLOBAL__N_128ValidateDepthwiseConvGoldensIavvEE12TfLiteStatusPKT_iP25TfLiteDepthwiseConvParamsfiP12TfLiteTensor.constprop.1+0x344>)
10000686:	9004      	str	r0, [sp, #16]
10000688:	9105      	str	r1, [sp, #20]
1000068a:	0028      	movs	r0, r5
1000068c:	9302      	str	r3, [sp, #8]
1000068e:	f004 fc6d 	bl	10004f6c <__wrap___aeabi_i2d>
10000692:	9a04      	ldr	r2, [sp, #16]
10000694:	9b05      	ldr	r3, [sp, #20]
10000696:	4c2c      	ldr	r4, [pc, #176]	@ (10000748 <_ZN6tflite7testing12_GLOBAL__N_128ValidateDepthwiseConvGoldensIavvEE12TfLiteStatusPKT_iP25TfLiteDepthwiseConvParamsfiP12TfLiteTensor.constprop.1+0x348>)
10000698:	9000      	str	r0, [sp, #0]
1000069a:	9101      	str	r1, [sp, #4]
1000069c:	0020      	movs	r0, r4
1000069e:	f009 fc05 	bl	10009eac <_Z11MicroPrintfPKcz>
100006a2:	2201      	movs	r2, #1
100006a4:	4b29      	ldr	r3, [pc, #164]	@ (1000074c <_ZN6tflite7testing12_GLOBAL__N_128ValidateDepthwiseConvGoldensIavvEE12TfLiteStatusPKT_iP25TfLiteDepthwiseConvParamsfiP12TfLiteTensor.constprop.1+0x34c>)
100006a6:	701a      	strb	r2, [r3, #0]
100006a8:	e716      	b.n	100004d8 <_ZN6tflite7testing12_GLOBAL__N_128ValidateDepthwiseConvGoldensIavvEE12TfLiteStatusPKT_iP25TfLiteDepthwiseConvParamsfiP12TfLiteTensor.constprop.1+0xd8>
100006aa:	0020      	movs	r0, r4
100006ac:	f004 fc5e 	bl	10004f6c <__wrap___aeabi_i2d>
100006b0:	23a3      	movs	r3, #163	@ 0xa3
100006b2:	9303      	str	r3, [sp, #12]
100006b4:	4b23      	ldr	r3, [pc, #140]	@ (10000744 <_ZN6tflite7testing12_GLOBAL__N_128ValidateDepthwiseConvGoldensIavvEE12TfLiteStatusPKT_iP25TfLiteDepthwiseConvParamsfiP12TfLiteTensor.constprop.1+0x344>)
100006b6:	9004      	str	r0, [sp, #16]
100006b8:	9105      	str	r1, [sp, #20]
100006ba:	0028      	movs	r0, r5
100006bc:	9302      	str	r3, [sp, #8]
100006be:	f004 fc55 	bl	10004f6c <__wrap___aeabi_i2d>
100006c2:	9a04      	ldr	r2, [sp, #16]
100006c4:	9b05      	ldr	r3, [sp, #20]
100006c6:	4c20      	ldr	r4, [pc, #128]	@ (10000748 <_ZN6tflite7testing12_GLOBAL__N_128ValidateDepthwiseConvGoldensIavvEE12TfLiteStatusPKT_iP25TfLiteDepthwiseConvParamsfiP12TfLiteTensor.constprop.1+0x348>)
100006c8:	9000      	str	r0, [sp, #0]
100006ca:	9101      	str	r1, [sp, #4]
100006cc:	0020      	movs	r0, r4
100006ce:	f009 fbed 	bl	10009eac <_Z11MicroPrintfPKcz>
100006d2:	2201      	movs	r2, #1
100006d4:	4b1d      	ldr	r3, [pc, #116]	@ (1000074c <_ZN6tflite7testing12_GLOBAL__N_128ValidateDepthwiseConvGoldensIavvEE12TfLiteStatusPKT_iP25TfLiteDepthwiseConvParamsfiP12TfLiteTensor.constprop.1+0x34c>)
100006d6:	701a      	strb	r2, [r3, #0]
100006d8:	e74a      	b.n	10000570 <_ZN6tflite7testing12_GLOBAL__N_128ValidateDepthwiseConvGoldensIavvEE12TfLiteStatusPKT_iP25TfLiteDepthwiseConvParamsfiP12TfLiteTensor.constprop.1+0x170>
100006da:	0020      	movs	r0, r4
100006dc:	f004 fc46 	bl	10004f6c <__wrap___aeabi_i2d>
100006e0:	23a3      	movs	r3, #163	@ 0xa3
100006e2:	9303      	str	r3, [sp, #12]
100006e4:	4b17      	ldr	r3, [pc, #92]	@ (10000744 <_ZN6tflite7testing12_GLOBAL__N_128ValidateDepthwiseConvGoldensIavvEE12TfLiteStatusPKT_iP25TfLiteDepthwiseConvParamsfiP12TfLiteTensor.constprop.1+0x344>)
100006e6:	9004      	str	r0, [sp, #16]
100006e8:	9105      	str	r1, [sp, #20]
100006ea:	0028      	movs	r0, r5
100006ec:	9302      	str	r3, [sp, #8]
100006ee:	f004 fc3d 	bl	10004f6c <__wrap___aeabi_i2d>
100006f2:	9a04      	ldr	r2, [sp, #16]
100006f4:	9b05      	ldr	r3, [sp, #20]
100006f6:	4c14      	ldr	r4, [pc, #80]	@ (10000748 <_ZN6tflite7testing12_GLOBAL__N_128ValidateDepthwiseConvGoldensIavvEE12TfLiteStatusPKT_iP25TfLiteDepthwiseConvParamsfiP12TfLiteTensor.constprop.1+0x348>)
100006f8:	9000      	str	r0, [sp, #0]
100006fa:	9101      	str	r1, [sp, #4]
100006fc:	0020      	movs	r0, r4
100006fe:	f009 fbd5 	bl	10009eac <_Z11MicroPrintfPKcz>
10000702:	2201      	movs	r2, #1
10000704:	4b11      	ldr	r3, [pc, #68]	@ (1000074c <_ZN6tflite7testing12_GLOBAL__N_128ValidateDepthwiseConvGoldensIavvEE12TfLiteStatusPKT_iP25TfLiteDepthwiseConvParamsfiP12TfLiteTensor.constprop.1+0x34c>)
10000706:	701a      	strb	r2, [r3, #0]
10000708:	e723      	b.n	10000552 <_ZN6tflite7testing12_GLOBAL__N_128ValidateDepthwiseConvGoldensIavvEE12TfLiteStatusPKT_iP25TfLiteDepthwiseConvParamsfiP12TfLiteTensor.constprop.1+0x152>
1000070a:	0020      	movs	r0, r4
1000070c:	f004 fc2e 	bl	10004f6c <__wrap___aeabi_i2d>
10000710:	23a3      	movs	r3, #163	@ 0xa3
10000712:	9303      	str	r3, [sp, #12]
10000714:	4b0b      	ldr	r3, [pc, #44]	@ (10000744 <_ZN6tflite7testing12_GLOBAL__N_128ValidateDepthwiseConvGoldensIavvEE12TfLiteStatusPKT_iP25TfLiteDepthwiseConvParamsfiP12TfLiteTensor.constprop.1+0x344>)
10000716:	9004      	str	r0, [sp, #16]
10000718:	9105      	str	r1, [sp, #20]
1000071a:	0028      	movs	r0, r5
1000071c:	9302      	str	r3, [sp, #8]
1000071e:	f004 fc25 	bl	10004f6c <__wrap___aeabi_i2d>
10000722:	9a04      	ldr	r2, [sp, #16]
10000724:	9b05      	ldr	r3, [sp, #20]
10000726:	4c08      	ldr	r4, [pc, #32]	@ (10000748 <_ZN6tflite7testing12_GLOBAL__N_128ValidateDepthwiseConvGoldensIavvEE12TfLiteStatusPKT_iP25TfLiteDepthwiseConvParamsfiP12TfLiteTensor.constprop.1+0x348>)
10000728:	9000      	str	r0, [sp, #0]
1000072a:	9101      	str	r1, [sp, #4]
1000072c:	0020      	movs	r0, r4
1000072e:	f009 fbbd 	bl	10009eac <_Z11MicroPrintfPKcz>
10000732:	2201      	movs	r2, #1
10000734:	4b05      	ldr	r3, [pc, #20]	@ (1000074c <_ZN6tflite7testing12_GLOBAL__N_128ValidateDepthwiseConvGoldensIavvEE12TfLiteStatusPKT_iP25TfLiteDepthwiseConvParamsfiP12TfLiteTensor.constprop.1+0x34c>)
10000736:	701a      	strb	r2, [r3, #0]
10000738:	e6fc      	b.n	10000534 <_ZN6tflite7testing12_GLOBAL__N_128ValidateDepthwiseConvGoldensIavvEE12TfLiteStatusPKT_iP25TfLiteDepthwiseConvParamsfiP12TfLiteTensor.constprop.1+0x134>
1000073a:	46c0      	nop			@ (mov r8, r8)
1000073c:	10014aec 	.word	0x10014aec
10000740:	3727c5ac 	.word	0x3727c5ac
10000744:	10013730 	.word	0x10013730
10000748:	100137d8 	.word	0x100137d8
1000074c:	200051dd 	.word	0x200051dd
10000750:	100137a0 	.word	0x100137a0
10000754:	0020      	movs	r0, r4
10000756:	f004 fc09 	bl	10004f6c <__wrap___aeabi_i2d>
1000075a:	23a3      	movs	r3, #163	@ 0xa3
1000075c:	9303      	str	r3, [sp, #12]
1000075e:	4b09      	ldr	r3, [pc, #36]	@ (10000784 <_ZN6tflite7testing12_GLOBAL__N_128ValidateDepthwiseConvGoldensIavvEE12TfLiteStatusPKT_iP25TfLiteDepthwiseConvParamsfiP12TfLiteTensor.constprop.1+0x384>)
10000760:	9004      	str	r0, [sp, #16]
10000762:	9105      	str	r1, [sp, #20]
10000764:	0028      	movs	r0, r5
10000766:	9302      	str	r3, [sp, #8]
10000768:	f004 fc00 	bl	10004f6c <__wrap___aeabi_i2d>
1000076c:	9a04      	ldr	r2, [sp, #16]
1000076e:	9b05      	ldr	r3, [sp, #20]
10000770:	4c05      	ldr	r4, [pc, #20]	@ (10000788 <_ZN6tflite7testing12_GLOBAL__N_128ValidateDepthwiseConvGoldensIavvEE12TfLiteStatusPKT_iP25TfLiteDepthwiseConvParamsfiP12TfLiteTensor.constprop.1+0x388>)
10000772:	9000      	str	r0, [sp, #0]
10000774:	9101      	str	r1, [sp, #4]
10000776:	0020      	movs	r0, r4
10000778:	f009 fb98 	bl	10009eac <_Z11MicroPrintfPKcz>
1000077c:	2201      	movs	r2, #1
1000077e:	4b03      	ldr	r3, [pc, #12]	@ (1000078c <_ZN6tflite7testing12_GLOBAL__N_128ValidateDepthwiseConvGoldensIavvEE12TfLiteStatusPKT_iP25TfLiteDepthwiseConvParamsfiP12TfLiteTensor.constprop.1+0x38c>)
10000780:	701a      	strb	r2, [r3, #0]
10000782:	e6c8      	b.n	10000516 <_ZN6tflite7testing12_GLOBAL__N_128ValidateDepthwiseConvGoldensIavvEE12TfLiteStatusPKT_iP25TfLiteDepthwiseConvParamsfiP12TfLiteTensor.constprop.1+0x116>
10000784:	10013730 	.word	0x10013730
10000788:	100137d8 	.word	0x100137d8
1000078c:	200051dd 	.word	0x200051dd

10000790 <_ZN6tflite7testing12_GLOBAL__N_128ValidateDepthwiseConvGoldensIavvEE12TfLiteStatusPKT_iP25TfLiteDepthwiseConvParamsfiP12TfLiteTensor.constprop.2>:
10000790:	b5f0      	push	{r4, r5, r6, r7, lr}
10000792:	46de      	mov	lr, fp
10000794:	4657      	mov	r7, sl
10000796:	464e      	mov	r6, r9
10000798:	4645      	mov	r5, r8
1000079a:	4c45      	ldr	r4, [pc, #276]	@ (100008b0 <_ZN6tflite7testing12_GLOBAL__N_128ValidateDepthwiseConvGoldensIavvEE12TfLiteStatusPKT_iP25TfLiteDepthwiseConvParamsfiP12TfLiteTensor.constprop.2+0x120>)
1000079c:	b5e0      	push	{r5, r6, r7, lr}
1000079e:	0015      	movs	r5, r2
100007a0:	0022      	movs	r2, r4
100007a2:	b0d9      	sub	sp, #356	@ 0x164
100007a4:	001e      	movs	r6, r3
100007a6:	ab09      	add	r3, sp, #36	@ 0x24
100007a8:	469c      	mov	ip, r3
100007aa:	4688      	mov	r8, r1
100007ac:	4681      	mov	r9, r0
100007ae:	ca83      	ldmia	r2!, {r0, r1, r7}
100007b0:	c383      	stmia	r3!, {r0, r1, r7}
100007b2:	6812      	ldr	r2, [r2, #0]
100007b4:	4660      	mov	r0, ip
100007b6:	601a      	str	r2, [r3, #0]
100007b8:	f009 fcc2 	bl	1000a140 <_ZN6tflite7testing16IntArrayFromIntsEPKi>
100007bc:	0007      	movs	r7, r0
100007be:	a807      	add	r0, sp, #28
100007c0:	0003      	movs	r3, r0
100007c2:	3410      	adds	r4, #16
100007c4:	cc06      	ldmia	r4!, {r1, r2}
100007c6:	c306      	stmia	r3!, {r1, r2}
100007c8:	f009 fcba 	bl	1000a140 <_ZN6tflite7testing16IntArrayFromIntsEPKi>
100007cc:	0004      	movs	r4, r0
100007ce:	a80d      	add	r0, sp, #52	@ 0x34
100007d0:	f009 f840 	bl	10009854 <_ZN6tflite26Register_DEPTHWISE_CONV_2DEv>
100007d4:	2300      	movs	r3, #0
100007d6:	0032      	movs	r2, r6
100007d8:	9303      	str	r3, [sp, #12]
100007da:	a90d      	add	r1, sp, #52	@ 0x34
100007dc:	3304      	adds	r3, #4
100007de:	9502      	str	r5, [sp, #8]
100007e0:	9401      	str	r4, [sp, #4]
100007e2:	9700      	str	r7, [sp, #0]
100007e4:	a814      	add	r0, sp, #80	@ 0x50
100007e6:	f009 f9ef 	bl	10009bc8 <_ZN6tflite5micro12KernelRunnerC1ERK16TFLMRegistrationP12TfLiteTensoriP14TfLiteIntArrayS8_PKvS8_>
100007ea:	6b73      	ldr	r3, [r6, #52]	@ 0x34
100007ec:	6972      	ldr	r2, [r6, #20]
100007ee:	6918      	ldr	r0, [r3, #16]
100007f0:	6911      	ldr	r1, [r2, #16]
100007f2:	f004 f8b9 	bl	10004968 <__wrap___aeabi_idiv>
100007f6:	2302      	movs	r3, #2
100007f8:	60e8      	str	r0, [r5, #12]
100007fa:	2200      	movs	r2, #0
100007fc:	0029      	movs	r1, r5
100007fe:	702b      	strb	r3, [r5, #0]
10000800:	a814      	add	r0, sp, #80	@ 0x50
10000802:	f009 fa2f 	bl	10009c64 <_ZN6tflite5micro12KernelRunner14InitAndPrepareEPKcj>
10000806:	4682      	mov	sl, r0
10000808:	2800      	cmp	r0, #0
1000080a:	d007      	beq.n	1000081c <_ZN6tflite7testing12_GLOBAL__N_128ValidateDepthwiseConvGoldensIavvEE12TfLiteStatusPKT_iP25TfLiteDepthwiseConvParamsfiP12TfLiteTensor.constprop.2+0x8c>
1000080c:	4650      	mov	r0, sl
1000080e:	b059      	add	sp, #356	@ 0x164
10000810:	bcf0      	pop	{r4, r5, r6, r7}
10000812:	46bb      	mov	fp, r7
10000814:	46b2      	mov	sl, r6
10000816:	46a9      	mov	r9, r5
10000818:	46a0      	mov	r8, r4
1000081a:	bdf0      	pop	{r4, r5, r6, r7, pc}
1000081c:	a814      	add	r0, sp, #80	@ 0x50
1000081e:	f009 fa75 	bl	10009d0c <_ZN6tflite5micro12KernelRunner6InvokeEv>
10000822:	2800      	cmp	r0, #0
10000824:	d137      	bne.n	10000896 <_ZN6tflite7testing12_GLOBAL__N_128ValidateDepthwiseConvGoldensIavvEE12TfLiteStatusPKT_iP25TfLiteDepthwiseConvParamsfiP12TfLiteTensor.constprop.2+0x106>
10000826:	6f33      	ldr	r3, [r6, #112]	@ 0x70
10000828:	469b      	mov	fp, r3
1000082a:	4643      	mov	r3, r8
1000082c:	2b00      	cmp	r3, #0
1000082e:	dded      	ble.n	1000080c <_ZN6tflite7testing12_GLOBAL__N_128ValidateDepthwiseConvGoldensIavvEE12TfLiteStatusPKT_iP25TfLiteDepthwiseConvParamsfiP12TfLiteTensor.constprop.2+0x7c>
10000830:	4b20      	ldr	r3, [pc, #128]	@ (100008b4 <_ZN6tflite7testing12_GLOBAL__N_128ValidateDepthwiseConvGoldensIavvEE12TfLiteStatusPKT_iP25TfLiteDepthwiseConvParamsfiP12TfLiteTensor.constprop.2+0x124>)
10000832:	2400      	movs	r4, #0
10000834:	9304      	str	r3, [sp, #16]
10000836:	4b20      	ldr	r3, [pc, #128]	@ (100008b8 <_ZN6tflite7testing12_GLOBAL__N_128ValidateDepthwiseConvGoldensIavvEE12TfLiteStatusPKT_iP25TfLiteDepthwiseConvParamsfiP12TfLiteTensor.constprop.2+0x128>)
10000838:	9305      	str	r3, [sp, #20]
1000083a:	e004      	b.n	10000846 <_ZN6tflite7testing12_GLOBAL__N_128ValidateDepthwiseConvGoldensIavvEE12TfLiteStatusPKT_iP25TfLiteDepthwiseConvParamsfiP12TfLiteTensor.constprop.2+0xb6>
1000083c:	42ae      	cmp	r6, r5
1000083e:	d128      	bne.n	10000892 <_ZN6tflite7testing12_GLOBAL__N_128ValidateDepthwiseConvGoldensIavvEE12TfLiteStatusPKT_iP25TfLiteDepthwiseConvParamsfiP12TfLiteTensor.constprop.2+0x102>
10000840:	3401      	adds	r4, #1
10000842:	4544      	cmp	r4, r8
10000844:	d0e2      	beq.n	1000080c <_ZN6tflite7testing12_GLOBAL__N_128ValidateDepthwiseConvGoldensIavvEE12TfLiteStatusPKT_iP25TfLiteDepthwiseConvParamsfiP12TfLiteTensor.constprop.2+0x7c>
10000846:	464b      	mov	r3, r9
10000848:	571e      	ldrsb	r6, [r3, r4]
1000084a:	465b      	mov	r3, fp
1000084c:	571d      	ldrsb	r5, [r3, r4]
1000084e:	1b70      	subs	r0, r6, r5
10000850:	42ae      	cmp	r6, r5
10000852:	ddf3      	ble.n	1000083c <_ZN6tflite7testing12_GLOBAL__N_128ValidateDepthwiseConvGoldensIavvEE12TfLiteStatusPKT_iP25TfLiteDepthwiseConvParamsfiP12TfLiteTensor.constprop.2+0xac>
10000854:	f005 f80c 	bl	10005870 <__wrap___aeabi_i2f>
10000858:	21fe      	movs	r1, #254	@ 0xfe
1000085a:	0589      	lsls	r1, r1, #22
1000085c:	f005 f802 	bl	10005864 <__wrap___aeabi_fcmpgt>
10000860:	2800      	cmp	r0, #0
10000862:	d0ed      	beq.n	10000840 <_ZN6tflite7testing12_GLOBAL__N_128ValidateDepthwiseConvGoldensIavvEE12TfLiteStatusPKT_iP25TfLiteDepthwiseConvParamsfiP12TfLiteTensor.constprop.2+0xb0>
10000864:	0030      	movs	r0, r6
10000866:	f004 fb81 	bl	10004f6c <__wrap___aeabi_i2d>
1000086a:	23a3      	movs	r3, #163	@ 0xa3
1000086c:	9303      	str	r3, [sp, #12]
1000086e:	9b05      	ldr	r3, [sp, #20]
10000870:	0006      	movs	r6, r0
10000872:	0028      	movs	r0, r5
10000874:	000f      	movs	r7, r1
10000876:	9302      	str	r3, [sp, #8]
10000878:	f004 fb78 	bl	10004f6c <__wrap___aeabi_i2d>
1000087c:	0032      	movs	r2, r6
1000087e:	003b      	movs	r3, r7
10000880:	9000      	str	r0, [sp, #0]
10000882:	9101      	str	r1, [sp, #4]
10000884:	9804      	ldr	r0, [sp, #16]
10000886:	f009 fb11 	bl	10009eac <_Z11MicroPrintfPKcz>
1000088a:	2201      	movs	r2, #1
1000088c:	4b0b      	ldr	r3, [pc, #44]	@ (100008bc <_ZN6tflite7testing12_GLOBAL__N_128ValidateDepthwiseConvGoldensIavvEE12TfLiteStatusPKT_iP25TfLiteDepthwiseConvParamsfiP12TfLiteTensor.constprop.2+0x12c>)
1000088e:	701a      	strb	r2, [r3, #0]
10000890:	e7d6      	b.n	10000840 <_ZN6tflite7testing12_GLOBAL__N_128ValidateDepthwiseConvGoldensIavvEE12TfLiteStatusPKT_iP25TfLiteDepthwiseConvParamsfiP12TfLiteTensor.constprop.2+0xb0>
10000892:	1ba8      	subs	r0, r5, r6
10000894:	e7de      	b.n	10000854 <_ZN6tflite7testing12_GLOBAL__N_128ValidateDepthwiseConvGoldensIavvEE12TfLiteStatusPKT_iP25TfLiteDepthwiseConvParamsfiP12TfLiteTensor.constprop.2+0xc4>
10000896:	4c0a      	ldr	r4, [pc, #40]	@ (100008c0 <_ZN6tflite7testing12_GLOBAL__N_128ValidateDepthwiseConvGoldensIavvEE12TfLiteStatusPKT_iP25TfLiteDepthwiseConvParamsfiP12TfLiteTensor.constprop.2+0x130>)
10000898:	2300      	movs	r3, #0
1000089a:	229e      	movs	r2, #158	@ 0x9e
1000089c:	9000      	str	r0, [sp, #0]
1000089e:	4906      	ldr	r1, [pc, #24]	@ (100008b8 <_ZN6tflite7testing12_GLOBAL__N_128ValidateDepthwiseConvGoldensIavvEE12TfLiteStatusPKT_iP25TfLiteDepthwiseConvParamsfiP12TfLiteTensor.constprop.2+0x128>)
100008a0:	0020      	movs	r0, r4
100008a2:	f009 fb03 	bl	10009eac <_Z11MicroPrintfPKcz>
100008a6:	2201      	movs	r2, #1
100008a8:	4b04      	ldr	r3, [pc, #16]	@ (100008bc <_ZN6tflite7testing12_GLOBAL__N_128ValidateDepthwiseConvGoldensIavvEE12TfLiteStatusPKT_iP25TfLiteDepthwiseConvParamsfiP12TfLiteTensor.constprop.2+0x12c>)
100008aa:	701a      	strb	r2, [r3, #0]
100008ac:	e7bb      	b.n	10000826 <_ZN6tflite7testing12_GLOBAL__N_128ValidateDepthwiseConvGoldensIavvEE12TfLiteStatusPKT_iP25TfLiteDepthwiseConvParamsfiP12TfLiteTensor.constprop.2+0x96>
100008ae:	46c0      	nop			@ (mov r8, r8)
100008b0:	10014aec 	.word	0x10014aec
100008b4:	100137d8 	.word	0x100137d8
100008b8:	10013730 	.word	0x10013730
100008bc:	200051dd 	.word	0x200051dd
100008c0:	100137a0 	.word	0x100137a0

100008c4 <_ZN6tflite27SymmetricPerChannelQuantizeIlEEvPKfPT_iiPfj.constprop.0>:
100008c4:	b5f0      	push	{r4, r5, r6, r7, lr}
100008c6:	4657      	mov	r7, sl
100008c8:	4645      	mov	r5, r8
100008ca:	46de      	mov	lr, fp
100008cc:	464e      	mov	r6, r9
100008ce:	b5e0      	push	{r5, r6, r7, lr}
100008d0:	4680      	mov	r8, r0
100008d2:	000f      	movs	r7, r1
100008d4:	b085      	sub	sp, #20
100008d6:	0010      	movs	r0, r2
100008d8:	0019      	movs	r1, r3
100008da:	001c      	movs	r4, r3
100008dc:	f004 f844 	bl	10004968 <__wrap___aeabi_idiv>
100008e0:	2c00      	cmp	r4, #0
100008e2:	dd34      	ble.n	1000094e <_ZN6tflite27SymmetricPerChannelQuantizeIlEEvPKfPT_iiPfj.constprop.0+0x8a>
100008e4:	2800      	cmp	r0, #0
100008e6:	dd32      	ble.n	1000094e <_ZN6tflite27SymmetricPerChannelQuantizeIlEEvPKfPT_iiPfj.constprop.0+0x8a>
100008e8:	9b0e      	ldr	r3, [sp, #56]	@ 0x38
100008ea:	00a4      	lsls	r4, r4, #2
100008ec:	4699      	mov	r9, r3
100008ee:	0023      	movs	r3, r4
100008f0:	444b      	add	r3, r9
100008f2:	9301      	str	r3, [sp, #4]
100008f4:	2300      	movs	r3, #0
100008f6:	469b      	mov	fp, r3
100008f8:	2380      	movs	r3, #128	@ 0x80
100008fa:	061b      	lsls	r3, r3, #24
100008fc:	469a      	mov	sl, r3
100008fe:	0085      	lsls	r5, r0, #2
10000900:	9502      	str	r5, [sp, #8]
10000902:	9003      	str	r0, [sp, #12]
10000904:	464b      	mov	r3, r9
10000906:	681e      	ldr	r6, [r3, #0]
10000908:	465b      	mov	r3, fp
1000090a:	009c      	lsls	r4, r3, #2
1000090c:	4643      	mov	r3, r8
1000090e:	46b0      	mov	r8, r6
10000910:	001e      	movs	r6, r3
10000912:	4641      	mov	r1, r8
10000914:	5930      	ldr	r0, [r6, r4]
10000916:	f004 ff44 	bl	100057a2 <__wrap___aeabi_fdiv>
1000091a:	f005 f803 	bl	10005924 <__wrap___aeabi_f2d>
1000091e:	f004 fbeb 	bl	100050f8 <__wrap_round>
10000922:	f004 fb5f 	bl	10004fe4 <__wrap___aeabi_d2lz>
10000926:	2900      	cmp	r1, #0
10000928:	dd18      	ble.n	1000095c <_ZN6tflite27SymmetricPerChannelQuantizeIlEEvPKfPT_iiPfj.constprop.0+0x98>
1000092a:	4813      	ldr	r0, [pc, #76]	@ (10000978 <_ZN6tflite27SymmetricPerChannelQuantizeIlEEvPKfPT_iiPfj.constprop.0+0xb4>)
1000092c:	5138      	str	r0, [r7, r4]
1000092e:	3404      	adds	r4, #4
10000930:	42a5      	cmp	r5, r4
10000932:	d1ee      	bne.n	10000912 <_ZN6tflite27SymmetricPerChannelQuantizeIlEEvPKfPT_iiPfj.constprop.0+0x4e>
10000934:	2304      	movs	r3, #4
10000936:	469c      	mov	ip, r3
10000938:	9b03      	ldr	r3, [sp, #12]
1000093a:	44e1      	add	r9, ip
1000093c:	469c      	mov	ip, r3
1000093e:	9b02      	ldr	r3, [sp, #8]
10000940:	44e3      	add	fp, ip
10000942:	469c      	mov	ip, r3
10000944:	9b01      	ldr	r3, [sp, #4]
10000946:	46b0      	mov	r8, r6
10000948:	4465      	add	r5, ip
1000094a:	454b      	cmp	r3, r9
1000094c:	d1da      	bne.n	10000904 <_ZN6tflite27SymmetricPerChannelQuantizeIlEEvPKfPT_iiPfj.constprop.0+0x40>
1000094e:	b005      	add	sp, #20
10000950:	bcf0      	pop	{r4, r5, r6, r7}
10000952:	46bb      	mov	fp, r7
10000954:	46b2      	mov	sl, r6
10000956:	46a9      	mov	r9, r5
10000958:	46a0      	mov	r8, r4
1000095a:	bdf0      	pop	{r4, r5, r6, r7, pc}
1000095c:	2900      	cmp	r1, #0
1000095e:	d102      	bne.n	10000966 <_ZN6tflite27SymmetricPerChannelQuantizeIlEEvPKfPT_iiPfj.constprop.0+0xa2>
10000960:	4550      	cmp	r0, sl
10000962:	d3e3      	bcc.n	1000092c <_ZN6tflite27SymmetricPerChannelQuantizeIlEEvPKfPT_iiPfj.constprop.0+0x68>
10000964:	e7e1      	b.n	1000092a <_ZN6tflite27SymmetricPerChannelQuantizeIlEEvPKfPT_iiPfj.constprop.0+0x66>
10000966:	1c4b      	adds	r3, r1, #1
10000968:	db03      	blt.n	10000972 <_ZN6tflite27SymmetricPerChannelQuantizeIlEEvPKfPT_iiPfj.constprop.0+0xae>
1000096a:	3101      	adds	r1, #1
1000096c:	d1de      	bne.n	1000092c <_ZN6tflite27SymmetricPerChannelQuantizeIlEEvPKfPT_iiPfj.constprop.0+0x68>
1000096e:	4550      	cmp	r0, sl
10000970:	d8dc      	bhi.n	1000092c <_ZN6tflite27SymmetricPerChannelQuantizeIlEEvPKfPT_iiPfj.constprop.0+0x68>
10000972:	4802      	ldr	r0, [pc, #8]	@ (1000097c <_ZN6tflite27SymmetricPerChannelQuantizeIlEEvPKfPT_iiPfj.constprop.0+0xb8>)
10000974:	e7da      	b.n	1000092c <_ZN6tflite27SymmetricPerChannelQuantizeIlEEvPKfPT_iiPfj.constprop.0+0x68>
10000976:	46c0      	nop			@ (mov r8, r8)
10000978:	7fffffff 	.word	0x7fffffff
1000097c:	80000001 	.word	0x80000001

10000980 <_ZN6tflite7testing35CreatePerChannelQuantizedBiasTensorIlEE12TfLiteTensorPKfPT_P14TfLiteIntArrayfS4_PfPiP24TfLiteAffineQuantizationib.constprop.0>:
10000980:	b5f0      	push	{r4, r5, r6, r7, lr}
10000982:	46de      	mov	lr, fp
10000984:	4657      	mov	r7, sl
10000986:	464e      	mov	r6, r9
10000988:	4645      	mov	r5, r8
1000098a:	001c      	movs	r4, r3
1000098c:	b5e0      	push	{r5, r6, r7, lr}
1000098e:	0005      	movs	r5, r0
10000990:	b089      	sub	sp, #36	@ 0x24
10000992:	0018      	movs	r0, r3
10000994:	9205      	str	r2, [sp, #20]
10000996:	9f13      	ldr	r7, [sp, #76]	@ 0x4c
10000998:	9e14      	ldr	r6, [sp, #80]	@ 0x50
1000099a:	9104      	str	r1, [sp, #16]
1000099c:	9306      	str	r3, [sp, #24]
1000099e:	f009 fa97 	bl	10009ed0 <_ZN6tflite12ElementCountERK14TfLiteIntArray>
100009a2:	46a4      	mov	ip, r4
100009a4:	9b16      	ldr	r3, [sp, #88]	@ 0x58
100009a6:	9003      	str	r0, [sp, #12]
100009a8:	009b      	lsls	r3, r3, #2
100009aa:	4463      	add	r3, ip
100009ac:	685b      	ldr	r3, [r3, #4]
100009ae:	469b      	mov	fp, r3
100009b0:	0018      	movs	r0, r3
100009b2:	6033      	str	r3, [r6, #0]
100009b4:	f004 ff5c 	bl	10005870 <__wrap___aeabi_i2f>
100009b8:	003b      	movs	r3, r7
100009ba:	465a      	mov	r2, fp
100009bc:	c301      	stmia	r3!, {r0}
100009be:	2a00      	cmp	r2, #0
100009c0:	dd1a      	ble.n	100009f8 <_ZN6tflite7testing35CreatePerChannelQuantizedBiasTensorIlEE12TfLiteTensorPKfPT_P14TfLiteIntArrayfS4_PfPiP24TfLiteAffineQuantizationib.constprop.0+0x78>
100009c2:	3201      	adds	r2, #1
100009c4:	0092      	lsls	r2, r2, #2
100009c6:	4691      	mov	r9, r2
100009c8:	9a12      	ldr	r2, [sp, #72]	@ 0x48
100009ca:	9307      	str	r3, [sp, #28]
100009cc:	3a04      	subs	r2, #4
100009ce:	002b      	movs	r3, r5
100009d0:	4690      	mov	r8, r2
100009d2:	2200      	movs	r2, #0
100009d4:	464d      	mov	r5, r9
100009d6:	2404      	movs	r4, #4
100009d8:	4692      	mov	sl, r2
100009da:	4699      	mov	r9, r3
100009dc:	4643      	mov	r3, r8
100009de:	21fc      	movs	r1, #252	@ 0xfc
100009e0:	5918      	ldr	r0, [r3, r4]
100009e2:	0589      	lsls	r1, r1, #22
100009e4:	f004 fef1 	bl	100057ca <__wrap___aeabi_fmul>
100009e8:	4653      	mov	r3, sl
100009ea:	5138      	str	r0, [r7, r4]
100009ec:	5133      	str	r3, [r6, r4]
100009ee:	3404      	adds	r4, #4
100009f0:	42a5      	cmp	r5, r4
100009f2:	d1f3      	bne.n	100009dc <_ZN6tflite7testing35CreatePerChannelQuantizedBiasTensorIlEE12TfLiteTensorPKfPT_P14TfLiteIntArrayfS4_PfPiP24TfLiteAffineQuantizationib.constprop.0+0x5c>
100009f4:	464d      	mov	r5, r9
100009f6:	9b07      	ldr	r3, [sp, #28]
100009f8:	9905      	ldr	r1, [sp, #20]
100009fa:	9a03      	ldr	r2, [sp, #12]
100009fc:	9804      	ldr	r0, [sp, #16]
100009fe:	9300      	str	r3, [sp, #0]
10000a00:	465b      	mov	r3, fp
10000a02:	4688      	mov	r8, r1
10000a04:	f7ff ff5e 	bl	100008c4 <_ZN6tflite27SymmetricPerChannelQuantizeIlEEvPKfPT_iiPfj.constprop.0>
10000a08:	0038      	movs	r0, r7
10000a0a:	f009 fb9b 	bl	1000a144 <_ZN6tflite7testing20FloatArrayFromFloatsEPKf>
10000a0e:	9b15      	ldr	r3, [sp, #84]	@ 0x54
10000a10:	6018      	str	r0, [r3, #0]
10000a12:	0030      	movs	r0, r6
10000a14:	f009 fb94 	bl	1000a140 <_ZN6tflite7testing16IntArrayFromIntsEPKi>
10000a18:	9b15      	ldr	r3, [sp, #84]	@ 0x54
10000a1a:	9a16      	ldr	r2, [sp, #88]	@ 0x58
10000a1c:	6058      	str	r0, [r3, #4]
10000a1e:	0028      	movs	r0, r5
10000a20:	9c06      	ldr	r4, [sp, #24]
10000a22:	2100      	movs	r1, #0
10000a24:	609a      	str	r2, [r3, #8]
10000a26:	3008      	adds	r0, #8
10000a28:	2208      	movs	r2, #8
10000a2a:	616c      	str	r4, [r5, #20]
10000a2c:	f005 f832 	bl	10005a94 <__wrap_memset>
10000a30:	2300      	movs	r3, #0
10000a32:	77ab      	strb	r3, [r5, #30]
10000a34:	4643      	mov	r3, r8
10000a36:	612b      	str	r3, [r5, #16]
10000a38:	2302      	movs	r3, #2
10000a3a:	0020      	movs	r0, r4
10000a3c:	83ab      	strh	r3, [r5, #28]
10000a3e:	f009 fa47 	bl	10009ed0 <_ZN6tflite12ElementCountERK14TfLiteIntArray>
10000a42:	0004      	movs	r4, r0
10000a44:	2002      	movs	r0, #2
10000a46:	f008 f8f3 	bl	10008c30 <_ZN6tflite17TfLiteTypeGetSizeE10TfLiteType>
10000a4a:	4360      	muls	r0, r4
10000a4c:	2301      	movs	r3, #1
10000a4e:	61a8      	str	r0, [r5, #24]
10000a50:	0028      	movs	r0, r5
10000a52:	602b      	str	r3, [r5, #0]
10000a54:	9b15      	ldr	r3, [sp, #84]	@ 0x54
10000a56:	606b      	str	r3, [r5, #4]
10000a58:	b009      	add	sp, #36	@ 0x24
10000a5a:	bcf0      	pop	{r4, r5, r6, r7}
10000a5c:	46bb      	mov	fp, r7
10000a5e:	46b2      	mov	sl, r6
10000a60:	46a9      	mov	r9, r5
10000a62:	46a0      	mov	r8, r4
10000a64:	bdf0      	pop	{r4, r5, r6, r7, pc}
10000a66:	46c0      	nop			@ (mov r8, r8)

10000a68 <_ZN6tflite7testing12_GLOBAL__N_122TestDepthwiseConvFloatEPiPKfS2_S4_S2_S4_S4_S2_P25TfLiteDepthwiseConvParamsPf>:
10000a68:	b5f0      	push	{r4, r5, r6, r7, lr}
10000a6a:	46de      	mov	lr, fp
10000a6c:	4657      	mov	r7, sl
10000a6e:	464e      	mov	r6, r9
10000a70:	4645      	mov	r5, r8
10000a72:	b5e0      	push	{r5, r6, r7, lr}
10000a74:	b0f9      	sub	sp, #484	@ 0x1e4
10000a76:	0014      	movs	r4, r2
10000a78:	001e      	movs	r6, r3
10000a7a:	4688      	mov	r8, r1
10000a7c:	f009 fb60 	bl	1000a140 <_ZN6tflite7testing16IntArrayFromIntsEPKi>
10000a80:	4683      	mov	fp, r0
10000a82:	0020      	movs	r0, r4
10000a84:	f009 fb5c 	bl	1000a140 <_ZN6tflite7testing16IntArrayFromIntsEPKi>
10000a88:	4682      	mov	sl, r0
10000a8a:	9882      	ldr	r0, [sp, #520]	@ 0x208
10000a8c:	f009 fb58 	bl	1000a140 <_ZN6tflite7testing16IntArrayFromIntsEPKi>
10000a90:	4681      	mov	r9, r0
10000a92:	9885      	ldr	r0, [sp, #532]	@ 0x214
10000a94:	f009 fb54 	bl	1000a140 <_ZN6tflite7testing16IntArrayFromIntsEPKi>
10000a98:	0007      	movs	r7, r0
10000a9a:	f009 fa19 	bl	10009ed0 <_ZN6tflite12ElementCountERK14TfLiteIntArray>
10000a9e:	465a      	mov	r2, fp
10000aa0:	2100      	movs	r1, #0
10000aa2:	9004      	str	r0, [sp, #16]
10000aa4:	9219      	str	r2, [sp, #100]	@ 0x64
10000aa6:	a816      	add	r0, sp, #88	@ 0x58
10000aa8:	2208      	movs	r2, #8
10000aaa:	f004 fff3 	bl	10005a94 <__wrap_memset>
10000aae:	4642      	mov	r2, r8
10000ab0:	2500      	movs	r5, #0
10000ab2:	9218      	str	r2, [sp, #96]	@ 0x60
10000ab4:	2201      	movs	r2, #1
10000ab6:	ac14      	add	r4, sp, #80	@ 0x50
10000ab8:	4658      	mov	r0, fp
10000aba:	4690      	mov	r8, r2
10000abc:	83a2      	strh	r2, [r4, #28]
10000abe:	9514      	str	r5, [sp, #80]	@ 0x50
10000ac0:	77a5      	strb	r5, [r4, #30]
10000ac2:	6065      	str	r5, [r4, #4]
10000ac4:	f009 fa04 	bl	10009ed0 <_ZN6tflite12ElementCountERK14TfLiteIntArray>
10000ac8:	4683      	mov	fp, r0
10000aca:	7f20      	ldrb	r0, [r4, #28]
10000acc:	f008 f8b0 	bl	10008c30 <_ZN6tflite17TfLiteTypeGetSizeE10TfLiteType>
10000ad0:	465a      	mov	r2, fp
10000ad2:	4350      	muls	r0, r2
10000ad4:	4652      	mov	r2, sl
10000ad6:	2100      	movs	r1, #0
10000ad8:	61a0      	str	r0, [r4, #24]
10000ada:	6362      	str	r2, [r4, #52]	@ 0x34
10000adc:	a81e      	add	r0, sp, #120	@ 0x78
10000ade:	2208      	movs	r2, #8
10000ae0:	f004 ffd8 	bl	10005a94 <__wrap_memset>
10000ae4:	233e      	movs	r3, #62	@ 0x3e
10000ae6:	54e5      	strb	r5, [r4, r3]
10000ae8:	4643      	mov	r3, r8
10000aea:	4650      	mov	r0, sl
10000aec:	6326      	str	r6, [r4, #48]	@ 0x30
10000aee:	87a3      	strh	r3, [r4, #60]	@ 0x3c
10000af0:	6225      	str	r5, [r4, #32]
10000af2:	6265      	str	r5, [r4, #36]	@ 0x24
10000af4:	f009 f9ec 	bl	10009ed0 <_ZN6tflite12ElementCountERK14TfLiteIntArray>
10000af8:	233c      	movs	r3, #60	@ 0x3c
10000afa:	4682      	mov	sl, r0
10000afc:	5ce0      	ldrb	r0, [r4, r3]
10000afe:	f008 f897 	bl	10008c30 <_ZN6tflite17TfLiteTypeGetSizeE10TfLiteType>
10000b02:	4653      	mov	r3, sl
10000b04:	4358      	muls	r0, r3
10000b06:	464b      	mov	r3, r9
10000b08:	2100      	movs	r1, #0
10000b0a:	2208      	movs	r2, #8
10000b0c:	63a0      	str	r0, [r4, #56]	@ 0x38
10000b0e:	a826      	add	r0, sp, #152	@ 0x98
10000b10:	6563      	str	r3, [r4, #84]	@ 0x54
10000b12:	f004 ffbf 	bl	10005a94 <__wrap_memset>
10000b16:	235e      	movs	r3, #94	@ 0x5e
10000b18:	54e5      	strb	r5, [r4, r3]
10000b1a:	9b83      	ldr	r3, [sp, #524]	@ 0x20c
10000b1c:	4642      	mov	r2, r8
10000b1e:	6523      	str	r3, [r4, #80]	@ 0x50
10000b20:	235c      	movs	r3, #92	@ 0x5c
10000b22:	4648      	mov	r0, r9
10000b24:	469a      	mov	sl, r3
10000b26:	52e2      	strh	r2, [r4, r3]
10000b28:	6425      	str	r5, [r4, #64]	@ 0x40
10000b2a:	6465      	str	r5, [r4, #68]	@ 0x44
10000b2c:	f009 f9d0 	bl	10009ed0 <_ZN6tflite12ElementCountERK14TfLiteIntArray>
10000b30:	4653      	mov	r3, sl
10000b32:	4681      	mov	r9, r0
10000b34:	5ce0      	ldrb	r0, [r4, r3]
10000b36:	f008 f87b 	bl	10008c30 <_ZN6tflite17TfLiteTypeGetSizeE10TfLiteType>
10000b3a:	464b      	mov	r3, r9
10000b3c:	4358      	muls	r0, r3
10000b3e:	2100      	movs	r1, #0
10000b40:	2208      	movs	r2, #8
10000b42:	65a0      	str	r0, [r4, #88]	@ 0x58
10000b44:	a82e      	add	r0, sp, #184	@ 0xb8
10000b46:	6767      	str	r7, [r4, #116]	@ 0x74
10000b48:	f004 ffa4 	bl	10005a94 <__wrap_memset>
10000b4c:	237e      	movs	r3, #126	@ 0x7e
10000b4e:	54e5      	strb	r5, [r4, r3]
10000b50:	9b87      	ldr	r3, [sp, #540]	@ 0x21c
10000b52:	4642      	mov	r2, r8
10000b54:	6723      	str	r3, [r4, #112]	@ 0x70
10000b56:	237c      	movs	r3, #124	@ 0x7c
10000b58:	4699      	mov	r9, r3
10000b5a:	0038      	movs	r0, r7
10000b5c:	52e2      	strh	r2, [r4, r3]
10000b5e:	6625      	str	r5, [r4, #96]	@ 0x60
10000b60:	6665      	str	r5, [r4, #100]	@ 0x64
10000b62:	f009 f9b5 	bl	10009ed0 <_ZN6tflite12ElementCountERK14TfLiteIntArray>
10000b66:	464b      	mov	r3, r9
10000b68:	0007      	movs	r7, r0
10000b6a:	5ce0      	ldrb	r0, [r4, r3]
10000b6c:	f008 f860 	bl	10008c30 <_ZN6tflite17TfLiteTypeGetSizeE10TfLiteType>
10000b70:	4378      	muls	r0, r7
10000b72:	4f4b      	ldr	r7, [pc, #300]	@ (10000ca0 <_ZN6tflite7testing12_GLOBAL__N_122TestDepthwiseConvFloatEPiPKfS2_S4_S2_S4_S4_S2_P25TfLiteDepthwiseConvParamsPf+0x238>)
10000b74:	ab09      	add	r3, sp, #36	@ 0x24
10000b76:	003a      	movs	r2, r7
10000b78:	469c      	mov	ip, r3
10000b7a:	67a0      	str	r0, [r4, #120]	@ 0x78
10000b7c:	ca43      	ldmia	r2!, {r0, r1, r6}
10000b7e:	c343      	stmia	r3!, {r0, r1, r6}
10000b80:	6812      	ldr	r2, [r2, #0]
10000b82:	4660      	mov	r0, ip
10000b84:	601a      	str	r2, [r3, #0]
10000b86:	f009 fadb 	bl	1000a140 <_ZN6tflite7testing16IntArrayFromIntsEPKi>
10000b8a:	4680      	mov	r8, r0
10000b8c:	a807      	add	r0, sp, #28
10000b8e:	0003      	movs	r3, r0
10000b90:	3710      	adds	r7, #16
10000b92:	cf06      	ldmia	r7!, {r1, r2}
10000b94:	c306      	stmia	r3!, {r1, r2}
10000b96:	f009 fad3 	bl	1000a140 <_ZN6tflite7testing16IntArrayFromIntsEPKi>
10000b9a:	0007      	movs	r7, r0
10000b9c:	a80d      	add	r0, sp, #52	@ 0x34
10000b9e:	f008 fe59 	bl	10009854 <_ZN6tflite26Register_DEPTHWISE_CONV_2DEv>
10000ba2:	9b86      	ldr	r3, [sp, #536]	@ 0x218
10000ba4:	0022      	movs	r2, r4
10000ba6:	9302      	str	r3, [sp, #8]
10000ba8:	4643      	mov	r3, r8
10000baa:	a90d      	add	r1, sp, #52	@ 0x34
10000bac:	9300      	str	r3, [sp, #0]
10000bae:	9503      	str	r5, [sp, #12]
10000bb0:	2304      	movs	r3, #4
10000bb2:	9701      	str	r7, [sp, #4]
10000bb4:	a834      	add	r0, sp, #208	@ 0xd0
10000bb6:	f009 f807 	bl	10009bc8 <_ZN6tflite5micro12KernelRunnerC1ERK16TFLMRegistrationP12TfLiteTensoriP14TfLiteIntArrayS8_PKvS8_>
10000bba:	6b63      	ldr	r3, [r4, #52]	@ 0x34
10000bbc:	6962      	ldr	r2, [r4, #20]
10000bbe:	6918      	ldr	r0, [r3, #16]
10000bc0:	6911      	ldr	r1, [r2, #16]
10000bc2:	f003 fed1 	bl	10004968 <__wrap___aeabi_idiv>
10000bc6:	2302      	movs	r3, #2
10000bc8:	9a86      	ldr	r2, [sp, #536]	@ 0x218
10000bca:	7013      	strb	r3, [r2, #0]
10000bcc:	0013      	movs	r3, r2
10000bce:	60d0      	str	r0, [r2, #12]
10000bd0:	0019      	movs	r1, r3
10000bd2:	2200      	movs	r2, #0
10000bd4:	a834      	add	r0, sp, #208	@ 0xd0
10000bd6:	f009 f845 	bl	10009c64 <_ZN6tflite5micro12KernelRunner14InitAndPrepareEPKcj>
10000bda:	2800      	cmp	r0, #0
10000bdc:	d006      	beq.n	10000bec <_ZN6tflite7testing12_GLOBAL__N_122TestDepthwiseConvFloatEPiPKfS2_S4_S2_S4_S4_S2_P25TfLiteDepthwiseConvParamsPf+0x184>
10000bde:	b079      	add	sp, #484	@ 0x1e4
10000be0:	bcf0      	pop	{r4, r5, r6, r7}
10000be2:	46bb      	mov	fp, r7
10000be4:	46b2      	mov	sl, r6
10000be6:	46a9      	mov	r9, r5
10000be8:	46a0      	mov	r8, r4
10000bea:	bdf0      	pop	{r4, r5, r6, r7, pc}
10000bec:	a834      	add	r0, sp, #208	@ 0xd0
10000bee:	f009 f88d 	bl	10009d0c <_ZN6tflite5micro12KernelRunner6InvokeEv>
10000bf2:	2800      	cmp	r0, #0
10000bf4:	d148      	bne.n	10000c88 <_ZN6tflite7testing12_GLOBAL__N_122TestDepthwiseConvFloatEPiPKfS2_S4_S2_S4_S4_S2_P25TfLiteDepthwiseConvParamsPf+0x220>
10000bf6:	6f23      	ldr	r3, [r4, #112]	@ 0x70
10000bf8:	9a04      	ldr	r2, [sp, #16]
10000bfa:	4699      	mov	r9, r3
10000bfc:	2a00      	cmp	r2, #0
10000bfe:	ddee      	ble.n	10000bde <_ZN6tflite7testing12_GLOBAL__N_122TestDepthwiseConvFloatEPiPKfS2_S4_S2_S4_S4_S2_P25TfLiteDepthwiseConvParamsPf+0x176>
10000c00:	4b28      	ldr	r3, [pc, #160]	@ (10000ca4 <_ZN6tflite7testing12_GLOBAL__N_122TestDepthwiseConvFloatEPiPKfS2_S4_S2_S4_S4_S2_P25TfLiteDepthwiseConvParamsPf+0x23c>)
10000c02:	2700      	movs	r7, #0
10000c04:	469b      	mov	fp, r3
10000c06:	4b28      	ldr	r3, [pc, #160]	@ (10000ca8 <_ZN6tflite7testing12_GLOBAL__N_122TestDepthwiseConvFloatEPiPKfS2_S4_S2_S4_S4_S2_P25TfLiteDepthwiseConvParamsPf+0x240>)
10000c08:	46d8      	mov	r8, fp
10000c0a:	469a      	mov	sl, r3
10000c0c:	4693      	mov	fp, r2
10000c0e:	9e84      	ldr	r6, [sp, #528]	@ 0x210
10000c10:	e00a      	b.n	10000c28 <_ZN6tflite7testing12_GLOBAL__N_122TestDepthwiseConvFloatEPiPKfS2_S4_S2_S4_S4_S2_P25TfLiteDepthwiseConvParamsPf+0x1c0>
10000c12:	1c20      	adds	r0, r4, #0
10000c14:	f004 fdbf 	bl	10005796 <__wrap___aeabi_fsub>
10000c18:	4924      	ldr	r1, [pc, #144]	@ (10000cac <_ZN6tflite7testing12_GLOBAL__N_122TestDepthwiseConvFloatEPiPKfS2_S4_S2_S4_S4_S2_P25TfLiteDepthwiseConvParamsPf+0x244>)
10000c1a:	f004 fe23 	bl	10005864 <__wrap___aeabi_fcmpgt>
10000c1e:	2800      	cmp	r0, #0
10000c20:	d11b      	bne.n	10000c5a <_ZN6tflite7testing12_GLOBAL__N_122TestDepthwiseConvFloatEPiPKfS2_S4_S2_S4_S4_S2_P25TfLiteDepthwiseConvParamsPf+0x1f2>
10000c22:	3701      	adds	r7, #1
10000c24:	45bb      	cmp	fp, r7
10000c26:	d0da      	beq.n	10000bde <_ZN6tflite7testing12_GLOBAL__N_122TestDepthwiseConvFloatEPiPKfS2_S4_S2_S4_S4_S2_P25TfLiteDepthwiseConvParamsPf+0x176>
10000c28:	464a      	mov	r2, r9
10000c2a:	00bb      	lsls	r3, r7, #2
10000c2c:	58d5      	ldr	r5, [r2, r3]
10000c2e:	58f4      	ldr	r4, [r6, r3]
10000c30:	1c29      	adds	r1, r5, #0
10000c32:	1c20      	adds	r0, r4, #0
10000c34:	f004 fe16 	bl	10005864 <__wrap___aeabi_fcmpgt>
10000c38:	1c29      	adds	r1, r5, #0
10000c3a:	2800      	cmp	r0, #0
10000c3c:	d1e9      	bne.n	10000c12 <_ZN6tflite7testing12_GLOBAL__N_122TestDepthwiseConvFloatEPiPKfS2_S4_S2_S4_S4_S2_P25TfLiteDepthwiseConvParamsPf+0x1aa>
10000c3e:	1c20      	adds	r0, r4, #0
10000c40:	f004 fdf2 	bl	10005828 <__wrap___aeabi_fcmpeq>
10000c44:	2800      	cmp	r0, #0
10000c46:	d1ec      	bne.n	10000c22 <_ZN6tflite7testing12_GLOBAL__N_122TestDepthwiseConvFloatEPiPKfS2_S4_S2_S4_S4_S2_P25TfLiteDepthwiseConvParamsPf+0x1ba>
10000c48:	1c21      	adds	r1, r4, #0
10000c4a:	1c28      	adds	r0, r5, #0
10000c4c:	f004 fda3 	bl	10005796 <__wrap___aeabi_fsub>
10000c50:	4916      	ldr	r1, [pc, #88]	@ (10000cac <_ZN6tflite7testing12_GLOBAL__N_122TestDepthwiseConvFloatEPiPKfS2_S4_S2_S4_S4_S2_P25TfLiteDepthwiseConvParamsPf+0x244>)
10000c52:	f004 fe07 	bl	10005864 <__wrap___aeabi_fcmpgt>
10000c56:	2800      	cmp	r0, #0
10000c58:	d0e3      	beq.n	10000c22 <_ZN6tflite7testing12_GLOBAL__N_122TestDepthwiseConvFloatEPiPKfS2_S4_S2_S4_S4_S2_P25TfLiteDepthwiseConvParamsPf+0x1ba>
10000c5a:	1c20      	adds	r0, r4, #0
10000c5c:	f004 fe62 	bl	10005924 <__wrap___aeabi_f2d>
10000c60:	23a3      	movs	r3, #163	@ 0xa3
10000c62:	9303      	str	r3, [sp, #12]
10000c64:	4653      	mov	r3, sl
10000c66:	9004      	str	r0, [sp, #16]
10000c68:	9105      	str	r1, [sp, #20]
10000c6a:	1c28      	adds	r0, r5, #0
10000c6c:	9302      	str	r3, [sp, #8]
10000c6e:	f004 fe59 	bl	10005924 <__wrap___aeabi_f2d>
10000c72:	9a04      	ldr	r2, [sp, #16]
10000c74:	9b05      	ldr	r3, [sp, #20]
10000c76:	9000      	str	r0, [sp, #0]
10000c78:	9101      	str	r1, [sp, #4]
10000c7a:	4640      	mov	r0, r8
10000c7c:	f009 f916 	bl	10009eac <_Z11MicroPrintfPKcz>
10000c80:	2201      	movs	r2, #1
10000c82:	4b0b      	ldr	r3, [pc, #44]	@ (10000cb0 <_ZN6tflite7testing12_GLOBAL__N_122TestDepthwiseConvFloatEPiPKfS2_S4_S2_S4_S4_S2_P25TfLiteDepthwiseConvParamsPf+0x248>)
10000c84:	701a      	strb	r2, [r3, #0]
10000c86:	e7cc      	b.n	10000c22 <_ZN6tflite7testing12_GLOBAL__N_122TestDepthwiseConvFloatEPiPKfS2_S4_S2_S4_S4_S2_P25TfLiteDepthwiseConvParamsPf+0x1ba>
10000c88:	4d0a      	ldr	r5, [pc, #40]	@ (10000cb4 <_ZN6tflite7testing12_GLOBAL__N_122TestDepthwiseConvFloatEPiPKfS2_S4_S2_S4_S4_S2_P25TfLiteDepthwiseConvParamsPf+0x24c>)
10000c8a:	2300      	movs	r3, #0
10000c8c:	229e      	movs	r2, #158	@ 0x9e
10000c8e:	9000      	str	r0, [sp, #0]
10000c90:	4905      	ldr	r1, [pc, #20]	@ (10000ca8 <_ZN6tflite7testing12_GLOBAL__N_122TestDepthwiseConvFloatEPiPKfS2_S4_S2_S4_S4_S2_P25TfLiteDepthwiseConvParamsPf+0x240>)
10000c92:	0028      	movs	r0, r5
10000c94:	f009 f90a 	bl	10009eac <_Z11MicroPrintfPKcz>
10000c98:	2201      	movs	r2, #1
10000c9a:	4b05      	ldr	r3, [pc, #20]	@ (10000cb0 <_ZN6tflite7testing12_GLOBAL__N_122TestDepthwiseConvFloatEPiPKfS2_S4_S2_S4_S4_S2_P25TfLiteDepthwiseConvParamsPf+0x248>)
10000c9c:	701a      	strb	r2, [r3, #0]
10000c9e:	e7aa      	b.n	10000bf6 <_ZN6tflite7testing12_GLOBAL__N_122TestDepthwiseConvFloatEPiPKfS2_S4_S2_S4_S4_S2_P25TfLiteDepthwiseConvParamsPf+0x18e>
10000ca0:	10014aec 	.word	0x10014aec
10000ca4:	100137d8 	.word	0x100137d8
10000ca8:	10013730 	.word	0x10013730
10000cac:	3727c5ac 	.word	0x3727c5ac
10000cb0:	200051dd 	.word	0x200051dd
10000cb4:	100137a0 	.word	0x100137a0

10000cb8 <_ZN6tflite7testing12_GLOBAL__N_136TestDepthwiseConvQuantizedPerChannelIalEEvPiPKfPT_fiS3_S5_PaS3_S5_PT0_S3_S5_S7_S7_fiP25TfLiteDepthwiseConvParams10TfLiteType.constprop.0>:
10000cb8:	b5f0      	push	{r4, r5, r6, r7, lr}
10000cba:	46de      	mov	lr, fp
10000cbc:	4657      	mov	r7, sl
10000cbe:	464e      	mov	r6, r9
10000cc0:	4645      	mov	r5, r8
10000cc2:	b5e0      	push	{r5, r6, r7, lr}
10000cc4:	4cac      	ldr	r4, [pc, #688]	@ (10000f78 <_ZN6tflite7testing12_GLOBAL__N_136TestDepthwiseConvQuantizedPerChannelIalEEvPiPKfPT_fiS3_S5_PaS3_S5_PT0_S3_S5_S7_S7_fiP25TfLiteDepthwiseConvParams10TfLiteType.constprop.0+0x2c0>)
10000cc6:	001d      	movs	r5, r3
10000cc8:	44a5      	add	sp, r4
10000cca:	920b      	str	r2, [sp, #44]	@ 0x2c
10000ccc:	0016      	movs	r6, r2
10000cce:	23b7      	movs	r3, #183	@ 0xb7
10000cd0:	aa06      	add	r2, sp, #24
10000cd2:	4694      	mov	ip, r2
10000cd4:	00db      	lsls	r3, r3, #3
10000cd6:	4463      	add	r3, ip
10000cd8:	781b      	ldrb	r3, [r3, #0]
10000cda:	000c      	movs	r4, r1
10000cdc:	4698      	mov	r8, r3
10000cde:	f009 fa2f 	bl	1000a140 <_ZN6tflite7testing16IntArrayFromIntsEPKi>
10000ce2:	4683      	mov	fp, r0
10000ce4:	0028      	movs	r0, r5
10000ce6:	f009 fa2b 	bl	1000a140 <_ZN6tflite7testing16IntArrayFromIntsEPKi>
10000cea:	aa06      	add	r2, sp, #24
10000cec:	23b3      	movs	r3, #179	@ 0xb3
10000cee:	4694      	mov	ip, r2
10000cf0:	00db      	lsls	r3, r3, #3
10000cf2:	4463      	add	r3, ip
10000cf4:	4681      	mov	r9, r0
10000cf6:	6818      	ldr	r0, [r3, #0]
10000cf8:	f009 fa22 	bl	1000a140 <_ZN6tflite7testing16IntArrayFromIntsEPKi>
10000cfc:	aa06      	add	r2, sp, #24
10000cfe:	4694      	mov	ip, r2
10000d00:	4b9e      	ldr	r3, [pc, #632]	@ (10000f7c <_ZN6tflite7testing12_GLOBAL__N_136TestDepthwiseConvQuantizedPerChannelIalEEvPiPKfPT_fiS3_S5_PaS3_S5_PT0_S3_S5_S7_S7_fiP25TfLiteDepthwiseConvParams10TfLiteType.constprop.0+0x2c4>)
10000d02:	0007      	movs	r7, r0
10000d04:	4463      	add	r3, ip
10000d06:	6818      	ldr	r0, [r3, #0]
10000d08:	f009 fa1a 	bl	1000a140 <_ZN6tflite7testing16IntArrayFromIntsEPKi>
10000d0c:	4682      	mov	sl, r0
10000d0e:	f009 f8df 	bl	10009ed0 <_ZN6tflite12ElementCountERK14TfLiteIntArray>
10000d12:	9006      	str	r0, [sp, #24]
10000d14:	4658      	mov	r0, fp
10000d16:	f009 f8db 	bl	10009ed0 <_ZN6tflite12ElementCountERK14TfLiteIntArray>
10000d1a:	2800      	cmp	r0, #0
10000d1c:	dd23      	ble.n	10000d66 <_ZN6tflite7testing12_GLOBAL__N_136TestDepthwiseConvQuantizedPerChannelIalEEvPiPKfPT_fiS3_S5_PaS3_S5_PT0_S3_S5_S7_S7_fiP25TfLiteDepthwiseConvParams10TfLiteType.constprop.0+0xae>
10000d1e:	0080      	lsls	r0, r0, #2
10000d20:	0035      	movs	r5, r6
10000d22:	1826      	adds	r6, r4, r0
10000d24:	e005      	b.n	10000d32 <_ZN6tflite7testing12_GLOBAL__N_136TestDepthwiseConvQuantizedPerChannelIalEEvPiPKfPT_fiS3_S5_PaS3_S5_PT0_S3_S5_S7_S7_fiP25TfLiteDepthwiseConvParams10TfLiteType.constprop.0+0x7a>
10000d26:	207f      	movs	r0, #127	@ 0x7f
10000d28:	3404      	adds	r4, #4
10000d2a:	7028      	strb	r0, [r5, #0]
10000d2c:	3501      	adds	r5, #1
10000d2e:	42a6      	cmp	r6, r4
10000d30:	d019      	beq.n	10000d66 <_ZN6tflite7testing12_GLOBAL__N_136TestDepthwiseConvQuantizedPerChannelIalEEvPiPKfPT_fiS3_S5_PaS3_S5_PT0_S3_S5_S7_S7_fiP25TfLiteDepthwiseConvParams10TfLiteType.constprop.0+0xae>
10000d32:	6820      	ldr	r0, [r4, #0]
10000d34:	1c01      	adds	r1, r0, #0
10000d36:	f004 fd31 	bl	1000579c <__wrap___aeabi_fadd>
10000d3a:	f004 fdf3 	bl	10005924 <__wrap___aeabi_f2d>
10000d3e:	f004 f9db 	bl	100050f8 <__wrap_round>
10000d42:	2200      	movs	r2, #0
10000d44:	2300      	movs	r3, #0
10000d46:	f004 f87b 	bl	10004e40 <__wrap___aeabi_dadd>
10000d4a:	f004 f927 	bl	10004f9c <__wrap___aeabi_d2iz>
10000d4e:	287f      	cmp	r0, #127	@ 0x7f
10000d50:	dce9      	bgt.n	10000d26 <_ZN6tflite7testing12_GLOBAL__N_136TestDepthwiseConvQuantizedPerChannelIalEEvPiPKfPT_fiS3_S5_PaS3_S5_PT0_S3_S5_S7_S7_fiP25TfLiteDepthwiseConvParams10TfLiteType.constprop.0+0x6e>
10000d52:	0003      	movs	r3, r0
10000d54:	3380      	adds	r3, #128	@ 0x80
10000d56:	dae7      	bge.n	10000d28 <_ZN6tflite7testing12_GLOBAL__N_136TestDepthwiseConvQuantizedPerChannelIalEEvPiPKfPT_fiS3_S5_PaS3_S5_PT0_S3_S5_S7_S7_fiP25TfLiteDepthwiseConvParams10TfLiteType.constprop.0+0x70>
10000d58:	2080      	movs	r0, #128	@ 0x80
10000d5a:	3404      	adds	r4, #4
10000d5c:	4240      	negs	r0, r0
10000d5e:	7028      	strb	r0, [r5, #0]
10000d60:	3501      	adds	r5, #1
10000d62:	42a6      	cmp	r6, r4
10000d64:	d1e5      	bne.n	10000d32 <_ZN6tflite7testing12_GLOBAL__N_136TestDepthwiseConvQuantizedPerChannelIalEEvPiPKfPT_fiS3_S5_PaS3_S5_PT0_S3_S5_S7_S7_fiP25TfLiteDepthwiseConvParams10TfLiteType.constprop.0+0x7a>
10000d66:	2400      	movs	r4, #0
10000d68:	4658      	mov	r0, fp
10000d6a:	9423      	str	r4, [sp, #140]	@ 0x8c
10000d6c:	f009 f8b0 	bl	10009ed0 <_ZN6tflite12ElementCountERK14TfLiteIntArray>
10000d70:	9009      	str	r0, [sp, #36]	@ 0x24
10000d72:	2009      	movs	r0, #9
10000d74:	f007 ff5c 	bl	10008c30 <_ZN6tflite17TfLiteTypeGetSizeE10TfLiteType>
10000d78:	4642      	mov	r2, r8
10000d7a:	a906      	add	r1, sp, #24
10000d7c:	468c      	mov	ip, r1
10000d7e:	21b2      	movs	r1, #178	@ 0xb2
10000d80:	2503      	movs	r5, #3
10000d82:	ab14      	add	r3, sp, #80	@ 0x50
10000d84:	9205      	str	r2, [sp, #20]
10000d86:	9302      	str	r3, [sp, #8]
10000d88:	4a7d      	ldr	r2, [pc, #500]	@ (10000f80 <_ZN6tflite7testing12_GLOBAL__N_136TestDepthwiseConvQuantizedPerChannelIalEEvPiPKfPT_fiS3_S5_PaS3_S5_PT0_S3_S5_S7_S7_fiP25TfLiteDepthwiseConvParams10TfLiteType.constprop.0+0x2c8>)
10000d8a:	ab60      	add	r3, sp, #384	@ 0x180
10000d8c:	9301      	str	r3, [sp, #4]
10000d8e:	00c9      	lsls	r1, r1, #3
10000d90:	aba0      	add	r3, sp, #640	@ 0x280
10000d92:	9503      	str	r5, [sp, #12]
10000d94:	9300      	str	r3, [sp, #0]
10000d96:	9404      	str	r4, [sp, #16]
10000d98:	4462      	add	r2, ip
10000d9a:	4461      	add	r1, ip
10000d9c:	ae28      	add	r6, sp, #160	@ 0xa0
10000d9e:	464b      	mov	r3, r9
10000da0:	6812      	ldr	r2, [r2, #0]
10000da2:	6809      	ldr	r1, [r1, #0]
10000da4:	900a      	str	r0, [sp, #40]	@ 0x28
10000da6:	0030      	movs	r0, r6
10000da8:	f009 f9d4 	bl	1000a154 <_ZN6tflite7testing40CreateSymmetricPerChannelQuantizedTensorEPKfPaP14TfLiteIntArrayPfPiP24TfLiteAffineQuantizationib10TfLiteType>
10000dac:	a906      	add	r1, sp, #24
10000dae:	22b4      	movs	r2, #180	@ 0xb4
10000db0:	468c      	mov	ip, r1
10000db2:	ab17      	add	r3, sp, #92	@ 0x5c
10000db4:	9303      	str	r3, [sp, #12]
10000db6:	abe0      	add	r3, sp, #896	@ 0x380
10000db8:	9302      	str	r3, [sp, #8]
10000dba:	abff      	add	r3, sp, #1020	@ 0x3fc
10000dbc:	3384      	adds	r3, #132	@ 0x84
10000dbe:	4971      	ldr	r1, [pc, #452]	@ (10000f84 <_ZN6tflite7testing12_GLOBAL__N_136TestDepthwiseConvQuantizedPerChannelIalEEvPiPKfPT_fiS3_S5_PaS3_S5_PT0_S3_S5_S7_S7_fiP25TfLiteDepthwiseConvParams10TfLiteType.constprop.0+0x2cc>)
10000dc0:	9301      	str	r3, [sp, #4]
10000dc2:	00d2      	lsls	r2, r2, #3
10000dc4:	aba1      	add	r3, sp, #644	@ 0x284
10000dc6:	4462      	add	r2, ip
10000dc8:	4461      	add	r1, ip
10000dca:	9504      	str	r5, [sp, #16]
10000dcc:	9300      	str	r3, [sp, #0]
10000dce:	ad30      	add	r5, sp, #192	@ 0xc0
10000dd0:	003b      	movs	r3, r7
10000dd2:	6812      	ldr	r2, [r2, #0]
10000dd4:	6809      	ldr	r1, [r1, #0]
10000dd6:	0028      	movs	r0, r5
10000dd8:	f7ff fdd2 	bl	10000980 <_ZN6tflite7testing35CreatePerChannelQuantizedBiasTensorIlEE12TfLiteTensorPKfPT_P14TfLiteIntArrayfS4_PfPiP24TfLiteAffineQuantizationib.constprop.0>
10000ddc:	4650      	mov	r0, sl
10000dde:	943b      	str	r4, [sp, #236]	@ 0xec
10000de0:	f009 f876 	bl	10009ed0 <_ZN6tflite12ElementCountERK14TfLiteIntArray>
10000de4:	9007      	str	r0, [sp, #28]
10000de6:	2009      	movs	r0, #9
10000de8:	f007 ff22 	bl	10008c30 <_ZN6tflite17TfLiteTypeGetSizeE10TfLiteType>
10000dec:	22fc      	movs	r2, #252	@ 0xfc
10000dee:	0592      	lsls	r2, r2, #22
10000df0:	4691      	mov	r9, r2
10000df2:	920d      	str	r2, [sp, #52]	@ 0x34
10000df4:	aa1a      	add	r2, sp, #104	@ 0x68
10000df6:	4690      	mov	r8, r2
10000df8:	25fe      	movs	r5, #254	@ 0xfe
10000dfa:	2601      	movs	r6, #1
10000dfc:	2100      	movs	r1, #0
10000dfe:	05ad      	lsls	r5, r5, #22
10000e00:	220c      	movs	r2, #12
10000e02:	9008      	str	r0, [sp, #32]
10000e04:	4640      	mov	r0, r8
10000e06:	950c      	str	r5, [sp, #48]	@ 0x30
10000e08:	960e      	str	r6, [sp, #56]	@ 0x38
10000e0a:	940f      	str	r4, [sp, #60]	@ 0x3c
10000e0c:	f004 fe42 	bl	10005a94 <__wrap_memset>
10000e10:	aa0c      	add	r2, sp, #48	@ 0x30
10000e12:	0010      	movs	r0, r2
10000e14:	f009 f996 	bl	1000a144 <_ZN6tflite7testing20FloatArrayFromFloatsEPKf>
10000e18:	aa0e      	add	r2, sp, #56	@ 0x38
10000e1a:	901a      	str	r0, [sp, #104]	@ 0x68
10000e1c:	0010      	movs	r0, r2
10000e1e:	f009 f98f 	bl	1000a140 <_ZN6tflite7testing16IntArrayFromIntsEPKi>
10000e22:	4642      	mov	r2, r8
10000e24:	af1d      	add	r7, sp, #116	@ 0x74
10000e26:	2100      	movs	r1, #0
10000e28:	6050      	str	r0, [r2, #4]
10000e2a:	220c      	movs	r2, #12
10000e2c:	0038      	movs	r0, r7
10000e2e:	9510      	str	r5, [sp, #64]	@ 0x40
10000e30:	9511      	str	r5, [sp, #68]	@ 0x44
10000e32:	9612      	str	r6, [sp, #72]	@ 0x48
10000e34:	9413      	str	r4, [sp, #76]	@ 0x4c
10000e36:	f004 fe2d 	bl	10005a94 <__wrap_memset>
10000e3a:	aa10      	add	r2, sp, #64	@ 0x40
10000e3c:	0010      	movs	r0, r2
10000e3e:	f009 f981 	bl	1000a144 <_ZN6tflite7testing20FloatArrayFromFloatsEPKf>
10000e42:	aa12      	add	r2, sp, #72	@ 0x48
10000e44:	901d      	str	r0, [sp, #116]	@ 0x74
10000e46:	0010      	movs	r0, r2
10000e48:	f009 f97a 	bl	1000a140 <_ZN6tflite7testing16IntArrayFromIntsEPKi>
10000e4c:	4642      	mov	r2, r8
10000e4e:	9221      	str	r2, [sp, #132]	@ 0x84
10000e50:	464a      	mov	r2, r9
10000e52:	9222      	str	r2, [sp, #136]	@ 0x88
10000e54:	9a0b      	ldr	r2, [sp, #44]	@ 0x2c
10000e56:	9b0a      	ldr	r3, [sp, #40]	@ 0x28
10000e58:	9224      	str	r2, [sp, #144]	@ 0x90
10000e5a:	465a      	mov	r2, fp
10000e5c:	9225      	str	r2, [sp, #148]	@ 0x94
10000e5e:	9a09      	ldr	r2, [sp, #36]	@ 0x24
10000e60:	2184      	movs	r1, #132	@ 0x84
10000e62:	4353      	muls	r3, r2
10000e64:	2209      	movs	r2, #9
10000e66:	4690      	mov	r8, r2
10000e68:	aa06      	add	r2, sp, #24
10000e6a:	1852      	adds	r2, r2, r1
10000e6c:	4641      	mov	r1, r8
10000e6e:	8011      	strh	r1, [r2, #0]
10000e70:	317d      	adds	r1, #125	@ 0x7d
10000e72:	aa06      	add	r2, sp, #24
10000e74:	1852      	adds	r2, r2, r1
10000e76:	9326      	str	r3, [sp, #152]	@ 0x98
10000e78:	ab40      	add	r3, sp, #256	@ 0x100
10000e7a:	901e      	str	r0, [sp, #120]	@ 0x78
10000e7c:	7014      	strb	r4, [r2, #0]
10000e7e:	0018      	movs	r0, r3
10000e80:	2220      	movs	r2, #32
10000e82:	a920      	add	r1, sp, #128	@ 0x80
10000e84:	9620      	str	r6, [sp, #128]	@ 0x80
10000e86:	f004 fe0b 	bl	10005aa0 <__wrap___aeabi_memcpy>
10000e8a:	2220      	movs	r2, #32
10000e8c:	a928      	add	r1, sp, #160	@ 0xa0
10000e8e:	a848      	add	r0, sp, #288	@ 0x120
10000e90:	f004 fe06 	bl	10005aa0 <__wrap___aeabi_memcpy>
10000e94:	2220      	movs	r2, #32
10000e96:	a930      	add	r1, sp, #192	@ 0xc0
10000e98:	a850      	add	r0, sp, #320	@ 0x140
10000e9a:	f004 fe01 	bl	10005aa0 <__wrap___aeabi_memcpy>
10000e9e:	aa06      	add	r2, sp, #24
10000ea0:	23b6      	movs	r3, #182	@ 0xb6
10000ea2:	4694      	mov	ip, r2
10000ea4:	00db      	lsls	r3, r3, #3
10000ea6:	4463      	add	r3, ip
10000ea8:	681a      	ldr	r2, [r3, #0]
10000eaa:	9b08      	ldr	r3, [sp, #32]
10000eac:	923c      	str	r2, [sp, #240]	@ 0xf0
10000eae:	4652      	mov	r2, sl
10000eb0:	923d      	str	r2, [sp, #244]	@ 0xf4
10000eb2:	9a07      	ldr	r2, [sp, #28]
10000eb4:	a938      	add	r1, sp, #224	@ 0xe0
10000eb6:	4353      	muls	r3, r2
10000eb8:	22e4      	movs	r2, #228	@ 0xe4
10000eba:	933e      	str	r3, [sp, #248]	@ 0xf8
10000ebc:	4663      	mov	r3, ip
10000ebe:	189b      	adds	r3, r3, r2
10000ec0:	4642      	mov	r2, r8
10000ec2:	801a      	strh	r2, [r3, #0]
10000ec4:	4663      	mov	r3, ip
10000ec6:	32dd      	adds	r2, #221	@ 0xdd
10000ec8:	189b      	adds	r3, r3, r2
10000eca:	a858      	add	r0, sp, #352	@ 0x160
10000ecc:	3ac6      	subs	r2, #198	@ 0xc6
10000ece:	701c      	strb	r4, [r3, #0]
10000ed0:	9638      	str	r6, [sp, #224]	@ 0xe0
10000ed2:	9739      	str	r7, [sp, #228]	@ 0xe4
10000ed4:	953a      	str	r5, [sp, #232]	@ 0xe8
10000ed6:	f004 fde3 	bl	10005aa0 <__wrap___aeabi_memcpy>
10000eda:	9b06      	ldr	r3, [sp, #24]
10000edc:	2b00      	cmp	r3, #0
10000ede:	dd28      	ble.n	10000f32 <_ZN6tflite7testing12_GLOBAL__N_136TestDepthwiseConvQuantizedPerChannelIalEEvPiPKfPT_fiS3_S5_PaS3_S5_PT0_S3_S5_S7_S7_fiP25TfLiteDepthwiseConvParams10TfLiteType.constprop.0+0x27a>
10000ee0:	22b5      	movs	r2, #181	@ 0xb5
10000ee2:	a906      	add	r1, sp, #24
10000ee4:	468c      	mov	ip, r1
10000ee6:	00d2      	lsls	r2, r2, #3
10000ee8:	4462      	add	r2, ip
10000eea:	6814      	ldr	r4, [r2, #0]
10000eec:	4a26      	ldr	r2, [pc, #152]	@ (10000f88 <_ZN6tflite7testing12_GLOBAL__N_136TestDepthwiseConvQuantizedPerChannelIalEEvPiPKfPT_fiS3_S5_PaS3_S5_PT0_S3_S5_S7_S7_fiP25TfLiteDepthwiseConvParams10TfLiteType.constprop.0+0x2d0>)
10000eee:	009e      	lsls	r6, r3, #2
10000ef0:	4462      	add	r2, ip
10000ef2:	6815      	ldr	r5, [r2, #0]
10000ef4:	19a6      	adds	r6, r4, r6
10000ef6:	e005      	b.n	10000f04 <_ZN6tflite7testing12_GLOBAL__N_136TestDepthwiseConvQuantizedPerChannelIalEEvPiPKfPT_fiS3_S5_PaS3_S5_PT0_S3_S5_S7_S7_fiP25TfLiteDepthwiseConvParams10TfLiteType.constprop.0+0x24c>
10000ef8:	207f      	movs	r0, #127	@ 0x7f
10000efa:	3404      	adds	r4, #4
10000efc:	7028      	strb	r0, [r5, #0]
10000efe:	3501      	adds	r5, #1
10000f00:	42b4      	cmp	r4, r6
10000f02:	d016      	beq.n	10000f32 <_ZN6tflite7testing12_GLOBAL__N_136TestDepthwiseConvQuantizedPerChannelIalEEvPiPKfPT_fiS3_S5_PaS3_S5_PT0_S3_S5_S7_S7_fiP25TfLiteDepthwiseConvParams10TfLiteType.constprop.0+0x27a>
10000f04:	6820      	ldr	r0, [r4, #0]
10000f06:	f004 fd0d 	bl	10005924 <__wrap___aeabi_f2d>
10000f0a:	f004 f8f5 	bl	100050f8 <__wrap_round>
10000f0e:	2200      	movs	r2, #0
10000f10:	2300      	movs	r3, #0
10000f12:	f003 ff95 	bl	10004e40 <__wrap___aeabi_dadd>
10000f16:	f004 f841 	bl	10004f9c <__wrap___aeabi_d2iz>
10000f1a:	287f      	cmp	r0, #127	@ 0x7f
10000f1c:	dcec      	bgt.n	10000ef8 <_ZN6tflite7testing12_GLOBAL__N_136TestDepthwiseConvQuantizedPerChannelIalEEvPiPKfPT_fiS3_S5_PaS3_S5_PT0_S3_S5_S7_S7_fiP25TfLiteDepthwiseConvParams10TfLiteType.constprop.0+0x240>
10000f1e:	0003      	movs	r3, r0
10000f20:	3380      	adds	r3, #128	@ 0x80
10000f22:	daea      	bge.n	10000efa <_ZN6tflite7testing12_GLOBAL__N_136TestDepthwiseConvQuantizedPerChannelIalEEvPiPKfPT_fiS3_S5_PaS3_S5_PT0_S3_S5_S7_S7_fiP25TfLiteDepthwiseConvParams10TfLiteType.constprop.0+0x242>
10000f24:	2080      	movs	r0, #128	@ 0x80
10000f26:	3404      	adds	r4, #4
10000f28:	4240      	negs	r0, r0
10000f2a:	7028      	strb	r0, [r5, #0]
10000f2c:	3501      	adds	r5, #1
10000f2e:	42b4      	cmp	r4, r6
10000f30:	d1e8      	bne.n	10000f04 <_ZN6tflite7testing12_GLOBAL__N_136TestDepthwiseConvQuantizedPerChannelIalEEvPiPKfPT_fiS3_S5_PaS3_S5_PT0_S3_S5_S7_S7_fiP25TfLiteDepthwiseConvParams10TfLiteType.constprop.0+0x24c>
10000f32:	a906      	add	r1, sp, #24
10000f34:	468c      	mov	ip, r1
10000f36:	4a15      	ldr	r2, [pc, #84]	@ (10000f8c <_ZN6tflite7testing12_GLOBAL__N_136TestDepthwiseConvQuantizedPerChannelIalEEvPiPKfPT_fiS3_S5_PaS3_S5_PT0_S3_S5_S7_S7_fiP25TfLiteDepthwiseConvParams10TfLiteType.constprop.0+0x2d4>)
10000f38:	4813      	ldr	r0, [pc, #76]	@ (10000f88 <_ZN6tflite7testing12_GLOBAL__N_136TestDepthwiseConvQuantizedPerChannelIalEEvPiPKfPT_fiS3_S5_PaS3_S5_PT0_S3_S5_S7_S7_fiP25TfLiteDepthwiseConvParams10TfLiteType.constprop.0+0x2d0>)
10000f3a:	4462      	add	r2, ip
10000f3c:	4460      	add	r0, ip
10000f3e:	6812      	ldr	r2, [r2, #0]
10000f40:	9906      	ldr	r1, [sp, #24]
10000f42:	6800      	ldr	r0, [r0, #0]
10000f44:	ab40      	add	r3, sp, #256	@ 0x100
10000f46:	f7ff fc23 	bl	10000790 <_ZN6tflite7testing12_GLOBAL__N_128ValidateDepthwiseConvGoldensIavvEE12TfLiteStatusPKT_iP25TfLiteDepthwiseConvParamsfiP12TfLiteTensor.constprop.2>
10000f4a:	2800      	cmp	r0, #0
10000f4c:	d107      	bne.n	10000f5e <_ZN6tflite7testing12_GLOBAL__N_136TestDepthwiseConvQuantizedPerChannelIalEEvPiPKfPT_fiS3_S5_PaS3_S5_PT0_S3_S5_S7_S7_fiP25TfLiteDepthwiseConvParams10TfLiteType.constprop.0+0x2a6>
10000f4e:	4b10      	ldr	r3, [pc, #64]	@ (10000f90 <_ZN6tflite7testing12_GLOBAL__N_136TestDepthwiseConvQuantizedPerChannelIalEEvPiPKfPT_fiS3_S5_PaS3_S5_PT0_S3_S5_S7_S7_fiP25TfLiteDepthwiseConvParams10TfLiteType.constprop.0+0x2d8>)
10000f50:	449d      	add	sp, r3
10000f52:	bcf0      	pop	{r4, r5, r6, r7}
10000f54:	46bb      	mov	fp, r7
10000f56:	46b2      	mov	sl, r6
10000f58:	46a9      	mov	r9, r5
10000f5a:	46a0      	mov	r8, r4
10000f5c:	bdf0      	pop	{r4, r5, r6, r7, pc}
10000f5e:	4c0d      	ldr	r4, [pc, #52]	@ (10000f94 <_ZN6tflite7testing12_GLOBAL__N_136TestDepthwiseConvQuantizedPerChannelIalEEvPiPKfPT_fiS3_S5_PaS3_S5_PT0_S3_S5_S7_S7_fiP25TfLiteDepthwiseConvParams10TfLiteType.constprop.0+0x2dc>)
10000f60:	2300      	movs	r3, #0
10000f62:	22e8      	movs	r2, #232	@ 0xe8
10000f64:	9000      	str	r0, [sp, #0]
10000f66:	490c      	ldr	r1, [pc, #48]	@ (10000f98 <_ZN6tflite7testing12_GLOBAL__N_136TestDepthwiseConvQuantizedPerChannelIalEEvPiPKfPT_fiS3_S5_PaS3_S5_PT0_S3_S5_S7_S7_fiP25TfLiteDepthwiseConvParams10TfLiteType.constprop.0+0x2e0>)
10000f68:	0020      	movs	r0, r4
10000f6a:	f008 ff9f 	bl	10009eac <_Z11MicroPrintfPKcz>
10000f6e:	2201      	movs	r2, #1
10000f70:	4b0a      	ldr	r3, [pc, #40]	@ (10000f9c <_ZN6tflite7testing12_GLOBAL__N_136TestDepthwiseConvQuantizedPerChannelIalEEvPiPKfPT_fiS3_S5_PaS3_S5_PT0_S3_S5_S7_S7_fiP25TfLiteDepthwiseConvParams10TfLiteType.constprop.0+0x2e4>)
10000f72:	701a      	strb	r2, [r3, #0]
10000f74:	e7eb      	b.n	10000f4e <_ZN6tflite7testing12_GLOBAL__N_136TestDepthwiseConvQuantizedPerChannelIalEEvPiPKfPT_fiS3_S5_PaS3_S5_PT0_S3_S5_S7_S7_fiP25TfLiteDepthwiseConvParams10TfLiteType.constprop.0+0x296>
10000f76:	46c0      	nop			@ (mov r8, r8)
10000f78:	fffffa7c 	.word	0xfffffa7c
10000f7c:	000005a4 	.word	0x000005a4
10000f80:	00000594 	.word	0x00000594
10000f84:	0000059c 	.word	0x0000059c
10000f88:	000005ac 	.word	0x000005ac
10000f8c:	000005b4 	.word	0x000005b4
10000f90:	00000584 	.word	0x00000584
10000f94:	10013820 	.word	0x10013820
10000f98:	10013730 	.word	0x10013730
10000f9c:	200051dd 	.word	0x200051dd

10000fa0 <_ZN6tflite7testing35CreatePerChannelQuantizedBiasTensorIlEE12TfLiteTensorPKfPT_P14TfLiteIntArrayfS4_PfPiP24TfLiteAffineQuantizationib>:
10000fa0:	b5f0      	push	{r4, r5, r6, r7, lr}
10000fa2:	46de      	mov	lr, fp
10000fa4:	4657      	mov	r7, sl
10000fa6:	464e      	mov	r6, r9
10000fa8:	4645      	mov	r5, r8
10000faa:	001c      	movs	r4, r3
10000fac:	b5e0      	push	{r5, r6, r7, lr}
10000fae:	b089      	sub	sp, #36	@ 0x24
10000fb0:	9305      	str	r3, [sp, #20]
10000fb2:	ab18      	add	r3, sp, #96	@ 0x60
10000fb4:	9204      	str	r2, [sp, #16]
10000fb6:	781a      	ldrb	r2, [r3, #0]
10000fb8:	0005      	movs	r5, r0
10000fba:	0020      	movs	r0, r4
10000fbc:	9206      	str	r2, [sp, #24]
10000fbe:	9f14      	ldr	r7, [sp, #80]	@ 0x50
10000fc0:	9e15      	ldr	r6, [sp, #84]	@ 0x54
10000fc2:	9103      	str	r1, [sp, #12]
10000fc4:	f008 ff84 	bl	10009ed0 <_ZN6tflite12ElementCountERK14TfLiteIntArray>
10000fc8:	46a4      	mov	ip, r4
10000fca:	9b17      	ldr	r3, [sp, #92]	@ 0x5c
10000fcc:	9002      	str	r0, [sp, #8]
10000fce:	009b      	lsls	r3, r3, #2
10000fd0:	4463      	add	r3, ip
10000fd2:	685b      	ldr	r3, [r3, #4]
10000fd4:	469b      	mov	fp, r3
10000fd6:	0018      	movs	r0, r3
10000fd8:	6033      	str	r3, [r6, #0]
10000fda:	f004 fc49 	bl	10005870 <__wrap___aeabi_i2f>
10000fde:	003b      	movs	r3, r7
10000fe0:	465a      	mov	r2, fp
10000fe2:	c301      	stmia	r3!, {r0}
10000fe4:	2a00      	cmp	r2, #0
10000fe6:	dd19      	ble.n	1000101c <_ZN6tflite7testing35CreatePerChannelQuantizedBiasTensorIlEE12TfLiteTensorPKfPT_P14TfLiteIntArrayfS4_PfPiP24TfLiteAffineQuantizationib+0x7c>
10000fe8:	3201      	adds	r2, #1
10000fea:	0092      	lsls	r2, r2, #2
10000fec:	4691      	mov	r9, r2
10000fee:	9a13      	ldr	r2, [sp, #76]	@ 0x4c
10000ff0:	9307      	str	r3, [sp, #28]
10000ff2:	3a04      	subs	r2, #4
10000ff4:	002b      	movs	r3, r5
10000ff6:	4690      	mov	r8, r2
10000ff8:	2200      	movs	r2, #0
10000ffa:	464d      	mov	r5, r9
10000ffc:	2404      	movs	r4, #4
10000ffe:	4692      	mov	sl, r2
10001000:	4699      	mov	r9, r3
10001002:	4643      	mov	r3, r8
10001004:	9912      	ldr	r1, [sp, #72]	@ 0x48
10001006:	5918      	ldr	r0, [r3, r4]
10001008:	f004 fbdf 	bl	100057ca <__wrap___aeabi_fmul>
1000100c:	4653      	mov	r3, sl
1000100e:	5138      	str	r0, [r7, r4]
10001010:	5133      	str	r3, [r6, r4]
10001012:	3404      	adds	r4, #4
10001014:	42a5      	cmp	r5, r4
10001016:	d1f4      	bne.n	10001002 <_ZN6tflite7testing35CreatePerChannelQuantizedBiasTensorIlEE12TfLiteTensorPKfPT_P14TfLiteIntArrayfS4_PfPiP24TfLiteAffineQuantizationib+0x62>
10001018:	464d      	mov	r5, r9
1000101a:	9b07      	ldr	r3, [sp, #28]
1000101c:	9904      	ldr	r1, [sp, #16]
1000101e:	9a02      	ldr	r2, [sp, #8]
10001020:	9803      	ldr	r0, [sp, #12]
10001022:	9300      	str	r3, [sp, #0]
10001024:	465b      	mov	r3, fp
10001026:	4688      	mov	r8, r1
10001028:	f7ff fc4c 	bl	100008c4 <_ZN6tflite27SymmetricPerChannelQuantizeIlEEvPKfPT_iiPfj.constprop.0>
1000102c:	0038      	movs	r0, r7
1000102e:	f009 f889 	bl	1000a144 <_ZN6tflite7testing20FloatArrayFromFloatsEPKf>
10001032:	9b16      	ldr	r3, [sp, #88]	@ 0x58
10001034:	6018      	str	r0, [r3, #0]
10001036:	0030      	movs	r0, r6
10001038:	f009 f882 	bl	1000a140 <_ZN6tflite7testing16IntArrayFromIntsEPKi>
1000103c:	9b16      	ldr	r3, [sp, #88]	@ 0x58
1000103e:	9a17      	ldr	r2, [sp, #92]	@ 0x5c
10001040:	6058      	str	r0, [r3, #4]
10001042:	0028      	movs	r0, r5
10001044:	9c05      	ldr	r4, [sp, #20]
10001046:	2100      	movs	r1, #0
10001048:	609a      	str	r2, [r3, #8]
1000104a:	3008      	adds	r0, #8
1000104c:	2208      	movs	r2, #8
1000104e:	616c      	str	r4, [r5, #20]
10001050:	f004 fd20 	bl	10005a94 <__wrap_memset>
10001054:	9b06      	ldr	r3, [sp, #24]
10001056:	0020      	movs	r0, r4
10001058:	77ab      	strb	r3, [r5, #30]
1000105a:	4643      	mov	r3, r8
1000105c:	612b      	str	r3, [r5, #16]
1000105e:	2302      	movs	r3, #2
10001060:	83ab      	strh	r3, [r5, #28]
10001062:	f008 ff35 	bl	10009ed0 <_ZN6tflite12ElementCountERK14TfLiteIntArray>
10001066:	0004      	movs	r4, r0
10001068:	2002      	movs	r0, #2
1000106a:	f007 fde1 	bl	10008c30 <_ZN6tflite17TfLiteTypeGetSizeE10TfLiteType>
1000106e:	4360      	muls	r0, r4
10001070:	2301      	movs	r3, #1
10001072:	61a8      	str	r0, [r5, #24]
10001074:	0028      	movs	r0, r5
10001076:	602b      	str	r3, [r5, #0]
10001078:	9b16      	ldr	r3, [sp, #88]	@ 0x58
1000107a:	606b      	str	r3, [r5, #4]
1000107c:	b009      	add	sp, #36	@ 0x24
1000107e:	bcf0      	pop	{r4, r5, r6, r7}
10001080:	46bb      	mov	fp, r7
10001082:	46b2      	mov	sl, r6
10001084:	46a9      	mov	r9, r5
10001086:	46a0      	mov	r8, r4
10001088:	bdf0      	pop	{r4, r5, r6, r7, pc}
1000108a:	46c0      	nop			@ (mov r8, r8)

1000108c <main>:
1000108c:	b5f0      	push	{r4, r5, r6, r7, lr}
1000108e:	46de      	mov	lr, fp
10001090:	4657      	mov	r7, sl
10001092:	464e      	mov	r6, r9
10001094:	4645      	mov	r5, r8
10001096:	b5e0      	push	{r5, r6, r7, lr}
10001098:	4cee      	ldr	r4, [pc, #952]	@ (10001454 <main+0x3c8>)
1000109a:	44a5      	add	sp, r4
1000109c:	f009 f840 	bl	1000a120 <_ZN6tflite16InitializeTargetEv>
100010a0:	4bed      	ldr	r3, [pc, #948]	@ (10001458 <main+0x3cc>)
100010a2:	930c      	str	r3, [sp, #48]	@ 0x30
100010a4:	4bed      	ldr	r3, [pc, #948]	@ (1000145c <main+0x3d0>)
100010a6:	9314      	str	r3, [sp, #80]	@ 0x50
100010a8:	4bed      	ldr	r3, [pc, #948]	@ (10001460 <main+0x3d4>)
100010aa:	9343      	str	r3, [sp, #268]	@ 0x10c
100010ac:	4bed      	ldr	r3, [pc, #948]	@ (10001464 <main+0x3d8>)
100010ae:	9310      	str	r3, [sp, #64]	@ 0x40
100010b0:	4bed      	ldr	r3, [pc, #948]	@ (10001468 <main+0x3dc>)
100010b2:	930d      	str	r3, [sp, #52]	@ 0x34
100010b4:	4bed      	ldr	r3, [pc, #948]	@ (1000146c <main+0x3e0>)
100010b6:	9315      	str	r3, [sp, #84]	@ 0x54
100010b8:	4bed      	ldr	r3, [pc, #948]	@ (10001470 <main+0x3e4>)
100010ba:	9316      	str	r3, [sp, #88]	@ 0x58
100010bc:	23b4      	movs	r3, #180	@ 0xb4
100010be:	00db      	lsls	r3, r3, #3
100010c0:	446b      	add	r3, sp
100010c2:	4699      	mov	r9, r3
100010c4:	abff      	add	r3, sp, #1020	@ 0x3fc
100010c6:	3324      	adds	r3, #36	@ 0x24
100010c8:	9311      	str	r3, [sp, #68]	@ 0x44
100010ca:	abff      	add	r3, sp, #1020	@ 0x3fc
100010cc:	33a4      	adds	r3, #164	@ 0xa4
100010ce:	469a      	mov	sl, r3
100010d0:	4be8      	ldr	r3, [pc, #928]	@ (10001474 <main+0x3e8>)
100010d2:	9329      	str	r3, [sp, #164]	@ 0xa4
100010d4:	4be8      	ldr	r3, [pc, #928]	@ (10001478 <main+0x3ec>)
100010d6:	9322      	str	r3, [sp, #136]	@ 0x88
100010d8:	4be8      	ldr	r3, [pc, #928]	@ (1000147c <main+0x3f0>)
100010da:	932a      	str	r3, [sp, #168]	@ 0xa8
100010dc:	4be8      	ldr	r3, [pc, #928]	@ (10001480 <main+0x3f4>)
100010de:	9323      	str	r3, [sp, #140]	@ 0x8c
100010e0:	4be8      	ldr	r3, [pc, #928]	@ (10001484 <main+0x3f8>)
100010e2:	931e      	str	r3, [sp, #120]	@ 0x78
100010e4:	4be8      	ldr	r3, [pc, #928]	@ (10001488 <main+0x3fc>)
100010e6:	9328      	str	r3, [sp, #160]	@ 0xa0
100010e8:	4be8      	ldr	r3, [pc, #928]	@ (1000148c <main+0x400>)
100010ea:	932b      	str	r3, [sp, #172]	@ 0xac
100010ec:	4be8      	ldr	r3, [pc, #928]	@ (10001490 <main+0x404>)
100010ee:	9324      	str	r3, [sp, #144]	@ 0x90
100010f0:	4be8      	ldr	r3, [pc, #928]	@ (10001494 <main+0x408>)
100010f2:	932c      	str	r3, [sp, #176]	@ 0xb0
100010f4:	4be8      	ldr	r3, [pc, #928]	@ (10001498 <main+0x40c>)
100010f6:	932d      	str	r3, [sp, #180]	@ 0xb4
100010f8:	4be8      	ldr	r3, [pc, #928]	@ (1000149c <main+0x410>)
100010fa:	931f      	str	r3, [sp, #124]	@ 0x7c
100010fc:	4be8      	ldr	r3, [pc, #928]	@ (100014a0 <main+0x414>)
100010fe:	932e      	str	r3, [sp, #184]	@ 0xb8
10001100:	4be8      	ldr	r3, [pc, #928]	@ (100014a4 <main+0x418>)
10001102:	9325      	str	r3, [sp, #148]	@ 0x94
10001104:	4be8      	ldr	r3, [pc, #928]	@ (100014a8 <main+0x41c>)
10001106:	931b      	str	r3, [sp, #108]	@ 0x6c
10001108:	4be8      	ldr	r3, [pc, #928]	@ (100014ac <main+0x420>)
1000110a:	932f      	str	r3, [sp, #188]	@ 0xbc
1000110c:	4be8      	ldr	r3, [pc, #928]	@ (100014b0 <main+0x424>)
1000110e:	9340      	str	r3, [sp, #256]	@ 0x100
10001110:	4be8      	ldr	r3, [pc, #928]	@ (100014b4 <main+0x428>)
10001112:	9330      	str	r3, [sp, #192]	@ 0xc0
10001114:	4be8      	ldr	r3, [pc, #928]	@ (100014b8 <main+0x42c>)
10001116:	933e      	str	r3, [sp, #248]	@ 0xf8
10001118:	4be8      	ldr	r3, [pc, #928]	@ (100014bc <main+0x430>)
1000111a:	9331      	str	r3, [sp, #196]	@ 0xc4
1000111c:	4be8      	ldr	r3, [pc, #928]	@ (100014c0 <main+0x434>)
1000111e:	9332      	str	r3, [sp, #200]	@ 0xc8
10001120:	4be8      	ldr	r3, [pc, #928]	@ (100014c4 <main+0x438>)
10001122:	9333      	str	r3, [sp, #204]	@ 0xcc
10001124:	4be8      	ldr	r3, [pc, #928]	@ (100014c8 <main+0x43c>)
10001126:	9334      	str	r3, [sp, #208]	@ 0xd0
10001128:	4be8      	ldr	r3, [pc, #928]	@ (100014cc <main+0x440>)
1000112a:	9335      	str	r3, [sp, #212]	@ 0xd4
1000112c:	4be8      	ldr	r3, [pc, #928]	@ (100014d0 <main+0x444>)
1000112e:	9336      	str	r3, [sp, #216]	@ 0xd8
10001130:	4be8      	ldr	r3, [pc, #928]	@ (100014d4 <main+0x448>)
10001132:	9337      	str	r3, [sp, #220]	@ 0xdc
10001134:	4be8      	ldr	r3, [pc, #928]	@ (100014d8 <main+0x44c>)
10001136:	9338      	str	r3, [sp, #224]	@ 0xe0
10001138:	4be8      	ldr	r3, [pc, #928]	@ (100014dc <main+0x450>)
1000113a:	9341      	str	r3, [sp, #260]	@ 0x104
1000113c:	4be8      	ldr	r3, [pc, #928]	@ (100014e0 <main+0x454>)
1000113e:	9339      	str	r3, [sp, #228]	@ 0xe4
10001140:	4be8      	ldr	r3, [pc, #928]	@ (100014e4 <main+0x458>)
10001142:	9326      	str	r3, [sp, #152]	@ 0x98
10001144:	4be8      	ldr	r3, [pc, #928]	@ (100014e8 <main+0x45c>)
10001146:	933a      	str	r3, [sp, #232]	@ 0xe8
10001148:	4be8      	ldr	r3, [pc, #928]	@ (100014ec <main+0x460>)
1000114a:	933b      	str	r3, [sp, #236]	@ 0xec
1000114c:	4be8      	ldr	r3, [pc, #928]	@ (100014f0 <main+0x464>)
1000114e:	933c      	str	r3, [sp, #240]	@ 0xf0
10001150:	4be8      	ldr	r3, [pc, #928]	@ (100014f4 <main+0x468>)
10001152:	9342      	str	r3, [sp, #264]	@ 0x108
10001154:	4be8      	ldr	r3, [pc, #928]	@ (100014f8 <main+0x46c>)
10001156:	933f      	str	r3, [sp, #252]	@ 0xfc
10001158:	4be8      	ldr	r3, [pc, #928]	@ (100014fc <main+0x470>)
1000115a:	933d      	str	r3, [sp, #244]	@ 0xf4
1000115c:	4be8      	ldr	r3, [pc, #928]	@ (10001500 <main+0x474>)
1000115e:	9344      	str	r3, [sp, #272]	@ 0x110
10001160:	4be8      	ldr	r3, [pc, #928]	@ (10001504 <main+0x478>)
10001162:	9345      	str	r3, [sp, #276]	@ 0x114
10001164:	2301      	movs	r3, #1
10001166:	469b      	mov	fp, r3
10001168:	2700      	movs	r7, #0
1000116a:	9b14      	ldr	r3, [sp, #80]	@ 0x50
1000116c:	9e0c      	ldr	r6, [sp, #48]	@ 0x30
1000116e:	9843      	ldr	r0, [sp, #268]	@ 0x10c
10001170:	601f      	str	r7, [r3, #0]
10001172:	6037      	str	r7, [r6, #0]
10001174:	f008 fe9a 	bl	10009eac <_Z11MicroPrintfPKcz>
10001178:	9d15      	ldr	r5, [sp, #84]	@ 0x54
1000117a:	9b10      	ldr	r3, [sp, #64]	@ 0x40
1000117c:	9a0d      	ldr	r2, [sp, #52]	@ 0x34
1000117e:	701f      	strb	r7, [r3, #0]
10001180:	002b      	movs	r3, r5
10001182:	7017      	strb	r7, [r2, #0]
10001184:	3318      	adds	r3, #24
10001186:	aac0      	add	r2, sp, #768	@ 0x300
10001188:	cb13      	ldmia	r3!, {r0, r1, r4}
1000118a:	c213      	stmia	r2!, {r0, r1, r4}
1000118c:	cb03      	ldmia	r3!, {r0, r1}
1000118e:	c203      	stmia	r2!, {r0, r1}
10001190:	a93a      	add	r1, sp, #232	@ 0xe8
10001192:	22d7      	movs	r2, #215	@ 0xd7
10001194:	468c      	mov	ip, r1
10001196:	002b      	movs	r3, r5
10001198:	00d2      	lsls	r2, r2, #3
1000119a:	4462      	add	r2, ip
1000119c:	332c      	adds	r3, #44	@ 0x2c
1000119e:	cb13      	ldmia	r3!, {r0, r1, r4}
100011a0:	c213      	stmia	r2!, {r0, r1, r4}
100011a2:	cb13      	ldmia	r3!, {r0, r1, r4}
100011a4:	c213      	stmia	r2!, {r0, r1, r4}
100011a6:	cb13      	ldmia	r3!, {r0, r1, r4}
100011a8:	c213      	stmia	r2!, {r0, r1, r4}
100011aa:	cb13      	ldmia	r3!, {r0, r1, r4}
100011ac:	c213      	stmia	r2!, {r0, r1, r4}
100011ae:	002b      	movs	r3, r5
100011b0:	aac8      	add	r2, sp, #800	@ 0x320
100011b2:	335c      	adds	r3, #92	@ 0x5c
100011b4:	cb13      	ldmia	r3!, {r0, r1, r4}
100011b6:	c213      	stmia	r2!, {r0, r1, r4}
100011b8:	cb03      	ldmia	r3!, {r0, r1}
100011ba:	c203      	stmia	r2!, {r0, r1}
100011bc:	48d2      	ldr	r0, [pc, #840]	@ (10001508 <main+0x47c>)
100011be:	3570      	adds	r5, #112	@ 0x70
100011c0:	0029      	movs	r1, r5
100011c2:	2240      	movs	r2, #64	@ 0x40
100011c4:	4460      	add	r0, ip
100011c6:	f004 fc6b 	bl	10005aa0 <__wrap___aeabi_memcpy>
100011ca:	9d16      	ldr	r5, [sp, #88]	@ 0x58
100011cc:	aae8      	add	r2, sp, #928	@ 0x3a0
100011ce:	002b      	movs	r3, r5
100011d0:	3330      	adds	r3, #48	@ 0x30
100011d2:	cb13      	ldmia	r3!, {r0, r1, r4}
100011d4:	c213      	stmia	r2!, {r0, r1, r4}
100011d6:	cb03      	ldmia	r3!, {r0, r1}
100011d8:	c203      	stmia	r2!, {r0, r1}
100011da:	002b      	movs	r3, r5
100011dc:	aab8      	add	r2, sp, #736	@ 0x2e0
100011de:	3344      	adds	r3, #68	@ 0x44
100011e0:	cb13      	ldmia	r3!, {r0, r1, r4}
100011e2:	c213      	stmia	r2!, {r0, r1, r4}
100011e4:	681b      	ldr	r3, [r3, #0]
100011e6:	6013      	str	r3, [r2, #0]
100011e8:	002b      	movs	r3, r5
100011ea:	464a      	mov	r2, r9
100011ec:	3354      	adds	r3, #84	@ 0x54
100011ee:	cb13      	ldmia	r3!, {r0, r1, r4}
100011f0:	c213      	stmia	r2!, {r0, r1, r4}
100011f2:	cb13      	ldmia	r3!, {r0, r1, r4}
100011f4:	c213      	stmia	r2!, {r0, r1, r4}
100011f6:	cb03      	ldmia	r3!, {r0, r1}
100011f8:	c203      	stmia	r2!, {r0, r1}
100011fa:	002b      	movs	r3, r5
100011fc:	9d11      	ldr	r5, [sp, #68]	@ 0x44
100011fe:	3374      	adds	r3, #116	@ 0x74
10001200:	002a      	movs	r2, r5
10001202:	cb13      	ldmia	r3!, {r0, r1, r4}
10001204:	c213      	stmia	r2!, {r0, r1, r4}
10001206:	cb03      	ldmia	r3!, {r0, r1}
10001208:	c203      	stmia	r2!, {r0, r1}
1000120a:	4651      	mov	r1, sl
1000120c:	4658      	mov	r0, fp
1000120e:	740f      	strb	r7, [r1, #16]
10001210:	6148      	str	r0, [r1, #20]
10001212:	6188      	str	r0, [r1, #24]
10001214:	6088      	str	r0, [r1, #8]
10001216:	6048      	str	r0, [r1, #4]
10001218:	ab3a      	add	r3, sp, #232	@ 0xe8
1000121a:	21b7      	movs	r1, #183	@ 0xb7
1000121c:	469c      	mov	ip, r3
1000121e:	00c9      	lsls	r1, r1, #3
10001220:	4461      	add	r1, ip
10001222:	9105      	str	r1, [sp, #20]
10001224:	4651      	mov	r1, sl
10001226:	9104      	str	r1, [sp, #16]
10001228:	4649      	mov	r1, r9
1000122a:	9102      	str	r1, [sp, #8]
1000122c:	a9b8      	add	r1, sp, #736	@ 0x2e0
1000122e:	9101      	str	r1, [sp, #4]
10001230:	a9e8      	add	r1, sp, #928	@ 0x3a0
10001232:	9100      	str	r1, [sp, #0]
10001234:	49b4      	ldr	r1, [pc, #720]	@ (10001508 <main+0x47c>)
10001236:	9503      	str	r5, [sp, #12]
10001238:	4461      	add	r1, ip
1000123a:	000b      	movs	r3, r1
1000123c:	a9c8      	add	r1, sp, #800	@ 0x320
1000123e:	000a      	movs	r2, r1
10001240:	21d7      	movs	r1, #215	@ 0xd7
10001242:	00c9      	lsls	r1, r1, #3
10001244:	4461      	add	r1, ip
10001246:	a8c0      	add	r0, sp, #768	@ 0x300
10001248:	f7ff fc0e 	bl	10000a68 <_ZN6tflite7testing12_GLOBAL__N_122TestDepthwiseConvFloatEPiPKfS2_S4_S2_S4_S4_S2_P25TfLiteDepthwiseConvParamsPf>
1000124c:	4659      	mov	r1, fp
1000124e:	9b10      	ldr	r3, [sp, #64]	@ 0x40
10001250:	9a0d      	ldr	r2, [sp, #52]	@ 0x34
10001252:	7019      	strb	r1, [r3, #0]
10001254:	7813      	ldrb	r3, [r2, #0]
10001256:	2b00      	cmp	r3, #0
10001258:	d101      	bne.n	1000125e <main+0x1d2>
1000125a:	f002 f90e 	bl	1000347a <main+0x23ee>
1000125e:	2201      	movs	r2, #1
10001260:	6833      	ldr	r3, [r6, #0]
10001262:	990c      	ldr	r1, [sp, #48]	@ 0x30
10001264:	9829      	ldr	r0, [sp, #164]	@ 0xa4
10001266:	600b      	str	r3, [r1, #0]
10001268:	9914      	ldr	r1, [sp, #80]	@ 0x50
1000126a:	680b      	ldr	r3, [r1, #0]
1000126c:	189b      	adds	r3, r3, r2
1000126e:	600b      	str	r3, [r1, #0]
10001270:	f008 fe1c 	bl	10009eac <_Z11MicroPrintfPKcz>
10001274:	2300      	movs	r3, #0
10001276:	9d15      	ldr	r5, [sp, #84]	@ 0x54
10001278:	9e10      	ldr	r6, [sp, #64]	@ 0x40
1000127a:	9f0d      	ldr	r7, [sp, #52]	@ 0x34
1000127c:	7033      	strb	r3, [r6, #0]
1000127e:	703b      	strb	r3, [r7, #0]
10001280:	002b      	movs	r3, r5
10001282:	aac0      	add	r2, sp, #768	@ 0x300
10001284:	3318      	adds	r3, #24
10001286:	cb13      	ldmia	r3!, {r0, r1, r4}
10001288:	c213      	stmia	r2!, {r0, r1, r4}
1000128a:	cb03      	ldmia	r3!, {r0, r1}
1000128c:	c203      	stmia	r2!, {r0, r1}
1000128e:	a93a      	add	r1, sp, #232	@ 0xe8
10001290:	22d7      	movs	r2, #215	@ 0xd7
10001292:	468c      	mov	ip, r1
10001294:	002b      	movs	r3, r5
10001296:	00d2      	lsls	r2, r2, #3
10001298:	4462      	add	r2, ip
1000129a:	332c      	adds	r3, #44	@ 0x2c
1000129c:	cb13      	ldmia	r3!, {r0, r1, r4}
1000129e:	c213      	stmia	r2!, {r0, r1, r4}
100012a0:	cb13      	ldmia	r3!, {r0, r1, r4}
100012a2:	c213      	stmia	r2!, {r0, r1, r4}
100012a4:	cb13      	ldmia	r3!, {r0, r1, r4}
100012a6:	c213      	stmia	r2!, {r0, r1, r4}
100012a8:	cb13      	ldmia	r3!, {r0, r1, r4}
100012aa:	c213      	stmia	r2!, {r0, r1, r4}
100012ac:	002b      	movs	r3, r5
100012ae:	aac8      	add	r2, sp, #800	@ 0x320
100012b0:	335c      	adds	r3, #92	@ 0x5c
100012b2:	cb13      	ldmia	r3!, {r0, r1, r4}
100012b4:	c213      	stmia	r2!, {r0, r1, r4}
100012b6:	cb03      	ldmia	r3!, {r0, r1}
100012b8:	c203      	stmia	r2!, {r0, r1}
100012ba:	4b93      	ldr	r3, [pc, #588]	@ (10001508 <main+0x47c>)
100012bc:	3570      	adds	r5, #112	@ 0x70
100012be:	4463      	add	r3, ip
100012c0:	0029      	movs	r1, r5
100012c2:	2240      	movs	r2, #64	@ 0x40
100012c4:	0018      	movs	r0, r3
100012c6:	f004 fbeb 	bl	10005aa0 <__wrap___aeabi_memcpy>
100012ca:	9d16      	ldr	r5, [sp, #88]	@ 0x58
100012cc:	aae8      	add	r2, sp, #928	@ 0x3a0
100012ce:	002b      	movs	r3, r5
100012d0:	3330      	adds	r3, #48	@ 0x30
100012d2:	cb13      	ldmia	r3!, {r0, r1, r4}
100012d4:	c213      	stmia	r2!, {r0, r1, r4}
100012d6:	cb03      	ldmia	r3!, {r0, r1}
100012d8:	c203      	stmia	r2!, {r0, r1}
100012da:	002b      	movs	r3, r5
100012dc:	aab8      	add	r2, sp, #736	@ 0x2e0
100012de:	3344      	adds	r3, #68	@ 0x44
100012e0:	cb13      	ldmia	r3!, {r0, r1, r4}
100012e2:	c213      	stmia	r2!, {r0, r1, r4}
100012e4:	681b      	ldr	r3, [r3, #0]
100012e6:	6013      	str	r3, [r2, #0]
100012e8:	002b      	movs	r3, r5
100012ea:	9d11      	ldr	r5, [sp, #68]	@ 0x44
100012ec:	3374      	adds	r3, #116	@ 0x74
100012ee:	002a      	movs	r2, r5
100012f0:	cb13      	ldmia	r3!, {r0, r1, r4}
100012f2:	c213      	stmia	r2!, {r0, r1, r4}
100012f4:	cb03      	ldmia	r3!, {r0, r1}
100012f6:	c203      	stmia	r2!, {r0, r1}
100012f8:	464a      	mov	r2, r9
100012fa:	9b22      	ldr	r3, [sp, #136]	@ 0x88
100012fc:	3308      	adds	r3, #8
100012fe:	cb13      	ldmia	r3!, {r0, r1, r4}
10001300:	c213      	stmia	r2!, {r0, r1, r4}
10001302:	cb13      	ldmia	r3!, {r0, r1, r4}
10001304:	c213      	stmia	r2!, {r0, r1, r4}
10001306:	cb03      	ldmia	r3!, {r0, r1}
10001308:	c203      	stmia	r2!, {r0, r1}
1000130a:	4653      	mov	r3, sl
1000130c:	465a      	mov	r2, fp
1000130e:	741a      	strb	r2, [r3, #16]
10001310:	615a      	str	r2, [r3, #20]
10001312:	619a      	str	r2, [r3, #24]
10001314:	609a      	str	r2, [r3, #8]
10001316:	605a      	str	r2, [r3, #4]
10001318:	aa3a      	add	r2, sp, #232	@ 0xe8
1000131a:	23b7      	movs	r3, #183	@ 0xb7
1000131c:	4694      	mov	ip, r2
1000131e:	00db      	lsls	r3, r3, #3
10001320:	4463      	add	r3, ip
10001322:	9305      	str	r3, [sp, #20]
10001324:	4653      	mov	r3, sl
10001326:	9304      	str	r3, [sp, #16]
10001328:	464b      	mov	r3, r9
1000132a:	21d7      	movs	r1, #215	@ 0xd7
1000132c:	9302      	str	r3, [sp, #8]
1000132e:	abb8      	add	r3, sp, #736	@ 0x2e0
10001330:	9301      	str	r3, [sp, #4]
10001332:	abe8      	add	r3, sp, #928	@ 0x3a0
10001334:	9300      	str	r3, [sp, #0]
10001336:	4b74      	ldr	r3, [pc, #464]	@ (10001508 <main+0x47c>)
10001338:	00c9      	lsls	r1, r1, #3
1000133a:	4463      	add	r3, ip
1000133c:	9503      	str	r5, [sp, #12]
1000133e:	aac8      	add	r2, sp, #800	@ 0x320
10001340:	4461      	add	r1, ip
10001342:	a8c0      	add	r0, sp, #768	@ 0x300
10001344:	f7ff fb90 	bl	10000a68 <_ZN6tflite7testing12_GLOBAL__N_122TestDepthwiseConvFloatEPiPKfS2_S4_S2_S4_S4_S2_P25TfLiteDepthwiseConvParamsPf>
10001348:	465b      	mov	r3, fp
1000134a:	7033      	strb	r3, [r6, #0]
1000134c:	783b      	ldrb	r3, [r7, #0]
1000134e:	2b00      	cmp	r3, #0
10001350:	d001      	beq.n	10001356 <main+0x2ca>
10001352:	f002 f88d 	bl	10003470 <main+0x23e4>
10001356:	2200      	movs	r2, #0
10001358:	990c      	ldr	r1, [sp, #48]	@ 0x30
1000135a:	680b      	ldr	r3, [r1, #0]
1000135c:	3301      	adds	r3, #1
1000135e:	2600      	movs	r6, #0
10001360:	990c      	ldr	r1, [sp, #48]	@ 0x30
10001362:	982a      	ldr	r0, [sp, #168]	@ 0xa8
10001364:	600b      	str	r3, [r1, #0]
10001366:	9914      	ldr	r1, [sp, #80]	@ 0x50
10001368:	680b      	ldr	r3, [r1, #0]
1000136a:	189b      	adds	r3, r3, r2
1000136c:	600b      	str	r3, [r1, #0]
1000136e:	f008 fd9d 	bl	10009eac <_Z11MicroPrintfPKcz>
10001372:	9b10      	ldr	r3, [sp, #64]	@ 0x40
10001374:	9d15      	ldr	r5, [sp, #84]	@ 0x54
10001376:	701e      	strb	r6, [r3, #0]
10001378:	9b0d      	ldr	r3, [sp, #52]	@ 0x34
1000137a:	aa8a      	add	r2, sp, #552	@ 0x228
1000137c:	701e      	strb	r6, [r3, #0]
1000137e:	002b      	movs	r3, r5
10001380:	3318      	adds	r3, #24
10001382:	cb13      	ldmia	r3!, {r0, r1, r4}
10001384:	c213      	stmia	r2!, {r0, r1, r4}
10001386:	cb03      	ldmia	r3!, {r0, r1}
10001388:	c203      	stmia	r2!, {r0, r1}
1000138a:	002b      	movs	r3, r5
1000138c:	9a11      	ldr	r2, [sp, #68]	@ 0x44
1000138e:	332c      	adds	r3, #44	@ 0x2c
10001390:	cb13      	ldmia	r3!, {r0, r1, r4}
10001392:	c213      	stmia	r2!, {r0, r1, r4}
10001394:	cb13      	ldmia	r3!, {r0, r1, r4}
10001396:	c213      	stmia	r2!, {r0, r1, r4}
10001398:	cb13      	ldmia	r3!, {r0, r1, r4}
1000139a:	c213      	stmia	r2!, {r0, r1, r4}
1000139c:	cb13      	ldmia	r3!, {r0, r1, r4}
1000139e:	c213      	stmia	r2!, {r0, r1, r4}
100013a0:	9d22      	ldr	r5, [sp, #136]	@ 0x88
100013a2:	aa91      	add	r2, sp, #580	@ 0x244
100013a4:	002b      	movs	r3, r5
100013a6:	3328      	adds	r3, #40	@ 0x28
100013a8:	cb13      	ldmia	r3!, {r0, r1, r4}
100013aa:	c213      	stmia	r2!, {r0, r1, r4}
100013ac:	cb03      	ldmia	r3!, {r0, r1}
100013ae:	c203      	stmia	r2!, {r0, r1}
100013b0:	002b      	movs	r3, r5
100013b2:	aab0      	add	r2, sp, #704	@ 0x2c0
100013b4:	333c      	adds	r3, #60	@ 0x3c
100013b6:	cb13      	ldmia	r3!, {r0, r1, r4}
100013b8:	c213      	stmia	r2!, {r0, r1, r4}
100013ba:	cb13      	ldmia	r3!, {r0, r1, r4}
100013bc:	c213      	stmia	r2!, {r0, r1, r4}
100013be:	cb03      	ldmia	r3!, {r0, r1}
100013c0:	c203      	stmia	r2!, {r0, r1}
100013c2:	002b      	movs	r3, r5
100013c4:	aa98      	add	r2, sp, #608	@ 0x260
100013c6:	335c      	adds	r3, #92	@ 0x5c
100013c8:	cb13      	ldmia	r3!, {r0, r1, r4}
100013ca:	c213      	stmia	r2!, {r0, r1, r4}
100013cc:	cb03      	ldmia	r3!, {r0, r1}
100013ce:	c203      	stmia	r2!, {r0, r1}
100013d0:	23fe      	movs	r3, #254	@ 0xfe
100013d2:	059b      	lsls	r3, r3, #22
100013d4:	9353      	str	r3, [sp, #332]	@ 0x14c
100013d6:	2380      	movs	r3, #128	@ 0x80
100013d8:	05db      	lsls	r3, r3, #23
100013da:	9354      	str	r3, [sp, #336]	@ 0x150
100013dc:	002b      	movs	r3, r5
100013de:	aa84      	add	r2, sp, #528	@ 0x210
100013e0:	3370      	adds	r3, #112	@ 0x70
100013e2:	cb13      	ldmia	r3!, {r0, r1, r4}
100013e4:	c213      	stmia	r2!, {r0, r1, r4}
100013e6:	681b      	ldr	r3, [r3, #0]
100013e8:	6013      	str	r3, [r2, #0]
100013ea:	9a23      	ldr	r2, [sp, #140]	@ 0x8c
100013ec:	aba0      	add	r3, sp, #640	@ 0x280
100013ee:	ca13      	ldmia	r2!, {r0, r1, r4}
100013f0:	c313      	stmia	r3!, {r0, r1, r4}
100013f2:	ca03      	ldmia	r2!, {r0, r1}
100013f4:	c303      	stmia	r3!, {r0, r1}
100013f6:	22e4      	movs	r2, #228	@ 0xe4
100013f8:	ab3a      	add	r3, sp, #232	@ 0xe8
100013fa:	0052      	lsls	r2, r2, #1
100013fc:	189b      	adds	r3, r3, r2
100013fe:	701e      	strb	r6, [r3, #0]
10001400:	465b      	mov	r3, fp
10001402:	a88a      	add	r0, sp, #552	@ 0x228
10001404:	93ad      	str	r3, [sp, #692]	@ 0x2b4
10001406:	93ae      	str	r3, [sp, #696]	@ 0x2b8
10001408:	93aa      	str	r3, [sp, #680]	@ 0x2a8
1000140a:	93a9      	str	r3, [sp, #676]	@ 0x2a4
1000140c:	f008 fe98 	bl	1000a140 <_ZN6tflite7testing16IntArrayFromIntsEPKi>
10001410:	ab91      	add	r3, sp, #580	@ 0x244
10001412:	0004      	movs	r4, r0
10001414:	900e      	str	r0, [sp, #56]	@ 0x38
10001416:	0018      	movs	r0, r3
10001418:	f008 fe92 	bl	1000a140 <_ZN6tflite7testing16IntArrayFromIntsEPKi>
1000141c:	ab98      	add	r3, sp, #608	@ 0x260
1000141e:	9012      	str	r0, [sp, #72]	@ 0x48
10001420:	0018      	movs	r0, r3
10001422:	f008 fe8d 	bl	1000a140 <_ZN6tflite7testing16IntArrayFromIntsEPKi>
10001426:	aba0      	add	r3, sp, #640	@ 0x280
10001428:	9013      	str	r0, [sp, #76]	@ 0x4c
1000142a:	0018      	movs	r0, r3
1000142c:	f008 fe88 	bl	1000a140 <_ZN6tflite7testing16IntArrayFromIntsEPKi>
10001430:	4680      	mov	r8, r0
10001432:	f008 fd4d 	bl	10009ed0 <_ZN6tflite12ElementCountERK14TfLiteIntArray>
10001436:	0007      	movs	r7, r0
10001438:	0020      	movs	r0, r4
1000143a:	f008 fd49 	bl	10009ed0 <_ZN6tflite12ElementCountERK14TfLiteIntArray>
1000143e:	2800      	cmp	r0, #0
10001440:	dc00      	bgt.n	10001444 <main+0x3b8>
10001442:	e080      	b.n	10001546 <main+0x4ba>
10001444:	9b11      	ldr	r3, [sp, #68]	@ 0x44
10001446:	0086      	lsls	r6, r0, #2
10001448:	469c      	mov	ip, r3
1000144a:	001c      	movs	r4, r3
1000144c:	ad6c      	add	r5, sp, #432	@ 0x1b0
1000144e:	4466      	add	r6, ip
10001450:	e062      	b.n	10001518 <main+0x48c>
10001452:	46c0      	nop			@ (mov r8, r8)
10001454:	fffff45c 	.word	0xfffff45c
10001458:	20001c4c 	.word	0x20001c4c
1000145c:	20001c48 	.word	0x20001c48
10001460:	100138c4 	.word	0x100138c4
10001464:	200051de 	.word	0x200051de
10001468:	200051dd 	.word	0x200051dd
1000146c:	10014aec 	.word	0x10014aec
10001470:	10014b6c 	.word	0x10014b6c
10001474:	100138d8 	.word	0x100138d8
10001478:	10014bec 	.word	0x10014bec
1000147c:	100138f0 	.word	0x100138f0
10001480:	10014c6c 	.word	0x10014c6c
10001484:	10013730 	.word	0x10013730
10001488:	10013820 	.word	0x10013820
1000148c:	10013928 	.word	0x10013928
10001490:	10014cec 	.word	0x10014cec
10001494:	10013960 	.word	0x10013960
10001498:	10014f8c 	.word	0x10014f8c
1000149c:	10014d6c 	.word	0x10014d6c
100014a0:	10013990 	.word	0x10013990
100014a4:	10014dec 	.word	0x10014dec
100014a8:	10014e6c 	.word	0x10014e6c
100014ac:	100139c0 	.word	0x100139c0
100014b0:	100139f0 	.word	0x100139f0
100014b4:	10013a98 	.word	0x10013a98
100014b8:	10013ac8 	.word	0x10013ac8
100014bc:	10013b6c 	.word	0x10013b6c
100014c0:	1001504c 	.word	0x1001504c
100014c4:	1001524c 	.word	0x1001524c
100014c8:	1001544c 	.word	0x1001544c
100014cc:	10013ba0 	.word	0x10013ba0
100014d0:	100154cc 	.word	0x100154cc
100014d4:	1001554c 	.word	0x1001554c
100014d8:	100155cc 	.word	0x100155cc
100014dc:	10013bd4 	.word	0x10013bd4
100014e0:	10013c8c 	.word	0x10013c8c
100014e4:	10014eec 	.word	0x10014eec
100014e8:	10013cbc 	.word	0x10013cbc
100014ec:	10013ce4 	.word	0x10013ce4
100014f0:	10014f6c 	.word	0x10014f6c
100014f4:	100137a0 	.word	0x100137a0
100014f8:	100137d8 	.word	0x100137d8
100014fc:	10013d20 	.word	0x10013d20
10001500:	10013d34 	.word	0x10013d34
10001504:	10013d4c 	.word	0x10013d4c
10001508:	000008b8 	.word	0x000008b8
1000150c:	207f      	movs	r0, #127	@ 0x7f
1000150e:	3404      	adds	r4, #4
10001510:	7028      	strb	r0, [r5, #0]
10001512:	3501      	adds	r5, #1
10001514:	42a6      	cmp	r6, r4
10001516:	d016      	beq.n	10001546 <main+0x4ba>
10001518:	6820      	ldr	r0, [r4, #0]
1000151a:	f004 fa03 	bl	10005924 <__wrap___aeabi_f2d>
1000151e:	f003 fdeb 	bl	100050f8 <__wrap_round>
10001522:	2200      	movs	r2, #0
10001524:	2300      	movs	r3, #0
10001526:	f003 fc8b 	bl	10004e40 <__wrap___aeabi_dadd>
1000152a:	f003 fd37 	bl	10004f9c <__wrap___aeabi_d2iz>
1000152e:	287f      	cmp	r0, #127	@ 0x7f
10001530:	dcec      	bgt.n	1000150c <main+0x480>
10001532:	0003      	movs	r3, r0
10001534:	3380      	adds	r3, #128	@ 0x80
10001536:	daea      	bge.n	1000150e <main+0x482>
10001538:	2080      	movs	r0, #128	@ 0x80
1000153a:	3404      	adds	r4, #4
1000153c:	4240      	negs	r0, r0
1000153e:	7028      	strb	r0, [r5, #0]
10001540:	3501      	adds	r5, #1
10001542:	42a6      	cmp	r6, r4
10001544:	d1e8      	bne.n	10001518 <main+0x48c>
10001546:	2400      	movs	r4, #0
10001548:	980e      	ldr	r0, [sp, #56]	@ 0x38
1000154a:	94bb      	str	r4, [sp, #748]	@ 0x2ec
1000154c:	f008 fcc0 	bl	10009ed0 <_ZN6tflite12ElementCountERK14TfLiteIntArray>
10001550:	0006      	movs	r6, r0
10001552:	2009      	movs	r0, #9
10001554:	f007 fb6c 	bl	10008c30 <_ZN6tflite17TfLiteTypeGetSizeE10TfLiteType>
10001558:	aa70      	add	r2, sp, #448	@ 0x1c0
1000155a:	9202      	str	r2, [sp, #8]
1000155c:	464a      	mov	r2, r9
1000155e:	ab3a      	add	r3, sp, #232	@ 0xe8
10001560:	9201      	str	r2, [sp, #4]
10001562:	22b7      	movs	r2, #183	@ 0xb7
10001564:	469c      	mov	ip, r3
10001566:	00d2      	lsls	r2, r2, #3
10001568:	4462      	add	r2, ip
1000156a:	9405      	str	r4, [sp, #20]
1000156c:	9404      	str	r4, [sp, #16]
1000156e:	3403      	adds	r4, #3
10001570:	0005      	movs	r5, r0
10001572:	9b12      	ldr	r3, [sp, #72]	@ 0x48
10001574:	9403      	str	r4, [sp, #12]
10001576:	9200      	str	r2, [sp, #0]
10001578:	a9b0      	add	r1, sp, #704	@ 0x2c0
1000157a:	aa56      	add	r2, sp, #344	@ 0x158
1000157c:	a8c0      	add	r0, sp, #768	@ 0x300
1000157e:	f008 fde9 	bl	1000a154 <_ZN6tflite7testing40CreateSymmetricPerChannelQuantizedTensorEPKfPaP14TfLiteIntArrayPfPiP24TfLiteAffineQuantizationib10TfLiteType>
10001582:	2300      	movs	r3, #0
10001584:	aa75      	add	r2, sp, #468	@ 0x1d4
10001586:	9306      	str	r3, [sp, #24]
10001588:	9204      	str	r2, [sp, #16]
1000158a:	ab3a      	add	r3, sp, #232	@ 0xe8
1000158c:	22d7      	movs	r2, #215	@ 0xd7
1000158e:	469c      	mov	ip, r3
10001590:	00d2      	lsls	r2, r2, #3
10001592:	4462      	add	r2, ip
10001594:	9203      	str	r2, [sp, #12]
10001596:	4aa2      	ldr	r2, [pc, #648]	@ (10001820 <main+0x794>)
10001598:	a959      	add	r1, sp, #356	@ 0x164
1000159a:	4462      	add	r2, ip
1000159c:	9202      	str	r2, [sp, #8]
1000159e:	4aa1      	ldr	r2, [pc, #644]	@ (10001824 <main+0x798>)
100015a0:	9b13      	ldr	r3, [sp, #76]	@ 0x4c
100015a2:	4462      	add	r2, ip
100015a4:	9201      	str	r2, [sp, #4]
100015a6:	22fe      	movs	r2, #254	@ 0xfe
100015a8:	0592      	lsls	r2, r2, #22
100015aa:	9405      	str	r4, [sp, #20]
100015ac:	9200      	str	r2, [sp, #0]
100015ae:	a8c8      	add	r0, sp, #800	@ 0x320
100015b0:	000a      	movs	r2, r1
100015b2:	a953      	add	r1, sp, #332	@ 0x14c
100015b4:	f7ff fcf4 	bl	10000fa0 <_ZN6tflite7testing35CreatePerChannelQuantizedBiasTensorIlEE12TfLiteTensorPKfPT_P14TfLiteIntArrayfS4_PfPiP24TfLiteAffineQuantizationib>
100015b8:	2300      	movs	r3, #0
100015ba:	4640      	mov	r0, r8
100015bc:	93eb      	str	r3, [sp, #940]	@ 0x3ac
100015be:	f008 fc87 	bl	10009ed0 <_ZN6tflite12ElementCountERK14TfLiteIntArray>
100015c2:	9012      	str	r0, [sp, #72]	@ 0x48
100015c4:	2009      	movs	r0, #9
100015c6:	f007 fb33 	bl	10008c30 <_ZN6tflite17TfLiteTypeGetSizeE10TfLiteType>
100015ca:	22fe      	movs	r2, #254	@ 0xfe
100015cc:	4659      	mov	r1, fp
100015ce:	2300      	movs	r3, #0
100015d0:	0592      	lsls	r2, r2, #22
100015d2:	0004      	movs	r4, r0
100015d4:	925c      	str	r2, [sp, #368]	@ 0x170
100015d6:	925d      	str	r2, [sp, #372]	@ 0x174
100015d8:	9160      	str	r1, [sp, #384]	@ 0x180
100015da:	220c      	movs	r2, #12
100015dc:	2100      	movs	r1, #0
100015de:	a87a      	add	r0, sp, #488	@ 0x1e8
100015e0:	9361      	str	r3, [sp, #388]	@ 0x184
100015e2:	f004 fa57 	bl	10005a94 <__wrap_memset>
100015e6:	a95c      	add	r1, sp, #368	@ 0x170
100015e8:	0008      	movs	r0, r1
100015ea:	f008 fdab 	bl	1000a144 <_ZN6tflite7testing20FloatArrayFromFloatsEPKf>
100015ee:	a960      	add	r1, sp, #384	@ 0x180
100015f0:	907a      	str	r0, [sp, #488]	@ 0x1e8
100015f2:	0008      	movs	r0, r1
100015f4:	f008 fda4 	bl	1000a140 <_ZN6tflite7testing16IntArrayFromIntsEPKi>
100015f8:	22fe      	movs	r2, #254	@ 0xfe
100015fa:	4659      	mov	r1, fp
100015fc:	2300      	movs	r3, #0
100015fe:	0592      	lsls	r2, r2, #22
10001600:	907b      	str	r0, [sp, #492]	@ 0x1ec
10001602:	9264      	str	r2, [sp, #400]	@ 0x190
10001604:	9265      	str	r2, [sp, #404]	@ 0x194
10001606:	9168      	str	r1, [sp, #416]	@ 0x1a0
10001608:	220c      	movs	r2, #12
1000160a:	2100      	movs	r1, #0
1000160c:	a87f      	add	r0, sp, #508	@ 0x1fc
1000160e:	9369      	str	r3, [sp, #420]	@ 0x1a4
10001610:	f004 fa40 	bl	10005a94 <__wrap_memset>
10001614:	a964      	add	r1, sp, #400	@ 0x190
10001616:	0008      	movs	r0, r1
10001618:	f008 fd94 	bl	1000a144 <_ZN6tflite7testing20FloatArrayFromFloatsEPKf>
1000161c:	a968      	add	r1, sp, #416	@ 0x1a0
1000161e:	907f      	str	r0, [sp, #508]	@ 0x1fc
10001620:	0008      	movs	r0, r1
10001622:	f008 fd8d 	bl	1000a140 <_ZN6tflite7testing16IntArrayFromIntsEPKi>
10001626:	4659      	mov	r1, fp
10001628:	4375      	muls	r5, r6
1000162a:	9080      	str	r0, [sp, #512]	@ 0x200
1000162c:	2085      	movs	r0, #133	@ 0x85
1000162e:	22fe      	movs	r2, #254	@ 0xfe
10001630:	95be      	str	r5, [sp, #760]	@ 0x2f8
10001632:	2509      	movs	r5, #9
10001634:	2600      	movs	r6, #0
10001636:	91b8      	str	r1, [sp, #736]	@ 0x2e0
10001638:	a97a      	add	r1, sp, #488	@ 0x1e8
1000163a:	91b9      	str	r1, [sp, #740]	@ 0x2e4
1000163c:	a96c      	add	r1, sp, #432	@ 0x1b0
1000163e:	91bc      	str	r1, [sp, #752]	@ 0x2f0
10001640:	990e      	ldr	r1, [sp, #56]	@ 0x38
10001642:	0080      	lsls	r0, r0, #2
10001644:	91bd      	str	r1, [sp, #756]	@ 0x2f4
10001646:	a93a      	add	r1, sp, #232	@ 0xe8
10001648:	1809      	adds	r1, r1, r0
1000164a:	0592      	lsls	r2, r2, #22
1000164c:	4876      	ldr	r0, [pc, #472]	@ (10001828 <main+0x79c>)
1000164e:	92ba      	str	r2, [sp, #744]	@ 0x2e8
10001650:	800d      	strh	r5, [r1, #0]
10001652:	a93a      	add	r1, sp, #232	@ 0xe8
10001654:	1809      	adds	r1, r1, r0
10001656:	2220      	movs	r2, #32
10001658:	700e      	strb	r6, [r1, #0]
1000165a:	4650      	mov	r0, sl
1000165c:	a9b8      	add	r1, sp, #736	@ 0x2e0
1000165e:	f004 fa1f 	bl	10005aa0 <__wrap___aeabi_memcpy>
10001662:	abff      	add	r3, sp, #1020	@ 0x3fc
10001664:	33c4      	adds	r3, #196	@ 0xc4
10001666:	2220      	movs	r2, #32
10001668:	0018      	movs	r0, r3
1000166a:	a9c0      	add	r1, sp, #768	@ 0x300
1000166c:	f004 fa18 	bl	10005aa0 <__wrap___aeabi_memcpy>
10001670:	abff      	add	r3, sp, #1020	@ 0x3fc
10001672:	33e4      	adds	r3, #228	@ 0xe4
10001674:	2220      	movs	r2, #32
10001676:	0018      	movs	r0, r3
10001678:	a9c8      	add	r1, sp, #800	@ 0x320
1000167a:	f004 fa11 	bl	10005aa0 <__wrap___aeabi_memcpy>
1000167e:	465b      	mov	r3, fp
10001680:	22fe      	movs	r2, #254	@ 0xfe
10001682:	93e8      	str	r3, [sp, #928]	@ 0x3a0
10001684:	ab7f      	add	r3, sp, #508	@ 0x1fc
10001686:	93e9      	str	r3, [sp, #932]	@ 0x3a4
10001688:	ab4e      	add	r3, sp, #312	@ 0x138
1000168a:	93ec      	str	r3, [sp, #944]	@ 0x3b0
1000168c:	4643      	mov	r3, r8
1000168e:	0592      	lsls	r2, r2, #22
10001690:	92ea      	str	r2, [sp, #936]	@ 0x3a8
10001692:	22b5      	movs	r2, #181	@ 0xb5
10001694:	20a0      	movs	r0, #160	@ 0xa0
10001696:	93ed      	str	r3, [sp, #948]	@ 0x3b4
10001698:	9b12      	ldr	r3, [sp, #72]	@ 0x48
1000169a:	0092      	lsls	r2, r2, #2
1000169c:	435c      	muls	r4, r3
1000169e:	ab3a      	add	r3, sp, #232	@ 0xe8
100016a0:	189b      	adds	r3, r3, r2
100016a2:	4a62      	ldr	r2, [pc, #392]	@ (1000182c <main+0x7a0>)
100016a4:	94ee      	str	r4, [sp, #952]	@ 0x3b8
100016a6:	801d      	strh	r5, [r3, #0]
100016a8:	ab3a      	add	r3, sp, #232	@ 0xe8
100016aa:	189b      	adds	r3, r3, r2
100016ac:	00c0      	lsls	r0, r0, #3
100016ae:	2220      	movs	r2, #32
100016b0:	701e      	strb	r6, [r3, #0]
100016b2:	a9e8      	add	r1, sp, #928	@ 0x3a0
100016b4:	4468      	add	r0, sp
100016b6:	f004 f9f3 	bl	10005aa0 <__wrap___aeabi_memcpy>
100016ba:	2f00      	cmp	r7, #0
100016bc:	dd22      	ble.n	10001704 <main+0x678>
100016be:	ac84      	add	r4, sp, #528	@ 0x210
100016c0:	46a4      	mov	ip, r4
100016c2:	00be      	lsls	r6, r7, #2
100016c4:	ad50      	add	r5, sp, #320	@ 0x140
100016c6:	4466      	add	r6, ip
100016c8:	e005      	b.n	100016d6 <main+0x64a>
100016ca:	207f      	movs	r0, #127	@ 0x7f
100016cc:	3404      	adds	r4, #4
100016ce:	7028      	strb	r0, [r5, #0]
100016d0:	3501      	adds	r5, #1
100016d2:	42a6      	cmp	r6, r4
100016d4:	d016      	beq.n	10001704 <main+0x678>
100016d6:	6820      	ldr	r0, [r4, #0]
100016d8:	f004 f924 	bl	10005924 <__wrap___aeabi_f2d>
100016dc:	f003 fd0c 	bl	100050f8 <__wrap_round>
100016e0:	2200      	movs	r2, #0
100016e2:	2300      	movs	r3, #0
100016e4:	f003 fbac 	bl	10004e40 <__wrap___aeabi_dadd>
100016e8:	f003 fc58 	bl	10004f9c <__wrap___aeabi_d2iz>
100016ec:	287f      	cmp	r0, #127	@ 0x7f
100016ee:	dcec      	bgt.n	100016ca <main+0x63e>
100016f0:	0003      	movs	r3, r0
100016f2:	3380      	adds	r3, #128	@ 0x80
100016f4:	daea      	bge.n	100016cc <main+0x640>
100016f6:	2080      	movs	r0, #128	@ 0x80
100016f8:	3404      	adds	r4, #4
100016fa:	4240      	negs	r0, r0
100016fc:	7028      	strb	r0, [r5, #0]
100016fe:	3501      	adds	r5, #1
10001700:	42a6      	cmp	r6, r4
10001702:	d1e8      	bne.n	100016d6 <main+0x64a>
10001704:	4653      	mov	r3, sl
10001706:	0039      	movs	r1, r7
10001708:	aaa8      	add	r2, sp, #672	@ 0x2a0
1000170a:	a850      	add	r0, sp, #320	@ 0x140
1000170c:	f7ff f840 	bl	10000790 <_ZN6tflite7testing12_GLOBAL__N_128ValidateDepthwiseConvGoldensIavvEE12TfLiteStatusPKT_iP25TfLiteDepthwiseConvParamsfiP12TfLiteTensor.constprop.2>
10001710:	2800      	cmp	r0, #0
10001712:	d001      	beq.n	10001718 <main+0x68c>
10001714:	f001 ff50 	bl	100035b8 <main+0x252c>
10001718:	4659      	mov	r1, fp
1000171a:	9b0d      	ldr	r3, [sp, #52]	@ 0x34
1000171c:	781a      	ldrb	r2, [r3, #0]
1000171e:	9b10      	ldr	r3, [sp, #64]	@ 0x40
10001720:	7019      	strb	r1, [r3, #0]
10001722:	9b0c      	ldr	r3, [sp, #48]	@ 0x30
10001724:	681b      	ldr	r3, [r3, #0]
10001726:	2a00      	cmp	r2, #0
10001728:	d001      	beq.n	1000172e <main+0x6a2>
1000172a:	f001 ff82 	bl	10003632 <main+0x25a6>
1000172e:	2200      	movs	r2, #0
10001730:	3301      	adds	r3, #1
10001732:	990c      	ldr	r1, [sp, #48]	@ 0x30
10001734:	982b      	ldr	r0, [sp, #172]	@ 0xac
10001736:	600b      	str	r3, [r1, #0]
10001738:	9914      	ldr	r1, [sp, #80]	@ 0x50
1000173a:	680b      	ldr	r3, [r1, #0]
1000173c:	189b      	adds	r3, r3, r2
1000173e:	600b      	str	r3, [r1, #0]
10001740:	f008 fbb4 	bl	10009eac <_Z11MicroPrintfPKcz>
10001744:	2300      	movs	r3, #0
10001746:	9a10      	ldr	r2, [sp, #64]	@ 0x40
10001748:	9d23      	ldr	r5, [sp, #140]	@ 0x8c
1000174a:	7013      	strb	r3, [r2, #0]
1000174c:	9a0d      	ldr	r2, [sp, #52]	@ 0x34
1000174e:	7013      	strb	r3, [r2, #0]
10001750:	002b      	movs	r3, r5
10001752:	aa8a      	add	r2, sp, #552	@ 0x228
10001754:	3314      	adds	r3, #20
10001756:	cb13      	ldmia	r3!, {r0, r1, r4}
10001758:	c213      	stmia	r2!, {r0, r1, r4}
1000175a:	cb03      	ldmia	r3!, {r0, r1}
1000175c:	c203      	stmia	r2!, {r0, r1}
1000175e:	0029      	movs	r1, r5
10001760:	2260      	movs	r2, #96	@ 0x60
10001762:	3128      	adds	r1, #40	@ 0x28
10001764:	9811      	ldr	r0, [sp, #68]	@ 0x44
10001766:	f004 f99b 	bl	10005aa0 <__wrap___aeabi_memcpy>
1000176a:	9b15      	ldr	r3, [sp, #84]	@ 0x54
1000176c:	aa91      	add	r2, sp, #580	@ 0x244
1000176e:	335c      	adds	r3, #92	@ 0x5c
10001770:	cb13      	ldmia	r3!, {r0, r1, r4}
10001772:	c213      	stmia	r2!, {r0, r1, r4}
10001774:	cb03      	ldmia	r3!, {r0, r1}
10001776:	c203      	stmia	r2!, {r0, r1}
10001778:	9e24      	ldr	r6, [sp, #144]	@ 0x90
1000177a:	2240      	movs	r2, #64	@ 0x40
1000177c:	0031      	movs	r1, r6
1000177e:	a8e8      	add	r0, sp, #928	@ 0x3a0
10001780:	3108      	adds	r1, #8
10001782:	f004 f98d 	bl	10005aa0 <__wrap___aeabi_memcpy>
10001786:	9d16      	ldr	r5, [sp, #88]	@ 0x58
10001788:	aa98      	add	r2, sp, #608	@ 0x260
1000178a:	002b      	movs	r3, r5
1000178c:	3330      	adds	r3, #48	@ 0x30
1000178e:	cb13      	ldmia	r3!, {r0, r1, r4}
10001790:	c213      	stmia	r2!, {r0, r1, r4}
10001792:	cb03      	ldmia	r3!, {r0, r1}
10001794:	c203      	stmia	r2!, {r0, r1}
10001796:	002b      	movs	r3, r5
10001798:	aa7a      	add	r2, sp, #488	@ 0x1e8
1000179a:	3344      	adds	r3, #68	@ 0x44
1000179c:	cb13      	ldmia	r3!, {r0, r1, r4}
1000179e:	c213      	stmia	r2!, {r0, r1, r4}
100017a0:	681b      	ldr	r3, [r3, #0]
100017a2:	6013      	str	r3, [r2, #0]
100017a4:	0033      	movs	r3, r6
100017a6:	aab8      	add	r2, sp, #736	@ 0x2e0
100017a8:	3348      	adds	r3, #72	@ 0x48
100017aa:	cb13      	ldmia	r3!, {r0, r1, r4}
100017ac:	c213      	stmia	r2!, {r0, r1, r4}
100017ae:	cb13      	ldmia	r3!, {r0, r1, r4}
100017b0:	c213      	stmia	r2!, {r0, r1, r4}
100017b2:	cb03      	ldmia	r3!, {r0, r1}
100017b4:	c203      	stmia	r2!, {r0, r1}
100017b6:	002b      	movs	r3, r5
100017b8:	aaa0      	add	r2, sp, #640	@ 0x280
100017ba:	3374      	adds	r3, #116	@ 0x74
100017bc:	cb13      	ldmia	r3!, {r0, r1, r4}
100017be:	c213      	stmia	r2!, {r0, r1, r4}
100017c0:	cb03      	ldmia	r3!, {r0, r1}
100017c2:	c203      	stmia	r2!, {r0, r1}
100017c4:	21f4      	movs	r1, #244	@ 0xf4
100017c6:	2303      	movs	r3, #3
100017c8:	0049      	lsls	r1, r1, #1
100017ca:	aa3a      	add	r2, sp, #232	@ 0xe8
100017cc:	1852      	adds	r2, r2, r1
100017ce:	7013      	strb	r3, [r2, #0]
100017d0:	465b      	mov	r3, fp
100017d2:	a88a      	add	r0, sp, #552	@ 0x228
100017d4:	93b5      	str	r3, [sp, #724]	@ 0x2d4
100017d6:	93b6      	str	r3, [sp, #728]	@ 0x2d8
100017d8:	93b2      	str	r3, [sp, #712]	@ 0x2c8
100017da:	93b1      	str	r3, [sp, #708]	@ 0x2c4
100017dc:	f008 fcb0 	bl	1000a140 <_ZN6tflite7testing16IntArrayFromIntsEPKi>
100017e0:	ab91      	add	r3, sp, #580	@ 0x244
100017e2:	0004      	movs	r4, r0
100017e4:	900e      	str	r0, [sp, #56]	@ 0x38
100017e6:	0018      	movs	r0, r3
100017e8:	f008 fcaa 	bl	1000a140 <_ZN6tflite7testing16IntArrayFromIntsEPKi>
100017ec:	ab98      	add	r3, sp, #608	@ 0x260
100017ee:	9012      	str	r0, [sp, #72]	@ 0x48
100017f0:	0018      	movs	r0, r3
100017f2:	f008 fca5 	bl	1000a140 <_ZN6tflite7testing16IntArrayFromIntsEPKi>
100017f6:	aba0      	add	r3, sp, #640	@ 0x280
100017f8:	9013      	str	r0, [sp, #76]	@ 0x4c
100017fa:	0018      	movs	r0, r3
100017fc:	f008 fca0 	bl	1000a140 <_ZN6tflite7testing16IntArrayFromIntsEPKi>
10001800:	4680      	mov	r8, r0
10001802:	f008 fb65 	bl	10009ed0 <_ZN6tflite12ElementCountERK14TfLiteIntArray>
10001806:	0007      	movs	r7, r0
10001808:	0020      	movs	r0, r4
1000180a:	f008 fb61 	bl	10009ed0 <_ZN6tflite12ElementCountERK14TfLiteIntArray>
1000180e:	2800      	cmp	r0, #0
10001810:	dd2e      	ble.n	10001870 <main+0x7e4>
10001812:	9b11      	ldr	r3, [sp, #68]	@ 0x44
10001814:	0086      	lsls	r6, r0, #2
10001816:	469c      	mov	ip, r3
10001818:	001c      	movs	r4, r3
1000181a:	ada8      	add	r5, sp, #672	@ 0x2a0
1000181c:	4466      	add	r6, ip
1000181e:	e00d      	b.n	1000183c <main+0x7b0>
10001820:	000008b8 	.word	0x000008b8
10001824:	000005bc 	.word	0x000005bc
10001828:	00000216 	.word	0x00000216
1000182c:	000002d6 	.word	0x000002d6
10001830:	207f      	movs	r0, #127	@ 0x7f
10001832:	3404      	adds	r4, #4
10001834:	7028      	strb	r0, [r5, #0]
10001836:	3501      	adds	r5, #1
10001838:	42a6      	cmp	r6, r4
1000183a:	d019      	beq.n	10001870 <main+0x7e4>
1000183c:	4966      	ldr	r1, [pc, #408]	@ (100019d8 <main+0x94c>)
1000183e:	6820      	ldr	r0, [r4, #0]
10001840:	f003 ffaf 	bl	100057a2 <__wrap___aeabi_fdiv>
10001844:	f004 f86e 	bl	10005924 <__wrap___aeabi_f2d>
10001848:	f003 fc56 	bl	100050f8 <__wrap_round>
1000184c:	2200      	movs	r2, #0
1000184e:	4b63      	ldr	r3, [pc, #396]	@ (100019dc <main+0x950>)
10001850:	f003 faed 	bl	10004e2e <__wrap___aeabi_dsub>
10001854:	f003 fba2 	bl	10004f9c <__wrap___aeabi_d2iz>
10001858:	287f      	cmp	r0, #127	@ 0x7f
1000185a:	dce9      	bgt.n	10001830 <main+0x7a4>
1000185c:	0003      	movs	r3, r0
1000185e:	3380      	adds	r3, #128	@ 0x80
10001860:	dae7      	bge.n	10001832 <main+0x7a6>
10001862:	2080      	movs	r0, #128	@ 0x80
10001864:	3404      	adds	r4, #4
10001866:	4240      	negs	r0, r0
10001868:	7028      	strb	r0, [r5, #0]
1000186a:	3501      	adds	r5, #1
1000186c:	42a6      	cmp	r6, r4
1000186e:	d1e5      	bne.n	1000183c <main+0x7b0>
10001870:	980e      	ldr	r0, [sp, #56]	@ 0x38
10001872:	f008 fb2d 	bl	10009ed0 <_ZN6tflite12ElementCountERK14TfLiteIntArray>
10001876:	0006      	movs	r6, r0
10001878:	2009      	movs	r0, #9
1000187a:	f007 f9d9 	bl	10008c30 <_ZN6tflite17TfLiteTypeGetSizeE10TfLiteType>
1000187e:	aa68      	add	r2, sp, #416	@ 0x1a0
10001880:	2300      	movs	r3, #0
10001882:	9202      	str	r2, [sp, #8]
10001884:	464a      	mov	r2, r9
10001886:	9305      	str	r3, [sp, #20]
10001888:	9304      	str	r3, [sp, #16]
1000188a:	9201      	str	r2, [sp, #4]
1000188c:	ab3a      	add	r3, sp, #232	@ 0xe8
1000188e:	22b7      	movs	r2, #183	@ 0xb7
10001890:	469c      	mov	ip, r3
10001892:	2403      	movs	r4, #3
10001894:	00d2      	lsls	r2, r2, #3
10001896:	4462      	add	r2, ip
10001898:	0005      	movs	r5, r0
1000189a:	9b12      	ldr	r3, [sp, #72]	@ 0x48
1000189c:	9403      	str	r4, [sp, #12]
1000189e:	9200      	str	r2, [sp, #0]
100018a0:	a9e8      	add	r1, sp, #928	@ 0x3a0
100018a2:	aa7f      	add	r2, sp, #508	@ 0x1fc
100018a4:	a8c0      	add	r0, sp, #768	@ 0x300
100018a6:	f008 fc55 	bl	1000a154 <_ZN6tflite7testing40CreateSymmetricPerChannelQuantizedTensorEPKfPaP14TfLiteIntArrayPfPiP24TfLiteAffineQuantizationib10TfLiteType>
100018aa:	2300      	movs	r3, #0
100018ac:	aa6c      	add	r2, sp, #432	@ 0x1b0
100018ae:	9306      	str	r3, [sp, #24]
100018b0:	9204      	str	r2, [sp, #16]
100018b2:	ab3a      	add	r3, sp, #232	@ 0xe8
100018b4:	22d7      	movs	r2, #215	@ 0xd7
100018b6:	469c      	mov	ip, r3
100018b8:	00d2      	lsls	r2, r2, #3
100018ba:	4462      	add	r2, ip
100018bc:	9203      	str	r2, [sp, #12]
100018be:	4a48      	ldr	r2, [pc, #288]	@ (100019e0 <main+0x954>)
100018c0:	9405      	str	r4, [sp, #20]
100018c2:	4462      	add	r2, ip
100018c4:	9202      	str	r2, [sp, #8]
100018c6:	4a47      	ldr	r2, [pc, #284]	@ (100019e4 <main+0x958>)
100018c8:	4c43      	ldr	r4, [pc, #268]	@ (100019d8 <main+0x94c>)
100018ca:	4462      	add	r2, ip
100018cc:	9b13      	ldr	r3, [sp, #76]	@ 0x4c
100018ce:	a97a      	add	r1, sp, #488	@ 0x1e8
100018d0:	9201      	str	r2, [sp, #4]
100018d2:	a8c8      	add	r0, sp, #800	@ 0x320
100018d4:	aa84      	add	r2, sp, #528	@ 0x210
100018d6:	9400      	str	r4, [sp, #0]
100018d8:	f7ff fb62 	bl	10000fa0 <_ZN6tflite7testing35CreatePerChannelQuantizedBiasTensorIlEE12TfLiteTensorPKfPT_P14TfLiteIntArrayfS4_PfPiP24TfLiteAffineQuantizationib>
100018dc:	4640      	mov	r0, r8
100018de:	f008 faf7 	bl	10009ed0 <_ZN6tflite12ElementCountERK14TfLiteIntArray>
100018e2:	9012      	str	r0, [sp, #72]	@ 0x48
100018e4:	2009      	movs	r0, #9
100018e6:	f007 f9a3 	bl	10008c30 <_ZN6tflite17TfLiteTypeGetSizeE10TfLiteType>
100018ea:	22fe      	movs	r2, #254	@ 0xfe
100018ec:	0592      	lsls	r2, r2, #22
100018ee:	9259      	str	r2, [sp, #356]	@ 0x164
100018f0:	465a      	mov	r2, fp
100018f2:	925c      	str	r2, [sp, #368]	@ 0x170
100018f4:	2280      	movs	r2, #128	@ 0x80
100018f6:	4252      	negs	r2, r2
100018f8:	2100      	movs	r1, #0
100018fa:	9013      	str	r0, [sp, #76]	@ 0x4c
100018fc:	925d      	str	r2, [sp, #372]	@ 0x174
100018fe:	a870      	add	r0, sp, #448	@ 0x1c0
10001900:	328c      	adds	r2, #140	@ 0x8c
10001902:	945a      	str	r4, [sp, #360]	@ 0x168
10001904:	f004 f8c6 	bl	10005a94 <__wrap_memset>
10001908:	a959      	add	r1, sp, #356	@ 0x164
1000190a:	0008      	movs	r0, r1
1000190c:	f008 fc1a 	bl	1000a144 <_ZN6tflite7testing20FloatArrayFromFloatsEPKf>
10001910:	a95c      	add	r1, sp, #368	@ 0x170
10001912:	9070      	str	r0, [sp, #448]	@ 0x1c0
10001914:	0008      	movs	r0, r1
10001916:	f008 fc13 	bl	1000a140 <_ZN6tflite7testing16IntArrayFromIntsEPKi>
1000191a:	21fe      	movs	r1, #254	@ 0xfe
1000191c:	2280      	movs	r2, #128	@ 0x80
1000191e:	0589      	lsls	r1, r1, #22
10001920:	9160      	str	r1, [sp, #384]	@ 0x180
10001922:	4659      	mov	r1, fp
10001924:	4252      	negs	r2, r2
10001926:	9071      	str	r0, [sp, #452]	@ 0x1c4
10001928:	9164      	str	r1, [sp, #400]	@ 0x190
1000192a:	9265      	str	r2, [sp, #404]	@ 0x194
1000192c:	2100      	movs	r1, #0
1000192e:	328c      	adds	r2, #140	@ 0x8c
10001930:	a875      	add	r0, sp, #468	@ 0x1d4
10001932:	9461      	str	r4, [sp, #388]	@ 0x184
10001934:	f004 f8ae 	bl	10005a94 <__wrap_memset>
10001938:	a960      	add	r1, sp, #384	@ 0x180
1000193a:	0008      	movs	r0, r1
1000193c:	f008 fc02 	bl	1000a144 <_ZN6tflite7testing20FloatArrayFromFloatsEPKf>
10001940:	a964      	add	r1, sp, #400	@ 0x190
10001942:	9075      	str	r0, [sp, #468]	@ 0x1d4
10001944:	0008      	movs	r0, r1
10001946:	f008 fbfb 	bl	1000a140 <_ZN6tflite7testing16IntArrayFromIntsEPKi>
1000194a:	4659      	mov	r1, fp
1000194c:	abff      	add	r3, sp, #1020	@ 0x3fc
1000194e:	33a4      	adds	r3, #164	@ 0xa4
10001950:	6019      	str	r1, [r3, #0]
10001952:	4651      	mov	r1, sl
10001954:	4375      	muls	r5, r6
10001956:	aa70      	add	r2, sp, #448	@ 0x1c0
10001958:	604a      	str	r2, [r1, #4]
1000195a:	2280      	movs	r2, #128	@ 0x80
1000195c:	618d      	str	r5, [r1, #24]
1000195e:	2600      	movs	r6, #0
10001960:	2509      	movs	r5, #9
10001962:	aba8      	add	r3, sp, #672	@ 0x2a0
10001964:	610b      	str	r3, [r1, #16]
10001966:	9076      	str	r0, [sp, #472]	@ 0x1d8
10001968:	abff      	add	r3, sp, #1020	@ 0x3fc
1000196a:	980e      	ldr	r0, [sp, #56]	@ 0x38
1000196c:	33c4      	adds	r3, #196	@ 0xc4
1000196e:	4252      	negs	r2, r2
10001970:	60ca      	str	r2, [r1, #12]
10001972:	6148      	str	r0, [r1, #20]
10001974:	608c      	str	r4, [r1, #8]
10001976:	0018      	movs	r0, r3
10001978:	838d      	strh	r5, [r1, #28]
1000197a:	778e      	strb	r6, [r1, #30]
1000197c:	32a0      	adds	r2, #160	@ 0xa0
1000197e:	a9c0      	add	r1, sp, #768	@ 0x300
10001980:	f004 f88e 	bl	10005aa0 <__wrap___aeabi_memcpy>
10001984:	abff      	add	r3, sp, #1020	@ 0x3fc
10001986:	33e4      	adds	r3, #228	@ 0xe4
10001988:	2220      	movs	r2, #32
1000198a:	0018      	movs	r0, r3
1000198c:	a9c8      	add	r1, sp, #800	@ 0x320
1000198e:	f004 f887 	bl	10005aa0 <__wrap___aeabi_memcpy>
10001992:	21a0      	movs	r1, #160	@ 0xa0
10001994:	465b      	mov	r3, fp
10001996:	00c9      	lsls	r1, r1, #3
10001998:	4469      	add	r1, sp
1000199a:	2280      	movs	r2, #128	@ 0x80
1000199c:	600b      	str	r3, [r1, #0]
1000199e:	4651      	mov	r1, sl
100019a0:	4252      	negs	r2, r2
100019a2:	66ca      	str	r2, [r1, #108]	@ 0x6c
100019a4:	4652      	mov	r2, sl
100019a6:	ab75      	add	r3, sp, #468	@ 0x1d4
100019a8:	664b      	str	r3, [r1, #100]	@ 0x64
100019aa:	668c      	str	r4, [r1, #104]	@ 0x68
100019ac:	a953      	add	r1, sp, #332	@ 0x14c
100019ae:	6711      	str	r1, [r2, #112]	@ 0x70
100019b0:	4641      	mov	r1, r8
100019b2:	9b13      	ldr	r3, [sp, #76]	@ 0x4c
100019b4:	6751      	str	r1, [r2, #116]	@ 0x74
100019b6:	9a12      	ldr	r2, [sp, #72]	@ 0x48
100019b8:	4353      	muls	r3, r2
100019ba:	4652      	mov	r2, sl
100019bc:	6793      	str	r3, [r2, #120]	@ 0x78
100019be:	237c      	movs	r3, #124	@ 0x7c
100019c0:	52d5      	strh	r5, [r2, r3]
100019c2:	3302      	adds	r3, #2
100019c4:	54d6      	strb	r6, [r2, r3]
100019c6:	2f00      	cmp	r7, #0
100019c8:	dd2e      	ble.n	10001a28 <main+0x99c>
100019ca:	acb8      	add	r4, sp, #736	@ 0x2e0
100019cc:	46a4      	mov	ip, r4
100019ce:	00be      	lsls	r6, r7, #2
100019d0:	ad56      	add	r5, sp, #344	@ 0x158
100019d2:	4466      	add	r6, ip
100019d4:	e00e      	b.n	100019f4 <main+0x968>
100019d6:	46c0      	nop			@ (mov r8, r8)
100019d8:	3cc0bfe4 	.word	0x3cc0bfe4
100019dc:	40600000 	.word	0x40600000
100019e0:	000008b8 	.word	0x000008b8
100019e4:	000005bc 	.word	0x000005bc
100019e8:	207f      	movs	r0, #127	@ 0x7f
100019ea:	3404      	adds	r4, #4
100019ec:	7028      	strb	r0, [r5, #0]
100019ee:	3501      	adds	r5, #1
100019f0:	42a6      	cmp	r6, r4
100019f2:	d019      	beq.n	10001a28 <main+0x99c>
100019f4:	49e9      	ldr	r1, [pc, #932]	@ (10001d9c <main+0xd10>)
100019f6:	6820      	ldr	r0, [r4, #0]
100019f8:	f003 fed3 	bl	100057a2 <__wrap___aeabi_fdiv>
100019fc:	f003 ff92 	bl	10005924 <__wrap___aeabi_f2d>
10001a00:	f003 fb7a 	bl	100050f8 <__wrap_round>
10001a04:	2200      	movs	r2, #0
10001a06:	4be6      	ldr	r3, [pc, #920]	@ (10001da0 <main+0xd14>)
10001a08:	f003 fa11 	bl	10004e2e <__wrap___aeabi_dsub>
10001a0c:	f003 fac6 	bl	10004f9c <__wrap___aeabi_d2iz>
10001a10:	287f      	cmp	r0, #127	@ 0x7f
10001a12:	dce9      	bgt.n	100019e8 <main+0x95c>
10001a14:	0003      	movs	r3, r0
10001a16:	3380      	adds	r3, #128	@ 0x80
10001a18:	dae7      	bge.n	100019ea <main+0x95e>
10001a1a:	2080      	movs	r0, #128	@ 0x80
10001a1c:	3404      	adds	r4, #4
10001a1e:	4240      	negs	r0, r0
10001a20:	7028      	strb	r0, [r5, #0]
10001a22:	3501      	adds	r5, #1
10001a24:	42a6      	cmp	r6, r4
10001a26:	d1e5      	bne.n	100019f4 <main+0x968>
10001a28:	4653      	mov	r3, sl
10001a2a:	0039      	movs	r1, r7
10001a2c:	aab0      	add	r2, sp, #704	@ 0x2c0
10001a2e:	a856      	add	r0, sp, #344	@ 0x158
10001a30:	f7fe feae 	bl	10000790 <_ZN6tflite7testing12_GLOBAL__N_128ValidateDepthwiseConvGoldensIavvEE12TfLiteStatusPKT_iP25TfLiteDepthwiseConvParamsfiP12TfLiteTensor.constprop.2>
10001a34:	2800      	cmp	r0, #0
10001a36:	d001      	beq.n	10001a3c <main+0x9b0>
10001a38:	f001 fdad 	bl	10003596 <main+0x250a>
10001a3c:	4659      	mov	r1, fp
10001a3e:	9b0d      	ldr	r3, [sp, #52]	@ 0x34
10001a40:	781a      	ldrb	r2, [r3, #0]
10001a42:	9b10      	ldr	r3, [sp, #64]	@ 0x40
10001a44:	7019      	strb	r1, [r3, #0]
10001a46:	9b0c      	ldr	r3, [sp, #48]	@ 0x30
10001a48:	681b      	ldr	r3, [r3, #0]
10001a4a:	2a00      	cmp	r2, #0
10001a4c:	d001      	beq.n	10001a52 <main+0x9c6>
10001a4e:	f001 fded 	bl	1000362c <main+0x25a0>
10001a52:	2200      	movs	r2, #0
10001a54:	3301      	adds	r3, #1
10001a56:	2500      	movs	r5, #0
10001a58:	990c      	ldr	r1, [sp, #48]	@ 0x30
10001a5a:	982c      	ldr	r0, [sp, #176]	@ 0xb0
10001a5c:	600b      	str	r3, [r1, #0]
10001a5e:	9914      	ldr	r1, [sp, #80]	@ 0x50
10001a60:	afb0      	add	r7, sp, #704	@ 0x2c0
10001a62:	680b      	ldr	r3, [r1, #0]
10001a64:	189b      	adds	r3, r3, r2
10001a66:	600b      	str	r3, [r1, #0]
10001a68:	f008 fa20 	bl	10009eac <_Z11MicroPrintfPKcz>
10001a6c:	9e24      	ldr	r6, [sp, #144]	@ 0x90
10001a6e:	9b10      	ldr	r3, [sp, #64]	@ 0x40
10001a70:	9a0d      	ldr	r2, [sp, #52]	@ 0x34
10001a72:	701d      	strb	r5, [r3, #0]
10001a74:	0033      	movs	r3, r6
10001a76:	7015      	strb	r5, [r2, #0]
10001a78:	3368      	adds	r3, #104	@ 0x68
10001a7a:	cb13      	ldmia	r3!, {r0, r1, r4}
10001a7c:	c713      	stmia	r7!, {r0, r1, r4}
10001a7e:	003a      	movs	r2, r7
10001a80:	cb03      	ldmia	r3!, {r0, r1}
10001a82:	c203      	stmia	r2!, {r0, r1}
10001a84:	ab3a      	add	r3, sp, #232	@ 0xe8
10001a86:	469c      	mov	ip, r3
10001a88:	48c6      	ldr	r0, [pc, #792]	@ (10001da4 <main+0xd18>)
10001a8a:	992d      	ldr	r1, [sp, #180]	@ 0xb4
10001a8c:	22c0      	movs	r2, #192	@ 0xc0
10001a8e:	4460      	add	r0, ip
10001a90:	f004 f806 	bl	10005aa0 <__wrap___aeabi_memcpy>
10001a94:	9f15      	ldr	r7, [sp, #84]	@ 0x54
10001a96:	aab8      	add	r2, sp, #736	@ 0x2e0
10001a98:	003b      	movs	r3, r7
10001a9a:	335c      	adds	r3, #92	@ 0x5c
10001a9c:	cb13      	ldmia	r3!, {r0, r1, r4}
10001a9e:	c213      	stmia	r2!, {r0, r1, r4}
10001aa0:	cb03      	ldmia	r3!, {r0, r1}
10001aa2:	c203      	stmia	r2!, {r0, r1}
10001aa4:	ab3a      	add	r3, sp, #232	@ 0xe8
10001aa6:	20b7      	movs	r0, #183	@ 0xb7
10001aa8:	469c      	mov	ip, r3
10001aaa:	0039      	movs	r1, r7
10001aac:	00c0      	lsls	r0, r0, #3
10001aae:	3170      	adds	r1, #112	@ 0x70
10001ab0:	2240      	movs	r2, #64	@ 0x40
10001ab2:	4460      	add	r0, ip
10001ab4:	f003 fff4 	bl	10005aa0 <__wrap___aeabi_memcpy>
10001ab8:	9f16      	ldr	r7, [sp, #88]	@ 0x58
10001aba:	aac0      	add	r2, sp, #768	@ 0x300
10001abc:	003b      	movs	r3, r7
10001abe:	3330      	adds	r3, #48	@ 0x30
10001ac0:	cb13      	ldmia	r3!, {r0, r1, r4}
10001ac2:	c213      	stmia	r2!, {r0, r1, r4}
10001ac4:	cb03      	ldmia	r3!, {r0, r1}
10001ac6:	c203      	stmia	r2!, {r0, r1}
10001ac8:	003b      	movs	r3, r7
10001aca:	af98      	add	r7, sp, #608	@ 0x260
10001acc:	3344      	adds	r3, #68	@ 0x44
10001ace:	cb13      	ldmia	r3!, {r0, r1, r4}
10001ad0:	c713      	stmia	r7!, {r0, r1, r4}
10001ad2:	681b      	ldr	r3, [r3, #0]
10001ad4:	20d7      	movs	r0, #215	@ 0xd7
10001ad6:	603b      	str	r3, [r7, #0]
10001ad8:	ab3a      	add	r3, sp, #232	@ 0xe8
10001ada:	469c      	mov	ip, r3
10001adc:	0031      	movs	r1, r6
10001ade:	00c0      	lsls	r0, r0, #3
10001ae0:	2260      	movs	r2, #96	@ 0x60
10001ae2:	317c      	adds	r1, #124	@ 0x7c
10001ae4:	4460      	add	r0, ip
10001ae6:	f003 ffdb 	bl	10005aa0 <__wrap___aeabi_memcpy>
10001aea:	991f      	ldr	r1, [sp, #124]	@ 0x7c
10001aec:	aec8      	add	r6, sp, #800	@ 0x320
10001aee:	315c      	adds	r1, #92	@ 0x5c
10001af0:	000b      	movs	r3, r1
10001af2:	cb13      	ldmia	r3!, {r0, r1, r4}
10001af4:	c613      	stmia	r6!, {r0, r1, r4}
10001af6:	0032      	movs	r2, r6
10001af8:	cb03      	ldmia	r3!, {r0, r1}
10001afa:	c203      	stmia	r2!, {r0, r1}
10001afc:	4650      	mov	r0, sl
10001afe:	2303      	movs	r3, #3
10001b00:	2402      	movs	r4, #2
10001b02:	6143      	str	r3, [r0, #20]
10001b04:	21d7      	movs	r1, #215	@ 0xd7
10001b06:	ab3a      	add	r3, sp, #232	@ 0xe8
10001b08:	469c      	mov	ip, r3
10001b0a:	6184      	str	r4, [r0, #24]
10001b0c:	465c      	mov	r4, fp
10001b0e:	00c9      	lsls	r1, r1, #3
10001b10:	4461      	add	r1, ip
10001b12:	7405      	strb	r5, [r0, #16]
10001b14:	6084      	str	r4, [r0, #8]
10001b16:	6044      	str	r4, [r0, #4]
10001b18:	9106      	str	r1, [sp, #24]
10001b1a:	21b7      	movs	r1, #183	@ 0xb7
10001b1c:	9009      	str	r0, [sp, #36]	@ 0x24
10001b1e:	a8e8      	add	r0, sp, #928	@ 0x3a0
10001b20:	9008      	str	r0, [sp, #32]
10001b22:	9811      	ldr	r0, [sp, #68]	@ 0x44
10001b24:	00c9      	lsls	r1, r1, #3
10001b26:	9007      	str	r0, [sp, #28]
10001b28:	a8c8      	add	r0, sp, #800	@ 0x320
10001b2a:	9005      	str	r0, [sp, #20]
10001b2c:	a8a8      	add	r0, sp, #672	@ 0x2a0
10001b2e:	9004      	str	r0, [sp, #16]
10001b30:	a898      	add	r0, sp, #608	@ 0x260
10001b32:	4461      	add	r1, ip
10001b34:	9003      	str	r0, [sp, #12]
10001b36:	a8c0      	add	r0, sp, #768	@ 0x300
10001b38:	9002      	str	r0, [sp, #8]
10001b3a:	9100      	str	r1, [sp, #0]
10001b3c:	a8a0      	add	r0, sp, #640	@ 0x280
10001b3e:	4999      	ldr	r1, [pc, #612]	@ (10001da4 <main+0xd18>)
10001b40:	9001      	str	r0, [sp, #4]
10001b42:	a8b8      	add	r0, sp, #736	@ 0x2e0
10001b44:	0003      	movs	r3, r0
10001b46:	464a      	mov	r2, r9
10001b48:	4461      	add	r1, ip
10001b4a:	a8b0      	add	r0, sp, #704	@ 0x2c0
10001b4c:	950a      	str	r5, [sp, #40]	@ 0x28
10001b4e:	f7ff f8b3 	bl	10000cb8 <_ZN6tflite7testing12_GLOBAL__N_136TestDepthwiseConvQuantizedPerChannelIalEEvPiPKfPT_fiS3_S5_PaS3_S5_PT0_S3_S5_S7_S7_fiP25TfLiteDepthwiseConvParams10TfLiteType.constprop.0>
10001b52:	9b10      	ldr	r3, [sp, #64]	@ 0x40
10001b54:	9a0d      	ldr	r2, [sp, #52]	@ 0x34
10001b56:	701c      	strb	r4, [r3, #0]
10001b58:	7813      	ldrb	r3, [r2, #0]
10001b5a:	2b00      	cmp	r3, #0
10001b5c:	d001      	beq.n	10001b62 <main+0xad6>
10001b5e:	f001 fc82 	bl	10003466 <main+0x23da>
10001b62:	2200      	movs	r2, #0
10001b64:	990c      	ldr	r1, [sp, #48]	@ 0x30
10001b66:	680b      	ldr	r3, [r1, #0]
10001b68:	3301      	adds	r3, #1
10001b6a:	2600      	movs	r6, #0
10001b6c:	990c      	ldr	r1, [sp, #48]	@ 0x30
10001b6e:	982e      	ldr	r0, [sp, #184]	@ 0xb8
10001b70:	600b      	str	r3, [r1, #0]
10001b72:	9914      	ldr	r1, [sp, #80]	@ 0x50
10001b74:	adc0      	add	r5, sp, #768	@ 0x300
10001b76:	680b      	ldr	r3, [r1, #0]
10001b78:	afc8      	add	r7, sp, #800	@ 0x320
10001b7a:	189b      	adds	r3, r3, r2
10001b7c:	600b      	str	r3, [r1, #0]
10001b7e:	f008 f995 	bl	10009eac <_Z11MicroPrintfPKcz>
10001b82:	991f      	ldr	r1, [sp, #124]	@ 0x7c
10001b84:	9b10      	ldr	r3, [sp, #64]	@ 0x40
10001b86:	3170      	adds	r1, #112	@ 0x70
10001b88:	701e      	strb	r6, [r3, #0]
10001b8a:	000b      	movs	r3, r1
10001b8c:	9a0d      	ldr	r2, [sp, #52]	@ 0x34
10001b8e:	7016      	strb	r6, [r2, #0]
10001b90:	cb13      	ldmia	r3!, {r0, r1, r4}
10001b92:	c513      	stmia	r5!, {r0, r1, r4}
10001b94:	002a      	movs	r2, r5
10001b96:	cb03      	ldmia	r3!, {r0, r1}
10001b98:	c203      	stmia	r2!, {r0, r1}
10001b9a:	a93a      	add	r1, sp, #232	@ 0xe8
10001b9c:	22d7      	movs	r2, #215	@ 0xd7
10001b9e:	468c      	mov	ip, r1
10001ba0:	9d25      	ldr	r5, [sp, #148]	@ 0x94
10001ba2:	00d2      	lsls	r2, r2, #3
10001ba4:	4462      	add	r2, ip
10001ba6:	1d2b      	adds	r3, r5, #4
10001ba8:	cb13      	ldmia	r3!, {r0, r1, r4}
10001baa:	c213      	stmia	r2!, {r0, r1, r4}
10001bac:	cb13      	ldmia	r3!, {r0, r1, r4}
10001bae:	c213      	stmia	r2!, {r0, r1, r4}
10001bb0:	cb13      	ldmia	r3!, {r0, r1, r4}
10001bb2:	c213      	stmia	r2!, {r0, r1, r4}
10001bb4:	cb13      	ldmia	r3!, {r0, r1, r4}
10001bb6:	c213      	stmia	r2!, {r0, r1, r4}
10001bb8:	9915      	ldr	r1, [sp, #84]	@ 0x54
10001bba:	315c      	adds	r1, #92	@ 0x5c
10001bbc:	000b      	movs	r3, r1
10001bbe:	cb13      	ldmia	r3!, {r0, r1, r4}
10001bc0:	c713      	stmia	r7!, {r0, r1, r4}
10001bc2:	003a      	movs	r2, r7
10001bc4:	cb03      	ldmia	r3!, {r0, r1}
10001bc6:	c203      	stmia	r2!, {r0, r1}
10001bc8:	0029      	movs	r1, r5
10001bca:	4876      	ldr	r0, [pc, #472]	@ (10001da4 <main+0xd18>)
10001bcc:	2240      	movs	r2, #64	@ 0x40
10001bce:	3134      	adds	r1, #52	@ 0x34
10001bd0:	4460      	add	r0, ip
10001bd2:	f003 ff65 	bl	10005aa0 <__wrap___aeabi_memcpy>
10001bd6:	9916      	ldr	r1, [sp, #88]	@ 0x58
10001bd8:	afe8      	add	r7, sp, #928	@ 0x3a0
10001bda:	3130      	adds	r1, #48	@ 0x30
10001bdc:	000b      	movs	r3, r1
10001bde:	cb13      	ldmia	r3!, {r0, r1, r4}
10001be0:	c713      	stmia	r7!, {r0, r1, r4}
10001be2:	003a      	movs	r2, r7
10001be4:	3574      	adds	r5, #116	@ 0x74
10001be6:	cb03      	ldmia	r3!, {r0, r1}
10001be8:	c203      	stmia	r2!, {r0, r1}
10001bea:	002b      	movs	r3, r5
10001bec:	ada8      	add	r5, sp, #672	@ 0x2a0
10001bee:	cb13      	ldmia	r3!, {r0, r1, r4}
10001bf0:	c513      	stmia	r5!, {r0, r1, r4}
10001bf2:	681b      	ldr	r3, [r3, #0]
10001bf4:	602b      	str	r3, [r5, #0]
10001bf6:	9d11      	ldr	r5, [sp, #68]	@ 0x44
10001bf8:	9f1b      	ldr	r7, [sp, #108]	@ 0x6c
10001bfa:	002a      	movs	r2, r5
10001bfc:	1d3b      	adds	r3, r7, #4
10001bfe:	cb13      	ldmia	r3!, {r0, r1, r4}
10001c00:	c213      	stmia	r2!, {r0, r1, r4}
10001c02:	cb03      	ldmia	r3!, {r0, r1}
10001c04:	c203      	stmia	r2!, {r0, r1}
10001c06:	003b      	movs	r3, r7
10001c08:	464f      	mov	r7, r9
10001c0a:	3318      	adds	r3, #24
10001c0c:	cb13      	ldmia	r3!, {r0, r1, r4}
10001c0e:	c713      	stmia	r7!, {r0, r1, r4}
10001c10:	003a      	movs	r2, r7
10001c12:	cb13      	ldmia	r3!, {r0, r1, r4}
10001c14:	c213      	stmia	r2!, {r0, r1, r4}
10001c16:	465c      	mov	r4, fp
10001c18:	cb03      	ldmia	r3!, {r0, r1}
10001c1a:	c203      	stmia	r2!, {r0, r1}
10001c1c:	4650      	mov	r0, sl
10001c1e:	ab3a      	add	r3, sp, #232	@ 0xe8
10001c20:	469c      	mov	ip, r3
10001c22:	7406      	strb	r6, [r0, #16]
10001c24:	6144      	str	r4, [r0, #20]
10001c26:	6184      	str	r4, [r0, #24]
10001c28:	6084      	str	r4, [r0, #8]
10001c2a:	6044      	str	r4, [r0, #4]
10001c2c:	9009      	str	r0, [sp, #36]	@ 0x24
10001c2e:	a898      	add	r0, sp, #608	@ 0x260
10001c30:	9008      	str	r0, [sp, #32]
10001c32:	a891      	add	r0, sp, #580	@ 0x244
10001c34:	9007      	str	r0, [sp, #28]
10001c36:	4648      	mov	r0, r9
10001c38:	495a      	ldr	r1, [pc, #360]	@ (10001da4 <main+0xd18>)
10001c3a:	9006      	str	r0, [sp, #24]
10001c3c:	4461      	add	r1, ip
10001c3e:	9100      	str	r1, [sp, #0]
10001c40:	21d7      	movs	r1, #215	@ 0xd7
10001c42:	a8b8      	add	r0, sp, #736	@ 0x2e0
10001c44:	9004      	str	r0, [sp, #16]
10001c46:	a8a8      	add	r0, sp, #672	@ 0x2a0
10001c48:	9003      	str	r0, [sp, #12]
10001c4a:	a8e8      	add	r0, sp, #928	@ 0x3a0
10001c4c:	9002      	str	r0, [sp, #8]
10001c4e:	a8b0      	add	r0, sp, #704	@ 0x2c0
10001c50:	9001      	str	r0, [sp, #4]
10001c52:	a8c8      	add	r0, sp, #800	@ 0x320
10001c54:	0003      	movs	r3, r0
10001c56:	00c9      	lsls	r1, r1, #3
10001c58:	a8a0      	add	r0, sp, #640	@ 0x280
10001c5a:	0002      	movs	r2, r0
10001c5c:	4461      	add	r1, ip
10001c5e:	a8c0      	add	r0, sp, #768	@ 0x300
10001c60:	960a      	str	r6, [sp, #40]	@ 0x28
10001c62:	9505      	str	r5, [sp, #20]
10001c64:	f7ff f828 	bl	10000cb8 <_ZN6tflite7testing12_GLOBAL__N_136TestDepthwiseConvQuantizedPerChannelIalEEvPiPKfPT_fiS3_S5_PaS3_S5_PT0_S3_S5_S7_S7_fiP25TfLiteDepthwiseConvParams10TfLiteType.constprop.0>
10001c68:	ab3a      	add	r3, sp, #232	@ 0xe8
10001c6a:	21b7      	movs	r1, #183	@ 0xb7
10001c6c:	469c      	mov	ip, r3
10001c6e:	4650      	mov	r0, sl
10001c70:	00c9      	lsls	r1, r1, #3
10001c72:	4461      	add	r1, ip
10001c74:	9105      	str	r1, [sp, #20]
10001c76:	494b      	ldr	r1, [pc, #300]	@ (10001da4 <main+0xd18>)
10001c78:	9004      	str	r0, [sp, #16]
10001c7a:	4648      	mov	r0, r9
10001c7c:	4461      	add	r1, ip
10001c7e:	000b      	movs	r3, r1
10001c80:	21d7      	movs	r1, #215	@ 0xd7
10001c82:	9002      	str	r0, [sp, #8]
10001c84:	a8a8      	add	r0, sp, #672	@ 0x2a0
10001c86:	9001      	str	r0, [sp, #4]
10001c88:	a8e8      	add	r0, sp, #928	@ 0x3a0
10001c8a:	9000      	str	r0, [sp, #0]
10001c8c:	00c9      	lsls	r1, r1, #3
10001c8e:	a8c8      	add	r0, sp, #800	@ 0x320
10001c90:	0002      	movs	r2, r0
10001c92:	9503      	str	r5, [sp, #12]
10001c94:	4461      	add	r1, ip
10001c96:	a8c0      	add	r0, sp, #768	@ 0x300
10001c98:	f7fe fee6 	bl	10000a68 <_ZN6tflite7testing12_GLOBAL__N_122TestDepthwiseConvFloatEPiPKfS2_S4_S2_S4_S4_S2_P25TfLiteDepthwiseConvParamsPf>
10001c9c:	9b10      	ldr	r3, [sp, #64]	@ 0x40
10001c9e:	9a0d      	ldr	r2, [sp, #52]	@ 0x34
10001ca0:	701c      	strb	r4, [r3, #0]
10001ca2:	7813      	ldrb	r3, [r2, #0]
10001ca4:	2b00      	cmp	r3, #0
10001ca6:	d001      	beq.n	10001cac <main+0xc20>
10001ca8:	f001 fbd8 	bl	1000345c <main+0x23d0>
10001cac:	2200      	movs	r2, #0
10001cae:	990c      	ldr	r1, [sp, #48]	@ 0x30
10001cb0:	680b      	ldr	r3, [r1, #0]
10001cb2:	3301      	adds	r3, #1
10001cb4:	990c      	ldr	r1, [sp, #48]	@ 0x30
10001cb6:	982f      	ldr	r0, [sp, #188]	@ 0xbc
10001cb8:	600b      	str	r3, [r1, #0]
10001cba:	9914      	ldr	r1, [sp, #80]	@ 0x50
10001cbc:	680b      	ldr	r3, [r1, #0]
10001cbe:	189b      	adds	r3, r3, r2
10001cc0:	600b      	str	r3, [r1, #0]
10001cc2:	f008 f8f3 	bl	10009eac <_Z11MicroPrintfPKcz>
10001cc6:	2300      	movs	r3, #0
10001cc8:	9a10      	ldr	r2, [sp, #64]	@ 0x40
10001cca:	9d15      	ldr	r5, [sp, #84]	@ 0x54
10001ccc:	7013      	strb	r3, [r2, #0]
10001cce:	9a0d      	ldr	r2, [sp, #52]	@ 0x34
10001cd0:	7013      	strb	r3, [r2, #0]
10001cd2:	002b      	movs	r3, r5
10001cd4:	aaa0      	add	r2, sp, #640	@ 0x280
10001cd6:	3318      	adds	r3, #24
10001cd8:	cb13      	ldmia	r3!, {r0, r1, r4}
10001cda:	c213      	stmia	r2!, {r0, r1, r4}
10001cdc:	cb03      	ldmia	r3!, {r0, r1}
10001cde:	c203      	stmia	r2!, {r0, r1}
10001ce0:	a93a      	add	r1, sp, #232	@ 0xe8
10001ce2:	22b7      	movs	r2, #183	@ 0xb7
10001ce4:	468c      	mov	ip, r1
10001ce6:	002b      	movs	r3, r5
10001ce8:	00d2      	lsls	r2, r2, #3
10001cea:	4462      	add	r2, ip
10001cec:	332c      	adds	r3, #44	@ 0x2c
10001cee:	cb13      	ldmia	r3!, {r0, r1, r4}
10001cf0:	c213      	stmia	r2!, {r0, r1, r4}
10001cf2:	cb13      	ldmia	r3!, {r0, r1, r4}
10001cf4:	c213      	stmia	r2!, {r0, r1, r4}
10001cf6:	cb13      	ldmia	r3!, {r0, r1, r4}
10001cf8:	c213      	stmia	r2!, {r0, r1, r4}
10001cfa:	cb13      	ldmia	r3!, {r0, r1, r4}
10001cfc:	c213      	stmia	r2!, {r0, r1, r4}
10001cfe:	002b      	movs	r3, r5
10001d00:	aaa8      	add	r2, sp, #672	@ 0x2a0
10001d02:	335c      	adds	r3, #92	@ 0x5c
10001d04:	cb13      	ldmia	r3!, {r0, r1, r4}
10001d06:	c213      	stmia	r2!, {r0, r1, r4}
10001d08:	cb03      	ldmia	r3!, {r0, r1}
10001d0a:	c203      	stmia	r2!, {r0, r1}
10001d0c:	23d7      	movs	r3, #215	@ 0xd7
10001d0e:	00db      	lsls	r3, r3, #3
10001d10:	4463      	add	r3, ip
10001d12:	3570      	adds	r5, #112	@ 0x70
10001d14:	0029      	movs	r1, r5
10001d16:	2240      	movs	r2, #64	@ 0x40
10001d18:	0018      	movs	r0, r3
10001d1a:	f003 fec1 	bl	10005aa0 <__wrap___aeabi_memcpy>
10001d1e:	9d16      	ldr	r5, [sp, #88]	@ 0x58
10001d20:	aab0      	add	r2, sp, #704	@ 0x2c0
10001d22:	002b      	movs	r3, r5
10001d24:	3330      	adds	r3, #48	@ 0x30
10001d26:	cb13      	ldmia	r3!, {r0, r1, r4}
10001d28:	c213      	stmia	r2!, {r0, r1, r4}
10001d2a:	cb03      	ldmia	r3!, {r0, r1}
10001d2c:	c203      	stmia	r2!, {r0, r1}
10001d2e:	002b      	movs	r3, r5
10001d30:	aa8a      	add	r2, sp, #552	@ 0x228
10001d32:	3344      	adds	r3, #68	@ 0x44
10001d34:	cb13      	ldmia	r3!, {r0, r1, r4}
10001d36:	c213      	stmia	r2!, {r0, r1, r4}
10001d38:	681b      	ldr	r3, [r3, #0]
10001d3a:	6013      	str	r3, [r2, #0]
10001d3c:	002b      	movs	r3, r5
10001d3e:	aac8      	add	r2, sp, #800	@ 0x320
10001d40:	3354      	adds	r3, #84	@ 0x54
10001d42:	cb13      	ldmia	r3!, {r0, r1, r4}
10001d44:	c213      	stmia	r2!, {r0, r1, r4}
10001d46:	cb13      	ldmia	r3!, {r0, r1, r4}
10001d48:	c213      	stmia	r2!, {r0, r1, r4}
10001d4a:	cb03      	ldmia	r3!, {r0, r1}
10001d4c:	c203      	stmia	r2!, {r0, r1}
10001d4e:	002b      	movs	r3, r5
10001d50:	aab8      	add	r2, sp, #736	@ 0x2e0
10001d52:	3374      	adds	r3, #116	@ 0x74
10001d54:	cb13      	ldmia	r3!, {r0, r1, r4}
10001d56:	c213      	stmia	r2!, {r0, r1, r4}
10001d58:	cb03      	ldmia	r3!, {r0, r1}
10001d5a:	c203      	stmia	r2!, {r0, r1}
10001d5c:	a8a0      	add	r0, sp, #640	@ 0x280
10001d5e:	f008 f9ef 	bl	1000a140 <_ZN6tflite7testing16IntArrayFromIntsEPKi>
10001d62:	4680      	mov	r8, r0
10001d64:	a8a8      	add	r0, sp, #672	@ 0x2a0
10001d66:	f008 f9eb 	bl	1000a140 <_ZN6tflite7testing16IntArrayFromIntsEPKi>
10001d6a:	900e      	str	r0, [sp, #56]	@ 0x38
10001d6c:	a8b0      	add	r0, sp, #704	@ 0x2c0
10001d6e:	f008 f9e7 	bl	1000a140 <_ZN6tflite7testing16IntArrayFromIntsEPKi>
10001d72:	9012      	str	r0, [sp, #72]	@ 0x48
10001d74:	a8b8      	add	r0, sp, #736	@ 0x2e0
10001d76:	f008 f9e3 	bl	1000a140 <_ZN6tflite7testing16IntArrayFromIntsEPKi>
10001d7a:	9013      	str	r0, [sp, #76]	@ 0x4c
10001d7c:	4640      	mov	r0, r8
10001d7e:	f008 f8a7 	bl	10009ed0 <_ZN6tflite12ElementCountERK14TfLiteIntArray>
10001d82:	2800      	cmp	r0, #0
10001d84:	dd2d      	ble.n	10001de2 <main+0xd56>
10001d86:	23b7      	movs	r3, #183	@ 0xb7
10001d88:	aa3a      	add	r2, sp, #232	@ 0xe8
10001d8a:	4694      	mov	ip, r2
10001d8c:	00db      	lsls	r3, r3, #3
10001d8e:	4463      	add	r3, ip
10001d90:	469c      	mov	ip, r3
10001d92:	0086      	lsls	r6, r0, #2
10001d94:	001c      	movs	r4, r3
10001d96:	ad70      	add	r5, sp, #448	@ 0x1c0
10001d98:	4466      	add	r6, ip
10001d9a:	e00b      	b.n	10001db4 <main+0xd28>
10001d9c:	3cc0bfe4 	.word	0x3cc0bfe4
10001da0:	40600000 	.word	0x40600000
10001da4:	000008b8 	.word	0x000008b8
10001da8:	207f      	movs	r0, #127	@ 0x7f
10001daa:	3404      	adds	r4, #4
10001dac:	7028      	strb	r0, [r5, #0]
10001dae:	3501      	adds	r5, #1
10001db0:	42a6      	cmp	r6, r4
10001db2:	d016      	beq.n	10001de2 <main+0xd56>
10001db4:	6820      	ldr	r0, [r4, #0]
10001db6:	f003 fdb5 	bl	10005924 <__wrap___aeabi_f2d>
10001dba:	f003 f99d 	bl	100050f8 <__wrap_round>
10001dbe:	2200      	movs	r2, #0
10001dc0:	2300      	movs	r3, #0
10001dc2:	f003 f83d 	bl	10004e40 <__wrap___aeabi_dadd>
10001dc6:	f003 f8e9 	bl	10004f9c <__wrap___aeabi_d2iz>
10001dca:	287f      	cmp	r0, #127	@ 0x7f
10001dcc:	dcec      	bgt.n	10001da8 <main+0xd1c>
10001dce:	0003      	movs	r3, r0
10001dd0:	3380      	adds	r3, #128	@ 0x80
10001dd2:	daea      	bge.n	10001daa <main+0xd1e>
10001dd4:	2080      	movs	r0, #128	@ 0x80
10001dd6:	3404      	adds	r4, #4
10001dd8:	4240      	negs	r0, r0
10001dda:	7028      	strb	r0, [r5, #0]
10001ddc:	3501      	adds	r5, #1
10001dde:	42a6      	cmp	r6, r4
10001de0:	d1e8      	bne.n	10001db4 <main+0xd28>
10001de2:	2500      	movs	r5, #0
10001de4:	4640      	mov	r0, r8
10001de6:	95eb      	str	r5, [sp, #940]	@ 0x3ac
10001de8:	f008 f872 	bl	10009ed0 <_ZN6tflite12ElementCountERK14TfLiteIntArray>
10001dec:	0004      	movs	r4, r0
10001dee:	2009      	movs	r0, #9
10001df0:	f006 ff1e 	bl	10008c30 <_ZN6tflite17TfLiteTypeGetSizeE10TfLiteType>
10001df4:	465b      	mov	r3, fp
10001df6:	9353      	str	r3, [sp, #332]	@ 0x14c
10001df8:	23fe      	movs	r3, #254	@ 0xfe
10001dfa:	4360      	muls	r0, r4
10001dfc:	059b      	lsls	r3, r3, #22
10001dfe:	220c      	movs	r2, #12
10001e00:	2100      	movs	r1, #0
10001e02:	9017      	str	r0, [sp, #92]	@ 0x5c
10001e04:	a875      	add	r0, sp, #468	@ 0x1d4
10001e06:	9356      	str	r3, [sp, #344]	@ 0x158
10001e08:	9357      	str	r3, [sp, #348]	@ 0x15c
10001e0a:	9554      	str	r5, [sp, #336]	@ 0x150
10001e0c:	f003 fe42 	bl	10005a94 <__wrap_memset>
10001e10:	a856      	add	r0, sp, #344	@ 0x158
10001e12:	f008 f997 	bl	1000a144 <_ZN6tflite7testing20FloatArrayFromFloatsEPKf>
10001e16:	9075      	str	r0, [sp, #468]	@ 0x1d4
10001e18:	a853      	add	r0, sp, #332	@ 0x14c
10001e1a:	f008 f991 	bl	1000a140 <_ZN6tflite7testing16IntArrayFromIntsEPKi>
10001e1e:	9076      	str	r0, [sp, #472]	@ 0x1d8
10001e20:	980e      	ldr	r0, [sp, #56]	@ 0x38
10001e22:	f008 f855 	bl	10009ed0 <_ZN6tflite12ElementCountERK14TfLiteIntArray>
10001e26:	2800      	cmp	r0, #0
10001e28:	dd27      	ble.n	10001e7a <main+0xdee>
10001e2a:	23d7      	movs	r3, #215	@ 0xd7
10001e2c:	aa3a      	add	r2, sp, #232	@ 0xe8
10001e2e:	4694      	mov	ip, r2
10001e30:	00db      	lsls	r3, r3, #3
10001e32:	4463      	add	r3, ip
10001e34:	469c      	mov	ip, r3
10001e36:	0086      	lsls	r6, r0, #2
10001e38:	001c      	movs	r4, r3
10001e3a:	ad91      	add	r5, sp, #580	@ 0x244
10001e3c:	4466      	add	r6, ip
10001e3e:	e005      	b.n	10001e4c <main+0xdc0>
10001e40:	207f      	movs	r0, #127	@ 0x7f
10001e42:	3404      	adds	r4, #4
10001e44:	7028      	strb	r0, [r5, #0]
10001e46:	3501      	adds	r5, #1
10001e48:	42a6      	cmp	r6, r4
10001e4a:	d016      	beq.n	10001e7a <main+0xdee>
10001e4c:	6820      	ldr	r0, [r4, #0]
10001e4e:	f003 fd69 	bl	10005924 <__wrap___aeabi_f2d>
10001e52:	f003 f951 	bl	100050f8 <__wrap_round>
10001e56:	2200      	movs	r2, #0
10001e58:	2300      	movs	r3, #0
10001e5a:	f002 fff1 	bl	10004e40 <__wrap___aeabi_dadd>
10001e5e:	f003 f89d 	bl	10004f9c <__wrap___aeabi_d2iz>
10001e62:	287f      	cmp	r0, #127	@ 0x7f
10001e64:	dcec      	bgt.n	10001e40 <main+0xdb4>
10001e66:	0003      	movs	r3, r0
10001e68:	3380      	adds	r3, #128	@ 0x80
10001e6a:	daea      	bge.n	10001e42 <main+0xdb6>
10001e6c:	2080      	movs	r0, #128	@ 0x80
10001e6e:	3404      	adds	r4, #4
10001e70:	4240      	negs	r0, r0
10001e72:	7028      	strb	r0, [r5, #0]
10001e74:	3501      	adds	r5, #1
10001e76:	42a6      	cmp	r6, r4
10001e78:	d1e8      	bne.n	10001e4c <main+0xdc0>
10001e7a:	2600      	movs	r6, #0
10001e7c:	9a11      	ldr	r2, [sp, #68]	@ 0x44
10001e7e:	980e      	ldr	r0, [sp, #56]	@ 0x38
10001e80:	60d6      	str	r6, [r2, #12]
10001e82:	f008 f825 	bl	10009ed0 <_ZN6tflite12ElementCountERK14TfLiteIntArray>
10001e86:	9018      	str	r0, [sp, #96]	@ 0x60
10001e88:	2009      	movs	r0, #9
10001e8a:	f006 fed1 	bl	10008c30 <_ZN6tflite17TfLiteTypeGetSizeE10TfLiteType>
10001e8e:	465b      	mov	r3, fp
10001e90:	9359      	str	r3, [sp, #356]	@ 0x164
10001e92:	23fe      	movs	r3, #254	@ 0xfe
10001e94:	ac7a      	add	r4, sp, #488	@ 0x1e8
10001e96:	059b      	lsls	r3, r3, #22
10001e98:	220c      	movs	r2, #12
10001e9a:	0005      	movs	r5, r0
10001e9c:	2100      	movs	r1, #0
10001e9e:	0020      	movs	r0, r4
10001ea0:	935c      	str	r3, [sp, #368]	@ 0x170
10001ea2:	935d      	str	r3, [sp, #372]	@ 0x174
10001ea4:	965a      	str	r6, [sp, #360]	@ 0x168
10001ea6:	f003 fdf5 	bl	10005a94 <__wrap_memset>
10001eaa:	a95c      	add	r1, sp, #368	@ 0x170
10001eac:	0008      	movs	r0, r1
10001eae:	f008 f949 	bl	1000a144 <_ZN6tflite7testing20FloatArrayFromFloatsEPKf>
10001eb2:	a959      	add	r1, sp, #356	@ 0x164
10001eb4:	907a      	str	r0, [sp, #488]	@ 0x1e8
10001eb6:	0008      	movs	r0, r1
10001eb8:	f008 f942 	bl	1000a140 <_ZN6tflite7testing16IntArrayFromIntsEPKi>
10001ebc:	4659      	mov	r1, fp
10001ebe:	2303      	movs	r3, #3
10001ec0:	9198      	str	r1, [sp, #608]	@ 0x260
10001ec2:	2102      	movs	r1, #2
10001ec4:	acff      	add	r4, sp, #1020	@ 0x3fc
10001ec6:	34ac      	adds	r4, #172	@ 0xac
10001ec8:	2208      	movs	r2, #8
10001eca:	907b      	str	r0, [sp, #492]	@ 0x1ec
10001ecc:	9199      	str	r1, [sp, #612]	@ 0x264
10001ece:	0020      	movs	r0, r4
10001ed0:	2100      	movs	r1, #0
10001ed2:	939a      	str	r3, [sp, #616]	@ 0x268
10001ed4:	3301      	adds	r3, #1
10001ed6:	939b      	str	r3, [sp, #620]	@ 0x26c
10001ed8:	f003 fddc 	bl	10005a94 <__wrap_memset>
10001edc:	9812      	ldr	r0, [sp, #72]	@ 0x48
10001ede:	f007 fff7 	bl	10009ed0 <_ZN6tflite12ElementCountERK14TfLiteIntArray>
10001ee2:	0007      	movs	r7, r0
10001ee4:	2002      	movs	r0, #2
10001ee6:	f006 fea3 	bl	10008c30 <_ZN6tflite17TfLiteTypeGetSizeE10TfLiteType>
10001eea:	4659      	mov	r1, fp
10001eec:	23fe      	movs	r3, #254	@ 0xfe
10001eee:	220c      	movs	r2, #12
10001ef0:	059b      	lsls	r3, r3, #22
10001ef2:	0004      	movs	r4, r0
10001ef4:	9160      	str	r1, [sp, #384]	@ 0x180
10001ef6:	a87f      	add	r0, sp, #508	@ 0x1fc
10001ef8:	2100      	movs	r1, #0
10001efa:	9364      	str	r3, [sp, #400]	@ 0x190
10001efc:	9365      	str	r3, [sp, #404]	@ 0x194
10001efe:	9661      	str	r6, [sp, #388]	@ 0x184
10001f00:	f003 fdc8 	bl	10005a94 <__wrap_memset>
10001f04:	a964      	add	r1, sp, #400	@ 0x190
10001f06:	0008      	movs	r0, r1
10001f08:	f008 f91c 	bl	1000a144 <_ZN6tflite7testing20FloatArrayFromFloatsEPKf>
10001f0c:	a960      	add	r1, sp, #384	@ 0x180
10001f0e:	907f      	str	r0, [sp, #508]	@ 0x1fc
10001f10:	0008      	movs	r0, r1
10001f12:	f008 f915 	bl	1000a140 <_ZN6tflite7testing16IntArrayFromIntsEPKi>
10001f16:	4649      	mov	r1, r9
10001f18:	9080      	str	r0, [sp, #512]	@ 0x200
10001f1a:	60ce      	str	r6, [r1, #12]
10001f1c:	9813      	ldr	r0, [sp, #76]	@ 0x4c
10001f1e:	f007 ffd7 	bl	10009ed0 <_ZN6tflite12ElementCountERK14TfLiteIntArray>
10001f22:	9019      	str	r0, [sp, #100]	@ 0x64
10001f24:	2009      	movs	r0, #9
10001f26:	f006 fe83 	bl	10008c30 <_ZN6tflite17TfLiteTypeGetSizeE10TfLiteType>
10001f2a:	4659      	mov	r1, fp
10001f2c:	9168      	str	r1, [sp, #416]	@ 0x1a0
10001f2e:	21fe      	movs	r1, #254	@ 0xfe
10001f30:	ab84      	add	r3, sp, #528	@ 0x210
10001f32:	0589      	lsls	r1, r1, #22
10001f34:	220c      	movs	r2, #12
10001f36:	901a      	str	r0, [sp, #104]	@ 0x68
10001f38:	9669      	str	r6, [sp, #420]	@ 0x1a4
10001f3a:	0018      	movs	r0, r3
10001f3c:	1c0e      	adds	r6, r1, #0
10001f3e:	916c      	str	r1, [sp, #432]	@ 0x1b0
10001f40:	916d      	str	r1, [sp, #436]	@ 0x1b4
10001f42:	2100      	movs	r1, #0
10001f44:	f003 fda6 	bl	10005a94 <__wrap_memset>
10001f48:	a96c      	add	r1, sp, #432	@ 0x1b0
10001f4a:	0008      	movs	r0, r1
10001f4c:	f008 f8fa 	bl	1000a144 <_ZN6tflite7testing20FloatArrayFromFloatsEPKf>
10001f50:	a968      	add	r1, sp, #416	@ 0x1a0
10001f52:	9084      	str	r0, [sp, #528]	@ 0x210
10001f54:	0008      	movs	r0, r1
10001f56:	f008 f8f3 	bl	1000a140 <_ZN6tflite7testing16IntArrayFromIntsEPKi>
10001f5a:	96ea      	str	r6, [sp, #936]	@ 0x3a8
10001f5c:	4659      	mov	r1, fp
10001f5e:	ae70      	add	r6, sp, #448	@ 0x1c0
10001f60:	96ec      	str	r6, [sp, #944]	@ 0x3b0
10001f62:	4646      	mov	r6, r8
10001f64:	91e8      	str	r1, [sp, #928]	@ 0x3a0
10001f66:	a975      	add	r1, sp, #468	@ 0x1d4
10001f68:	91e9      	str	r1, [sp, #932]	@ 0x3a4
10001f6a:	96ed      	str	r6, [sp, #948]	@ 0x3b4
10001f6c:	21b5      	movs	r1, #181	@ 0xb5
10001f6e:	9e17      	ldr	r6, [sp, #92]	@ 0x5c
10001f70:	0089      	lsls	r1, r1, #2
10001f72:	96ee      	str	r6, [sp, #952]	@ 0x3b8
10001f74:	2609      	movs	r6, #9
10001f76:	ab3a      	add	r3, sp, #232	@ 0xe8
10001f78:	185b      	adds	r3, r3, r1
10001f7a:	497e      	ldr	r1, [pc, #504]	@ (10002174 <main+0x10e8>)
10001f7c:	801e      	strh	r6, [r3, #0]
10001f7e:	ab3a      	add	r3, sp, #232	@ 0xe8
10001f80:	1859      	adds	r1, r3, r1
10001f82:	2300      	movs	r3, #0
10001f84:	9085      	str	r0, [sp, #532]	@ 0x214
10001f86:	a83a      	add	r0, sp, #232	@ 0xe8
10001f88:	4684      	mov	ip, r0
10001f8a:	700b      	strb	r3, [r1, #0]
10001f8c:	4b7a      	ldr	r3, [pc, #488]	@ (10002178 <main+0x10ec>)
10001f8e:	2220      	movs	r2, #32
10001f90:	4463      	add	r3, ip
10001f92:	0018      	movs	r0, r3
10001f94:	a9e8      	add	r1, sp, #928	@ 0x3a0
10001f96:	f003 fd83 	bl	10005aa0 <__wrap___aeabi_memcpy>
10001f9a:	465b      	mov	r3, fp
10001f9c:	aaff      	add	r2, sp, #1020	@ 0x3fc
10001f9e:	6253      	str	r3, [r2, #36]	@ 0x24
10001fa0:	3224      	adds	r2, #36	@ 0x24
10001fa2:	9a11      	ldr	r2, [sp, #68]	@ 0x44
10001fa4:	ab7a      	add	r3, sp, #488	@ 0x1e8
10001fa6:	6053      	str	r3, [r2, #4]
10001fa8:	ab91      	add	r3, sp, #580	@ 0x244
10001faa:	6113      	str	r3, [r2, #16]
10001fac:	9b0e      	ldr	r3, [sp, #56]	@ 0x38
10001fae:	a83a      	add	r0, sp, #232	@ 0xe8
10001fb0:	6153      	str	r3, [r2, #20]
10001fb2:	9b18      	ldr	r3, [sp, #96]	@ 0x60
10001fb4:	4684      	mov	ip, r0
10001fb6:	435d      	muls	r5, r3
10001fb8:	21fe      	movs	r1, #254	@ 0xfe
10001fba:	6195      	str	r5, [r2, #24]
10001fbc:	2500      	movs	r5, #0
10001fbe:	4b6f      	ldr	r3, [pc, #444]	@ (1000217c <main+0x10f0>)
10001fc0:	0589      	lsls	r1, r1, #22
10001fc2:	4463      	add	r3, ip
10001fc4:	6091      	str	r1, [r2, #8]
10001fc6:	7795      	strb	r5, [r2, #30]
10001fc8:	0011      	movs	r1, r2
10001fca:	0018      	movs	r0, r3
10001fcc:	8396      	strh	r6, [r2, #28]
10001fce:	2220      	movs	r2, #32
10001fd0:	f003 fd66 	bl	10005aa0 <__wrap___aeabi_memcpy>
10001fd4:	465a      	mov	r2, fp
10001fd6:	abff      	add	r3, sp, #1020	@ 0x3fc
10001fd8:	33a4      	adds	r3, #164	@ 0xa4
10001fda:	601a      	str	r2, [r3, #0]
10001fdc:	4652      	mov	r2, sl
10001fde:	ab7f      	add	r3, sp, #508	@ 0x1fc
10001fe0:	6053      	str	r3, [r2, #4]
10001fe2:	ab98      	add	r3, sp, #608	@ 0x260
10001fe4:	6113      	str	r3, [r2, #16]
10001fe6:	9b12      	ldr	r3, [sp, #72]	@ 0x48
10001fe8:	a83a      	add	r0, sp, #232	@ 0xe8
10001fea:	6153      	str	r3, [r2, #20]
10001fec:	2302      	movs	r3, #2
10001fee:	4684      	mov	ip, r0
10001ff0:	437c      	muls	r4, r7
10001ff2:	8393      	strh	r3, [r2, #28]
10001ff4:	4b62      	ldr	r3, [pc, #392]	@ (10002180 <main+0x10f4>)
10001ff6:	6194      	str	r4, [r2, #24]
10001ff8:	4463      	add	r3, ip
10001ffa:	7795      	strb	r5, [r2, #30]
10001ffc:	4651      	mov	r1, sl
10001ffe:	2220      	movs	r2, #32
10002000:	0018      	movs	r0, r3
10002002:	f003 fd4d 	bl	10005aa0 <__wrap___aeabi_memcpy>
10002006:	22b4      	movs	r2, #180	@ 0xb4
10002008:	002c      	movs	r4, r5
1000200a:	465d      	mov	r5, fp
1000200c:	00d2      	lsls	r2, r2, #3
1000200e:	446a      	add	r2, sp
10002010:	21fe      	movs	r1, #254	@ 0xfe
10002012:	6015      	str	r5, [r2, #0]
10002014:	464a      	mov	r2, r9
10002016:	0589      	lsls	r1, r1, #22
10002018:	6091      	str	r1, [r2, #8]
1000201a:	a94e      	add	r1, sp, #312	@ 0x138
1000201c:	6111      	str	r1, [r2, #16]
1000201e:	9913      	ldr	r1, [sp, #76]	@ 0x4c
10002020:	ad84      	add	r5, sp, #528	@ 0x210
10002022:	6151      	str	r1, [r2, #20]
10002024:	9b1a      	ldr	r3, [sp, #104]	@ 0x68
10002026:	6055      	str	r5, [r2, #4]
10002028:	9a19      	ldr	r2, [sp, #100]	@ 0x64
1000202a:	a83a      	add	r0, sp, #232	@ 0xe8
1000202c:	4353      	muls	r3, r2
1000202e:	464a      	mov	r2, r9
10002030:	4684      	mov	ip, r0
10002032:	6193      	str	r3, [r2, #24]
10002034:	4b53      	ldr	r3, [pc, #332]	@ (10002184 <main+0x10f8>)
10002036:	4649      	mov	r1, r9
10002038:	4463      	add	r3, ip
1000203a:	0018      	movs	r0, r3
1000203c:	8396      	strh	r6, [r2, #28]
1000203e:	7794      	strb	r4, [r2, #30]
10002040:	2220      	movs	r2, #32
10002042:	f003 fd2d 	bl	10005aa0 <__wrap___aeabi_memcpy>
10002046:	228a      	movs	r2, #138	@ 0x8a
10002048:	4b4f      	ldr	r3, [pc, #316]	@ (10002188 <main+0x10fc>)
1000204a:	0092      	lsls	r2, r2, #2
1000204c:	9350      	str	r3, [sp, #320]	@ 0x140
1000204e:	4b4f      	ldr	r3, [pc, #316]	@ (1000218c <main+0x1100>)
10002050:	a9c0      	add	r1, sp, #768	@ 0x300
10002052:	9351      	str	r3, [sp, #324]	@ 0x144
10002054:	ab3a      	add	r3, sp, #232	@ 0xe8
10002056:	189b      	adds	r3, r3, r2
10002058:	701c      	strb	r4, [r3, #0]
1000205a:	465b      	mov	r3, fp
1000205c:	aa3a      	add	r2, sp, #232	@ 0xe8
1000205e:	4694      	mov	ip, r2
10002060:	93c5      	str	r3, [sp, #788]	@ 0x314
10002062:	93c6      	str	r3, [sp, #792]	@ 0x318
10002064:	93c2      	str	r3, [sp, #776]	@ 0x308
10002066:	93c1      	str	r3, [sp, #772]	@ 0x304
10002068:	4b43      	ldr	r3, [pc, #268]	@ (10002178 <main+0x10ec>)
1000206a:	a850      	add	r0, sp, #320	@ 0x140
1000206c:	4463      	add	r3, ip
1000206e:	001a      	movs	r2, r3
10002070:	f7fe f9c6 	bl	10000400 <_ZN6tflite7testing12_GLOBAL__N_128ValidateDepthwiseConvGoldensIavvEE12TfLiteStatusPKT_iP25TfLiteDepthwiseConvParamsfiP12TfLiteTensor.constprop.1>
10002074:	2800      	cmp	r0, #0
10002076:	d001      	beq.n	1000207c <main+0xff0>
10002078:	f001 faaf 	bl	100035da <main+0x254e>
1000207c:	4659      	mov	r1, fp
1000207e:	9b0d      	ldr	r3, [sp, #52]	@ 0x34
10002080:	781a      	ldrb	r2, [r3, #0]
10002082:	9b10      	ldr	r3, [sp, #64]	@ 0x40
10002084:	7019      	strb	r1, [r3, #0]
10002086:	9b0c      	ldr	r3, [sp, #48]	@ 0x30
10002088:	681b      	ldr	r3, [r3, #0]
1000208a:	2a00      	cmp	r2, #0
1000208c:	d001      	beq.n	10002092 <main+0x1006>
1000208e:	f001 fad3 	bl	10003638 <main+0x25ac>
10002092:	2200      	movs	r2, #0
10002094:	3301      	adds	r3, #1
10002096:	990c      	ldr	r1, [sp, #48]	@ 0x30
10002098:	9830      	ldr	r0, [sp, #192]	@ 0xc0
1000209a:	600b      	str	r3, [r1, #0]
1000209c:	9914      	ldr	r1, [sp, #80]	@ 0x50
1000209e:	680b      	ldr	r3, [r1, #0]
100020a0:	189b      	adds	r3, r3, r2
100020a2:	600b      	str	r3, [r1, #0]
100020a4:	f007 ff02 	bl	10009eac <_Z11MicroPrintfPKcz>
100020a8:	2300      	movs	r3, #0
100020aa:	9a10      	ldr	r2, [sp, #64]	@ 0x40
100020ac:	7013      	strb	r3, [r2, #0]
100020ae:	9a0d      	ldr	r2, [sp, #52]	@ 0x34
100020b0:	7013      	strb	r3, [r2, #0]
100020b2:	9b1f      	ldr	r3, [sp, #124]	@ 0x7c
100020b4:	aa8a      	add	r2, sp, #552	@ 0x228
100020b6:	3370      	adds	r3, #112	@ 0x70
100020b8:	cb13      	ldmia	r3!, {r0, r1, r4}
100020ba:	c213      	stmia	r2!, {r0, r1, r4}
100020bc:	cb03      	ldmia	r3!, {r0, r1}
100020be:	c203      	stmia	r2!, {r0, r1}
100020c0:	a93a      	add	r1, sp, #232	@ 0xe8
100020c2:	22b7      	movs	r2, #183	@ 0xb7
100020c4:	468c      	mov	ip, r1
100020c6:	9d25      	ldr	r5, [sp, #148]	@ 0x94
100020c8:	00d2      	lsls	r2, r2, #3
100020ca:	4462      	add	r2, ip
100020cc:	1d2b      	adds	r3, r5, #4
100020ce:	cb13      	ldmia	r3!, {r0, r1, r4}
100020d0:	c213      	stmia	r2!, {r0, r1, r4}
100020d2:	cb13      	ldmia	r3!, {r0, r1, r4}
100020d4:	c213      	stmia	r2!, {r0, r1, r4}
100020d6:	cb13      	ldmia	r3!, {r0, r1, r4}
100020d8:	c213      	stmia	r2!, {r0, r1, r4}
100020da:	cb13      	ldmia	r3!, {r0, r1, r4}
100020dc:	c213      	stmia	r2!, {r0, r1, r4}
100020de:	9b15      	ldr	r3, [sp, #84]	@ 0x54
100020e0:	aa91      	add	r2, sp, #580	@ 0x244
100020e2:	335c      	adds	r3, #92	@ 0x5c
100020e4:	cb13      	ldmia	r3!, {r0, r1, r4}
100020e6:	c213      	stmia	r2!, {r0, r1, r4}
100020e8:	cb03      	ldmia	r3!, {r0, r1}
100020ea:	c203      	stmia	r2!, {r0, r1}
100020ec:	23d7      	movs	r3, #215	@ 0xd7
100020ee:	0029      	movs	r1, r5
100020f0:	00db      	lsls	r3, r3, #3
100020f2:	4463      	add	r3, ip
100020f4:	3134      	adds	r1, #52	@ 0x34
100020f6:	2240      	movs	r2, #64	@ 0x40
100020f8:	0018      	movs	r0, r3
100020fa:	f003 fcd1 	bl	10005aa0 <__wrap___aeabi_memcpy>
100020fe:	9b16      	ldr	r3, [sp, #88]	@ 0x58
10002100:	aa98      	add	r2, sp, #608	@ 0x260
10002102:	3330      	adds	r3, #48	@ 0x30
10002104:	cb13      	ldmia	r3!, {r0, r1, r4}
10002106:	c213      	stmia	r2!, {r0, r1, r4}
10002108:	3574      	adds	r5, #116	@ 0x74
1000210a:	cb03      	ldmia	r3!, {r0, r1}
1000210c:	c203      	stmia	r2!, {r0, r1}
1000210e:	002b      	movs	r3, r5
10002110:	aa7a      	add	r2, sp, #488	@ 0x1e8
10002112:	cb13      	ldmia	r3!, {r0, r1, r4}
10002114:	c213      	stmia	r2!, {r0, r1, r4}
10002116:	681b      	ldr	r3, [r3, #0]
10002118:	6013      	str	r3, [r2, #0]
1000211a:	9b1b      	ldr	r3, [sp, #108]	@ 0x6c
1000211c:	aaa0      	add	r2, sp, #640	@ 0x280
1000211e:	3304      	adds	r3, #4
10002120:	cb13      	ldmia	r3!, {r0, r1, r4}
10002122:	c213      	stmia	r2!, {r0, r1, r4}
10002124:	cb03      	ldmia	r3!, {r0, r1}
10002126:	c203      	stmia	r2!, {r0, r1}
10002128:	2208      	movs	r2, #8
1000212a:	2100      	movs	r1, #0
1000212c:	a859      	add	r0, sp, #356	@ 0x164
1000212e:	f003 fcb1 	bl	10005a94 <__wrap_memset>
10002132:	a88a      	add	r0, sp, #552	@ 0x228
10002134:	f008 f804 	bl	1000a140 <_ZN6tflite7testing16IntArrayFromIntsEPKi>
10002138:	4680      	mov	r8, r0
1000213a:	a891      	add	r0, sp, #580	@ 0x244
1000213c:	f008 f800 	bl	1000a140 <_ZN6tflite7testing16IntArrayFromIntsEPKi>
10002140:	900e      	str	r0, [sp, #56]	@ 0x38
10002142:	a898      	add	r0, sp, #608	@ 0x260
10002144:	f007 fffc 	bl	1000a140 <_ZN6tflite7testing16IntArrayFromIntsEPKi>
10002148:	9012      	str	r0, [sp, #72]	@ 0x48
1000214a:	a8a0      	add	r0, sp, #640	@ 0x280
1000214c:	f007 fff8 	bl	1000a140 <_ZN6tflite7testing16IntArrayFromIntsEPKi>
10002150:	0007      	movs	r7, r0
10002152:	4640      	mov	r0, r8
10002154:	f007 febc 	bl	10009ed0 <_ZN6tflite12ElementCountERK14TfLiteIntArray>
10002158:	2800      	cmp	r0, #0
1000215a:	dd39      	ble.n	100021d0 <main+0x1144>
1000215c:	23b7      	movs	r3, #183	@ 0xb7
1000215e:	aa3a      	add	r2, sp, #232	@ 0xe8
10002160:	4694      	mov	ip, r2
10002162:	00db      	lsls	r3, r3, #3
10002164:	4463      	add	r3, ip
10002166:	469c      	mov	ip, r3
10002168:	0086      	lsls	r6, r0, #2
1000216a:	001c      	movs	r4, r3
1000216c:	ad68      	add	r5, sp, #416	@ 0x1a0
1000216e:	4466      	add	r6, ip
10002170:	e014      	b.n	1000219c <main+0x1110>
10002172:	46c0      	nop			@ (mov r8, r8)
10002174:	000002d6 	.word	0x000002d6
10002178:	000008b8 	.word	0x000008b8
1000217c:	000008d8 	.word	0x000008d8
10002180:	000008f8 	.word	0x000008f8
10002184:	00000918 	.word	0x00000918
10002188:	ec63de47 	.word	0xec63de47
1000218c:	fc7fe65b 	.word	0xfc7fe65b
10002190:	207f      	movs	r0, #127	@ 0x7f
10002192:	3404      	adds	r4, #4
10002194:	7028      	strb	r0, [r5, #0]
10002196:	3501      	adds	r5, #1
10002198:	42a6      	cmp	r6, r4
1000219a:	d019      	beq.n	100021d0 <main+0x1144>
1000219c:	6820      	ldr	r0, [r4, #0]
1000219e:	1c01      	adds	r1, r0, #0
100021a0:	f003 fafc 	bl	1000579c <__wrap___aeabi_fadd>
100021a4:	f003 fbbe 	bl	10005924 <__wrap___aeabi_f2d>
100021a8:	f002 ffa6 	bl	100050f8 <__wrap_round>
100021ac:	2200      	movs	r2, #0
100021ae:	2300      	movs	r3, #0
100021b0:	f002 fe46 	bl	10004e40 <__wrap___aeabi_dadd>
100021b4:	f002 fef2 	bl	10004f9c <__wrap___aeabi_d2iz>
100021b8:	287f      	cmp	r0, #127	@ 0x7f
100021ba:	dce9      	bgt.n	10002190 <main+0x1104>
100021bc:	0003      	movs	r3, r0
100021be:	3380      	adds	r3, #128	@ 0x80
100021c0:	dae7      	bge.n	10002192 <main+0x1106>
100021c2:	2080      	movs	r0, #128	@ 0x80
100021c4:	3404      	adds	r4, #4
100021c6:	4240      	negs	r0, r0
100021c8:	7028      	strb	r0, [r5, #0]
100021ca:	3501      	adds	r5, #1
100021cc:	42a6      	cmp	r6, r4
100021ce:	d1e5      	bne.n	1000219c <main+0x1110>
100021d0:	2400      	movs	r4, #0
100021d2:	4640      	mov	r0, r8
100021d4:	94eb      	str	r4, [sp, #940]	@ 0x3ac
100021d6:	f007 fe7b 	bl	10009ed0 <_ZN6tflite12ElementCountERK14TfLiteIntArray>
100021da:	9013      	str	r0, [sp, #76]	@ 0x4c
100021dc:	2009      	movs	r0, #9
100021de:	f006 fd27 	bl	10008c30 <_ZN6tflite17TfLiteTypeGetSizeE10TfLiteType>
100021e2:	21d7      	movs	r1, #215	@ 0xd7
100021e4:	9017      	str	r0, [sp, #92]	@ 0x5c
100021e6:	a83a      	add	r0, sp, #232	@ 0xe8
100021e8:	4684      	mov	ip, r0
100021ea:	ab6c      	add	r3, sp, #432	@ 0x1b0
100021ec:	9302      	str	r3, [sp, #8]
100021ee:	abb8      	add	r3, sp, #736	@ 0x2e0
100021f0:	9301      	str	r3, [sp, #4]
100021f2:	00c9      	lsls	r1, r1, #3
100021f4:	abc0      	add	r3, sp, #768	@ 0x300
100021f6:	4461      	add	r1, ip
100021f8:	9811      	ldr	r0, [sp, #68]	@ 0x44
100021fa:	9405      	str	r4, [sp, #20]
100021fc:	9404      	str	r4, [sp, #16]
100021fe:	9403      	str	r4, [sp, #12]
10002200:	9300      	str	r3, [sp, #0]
10002202:	aa7f      	add	r2, sp, #508	@ 0x1fc
10002204:	9b0e      	ldr	r3, [sp, #56]	@ 0x38
10002206:	f007 ffa5 	bl	1000a154 <_ZN6tflite7testing40CreateSymmetricPerChannelQuantizedTensorEPKfPaP14TfLiteIntArrayPfPiP24TfLiteAffineQuantizationib10TfLiteType>
1000220a:	ab70      	add	r3, sp, #448	@ 0x1c0
1000220c:	9303      	str	r3, [sp, #12]
1000220e:	aba8      	add	r3, sp, #672	@ 0x2a0
10002210:	9302      	str	r3, [sp, #8]
10002212:	abb0      	add	r3, sp, #704	@ 0x2c0
10002214:	9301      	str	r3, [sp, #4]
10002216:	abc1      	add	r3, sp, #772	@ 0x304
10002218:	a97a      	add	r1, sp, #488	@ 0x1e8
1000221a:	4650      	mov	r0, sl
1000221c:	9404      	str	r4, [sp, #16]
1000221e:	9300      	str	r3, [sp, #0]
10002220:	aa84      	add	r2, sp, #528	@ 0x210
10002222:	9b12      	ldr	r3, [sp, #72]	@ 0x48
10002224:	f7fe fbac 	bl	10000980 <_ZN6tflite7testing35CreatePerChannelQuantizedBiasTensorIlEE12TfLiteTensorPKfPT_P14TfLiteIntArrayfS4_PfPiP24TfLiteAffineQuantizationib.constprop.0>
10002228:	464a      	mov	r2, r9
1000222a:	0038      	movs	r0, r7
1000222c:	60d4      	str	r4, [r2, #12]
1000222e:	f007 fe4f 	bl	10009ed0 <_ZN6tflite12ElementCountERK14TfLiteIntArray>
10002232:	0005      	movs	r5, r0
10002234:	2009      	movs	r0, #9
10002236:	f006 fcfb 	bl	10008c30 <_ZN6tflite17TfLiteTypeGetSizeE10TfLiteType>
1000223a:	22fe      	movs	r2, #254	@ 0xfe
1000223c:	4659      	mov	r1, fp
1000223e:	26fc      	movs	r6, #252	@ 0xfc
10002240:	2300      	movs	r3, #0
10002242:	0592      	lsls	r2, r2, #22
10002244:	05b6      	lsls	r6, r6, #22
10002246:	0004      	movs	r4, r0
10002248:	9260      	str	r2, [sp, #384]	@ 0x180
1000224a:	9164      	str	r1, [sp, #400]	@ 0x190
1000224c:	220c      	movs	r2, #12
1000224e:	2100      	movs	r1, #0
10002250:	a875      	add	r0, sp, #468	@ 0x1d4
10002252:	9365      	str	r3, [sp, #404]	@ 0x194
10002254:	9661      	str	r6, [sp, #388]	@ 0x184
10002256:	f003 fc1d 	bl	10005a94 <__wrap_memset>
1000225a:	a960      	add	r1, sp, #384	@ 0x180
1000225c:	0008      	movs	r0, r1
1000225e:	f007 ff71 	bl	1000a144 <_ZN6tflite7testing20FloatArrayFromFloatsEPKf>
10002262:	a964      	add	r1, sp, #400	@ 0x190
10002264:	9075      	str	r0, [sp, #468]	@ 0x1d4
10002266:	0008      	movs	r0, r1
10002268:	f007 ff6a 	bl	1000a140 <_ZN6tflite7testing16IntArrayFromIntsEPKi>
1000226c:	96ea      	str	r6, [sp, #936]	@ 0x3a8
1000226e:	4659      	mov	r1, fp
10002270:	ae68      	add	r6, sp, #416	@ 0x1a0
10002272:	96ec      	str	r6, [sp, #944]	@ 0x3b0
10002274:	4646      	mov	r6, r8
10002276:	91e8      	str	r1, [sp, #928]	@ 0x3a0
10002278:	a975      	add	r1, sp, #468	@ 0x1d4
1000227a:	91e9      	str	r1, [sp, #932]	@ 0x3a4
1000227c:	96ed      	str	r6, [sp, #948]	@ 0x3b4
1000227e:	9917      	ldr	r1, [sp, #92]	@ 0x5c
10002280:	9e13      	ldr	r6, [sp, #76]	@ 0x4c
10002282:	9076      	str	r0, [sp, #472]	@ 0x1d8
10002284:	20b5      	movs	r0, #181	@ 0xb5
10002286:	4371      	muls	r1, r6
10002288:	2609      	movs	r6, #9
1000228a:	2300      	movs	r3, #0
1000228c:	91ee      	str	r1, [sp, #952]	@ 0x3b8
1000228e:	0080      	lsls	r0, r0, #2
10002290:	a93a      	add	r1, sp, #232	@ 0xe8
10002292:	1809      	adds	r1, r1, r0
10002294:	489c      	ldr	r0, [pc, #624]	@ (10002508 <main+0x147c>)
10002296:	800e      	strh	r6, [r1, #0]
10002298:	a93a      	add	r1, sp, #232	@ 0xe8
1000229a:	1809      	adds	r1, r1, r0
1000229c:	700b      	strb	r3, [r1, #0]
1000229e:	ab3a      	add	r3, sp, #232	@ 0xe8
100022a0:	469c      	mov	ip, r3
100022a2:	489a      	ldr	r0, [pc, #616]	@ (1000250c <main+0x1480>)
100022a4:	2220      	movs	r2, #32
100022a6:	a9e8      	add	r1, sp, #928	@ 0x3a0
100022a8:	4460      	add	r0, ip
100022aa:	f003 fbf9 	bl	10005aa0 <__wrap___aeabi_memcpy>
100022ae:	9b11      	ldr	r3, [sp, #68]	@ 0x44
100022b0:	4897      	ldr	r0, [pc, #604]	@ (10002510 <main+0x1484>)
100022b2:	0019      	movs	r1, r3
100022b4:	4698      	mov	r8, r3
100022b6:	ab3a      	add	r3, sp, #232	@ 0xe8
100022b8:	469c      	mov	ip, r3
100022ba:	2220      	movs	r2, #32
100022bc:	4460      	add	r0, ip
100022be:	f003 fbef 	bl	10005aa0 <__wrap___aeabi_memcpy>
100022c2:	ab3a      	add	r3, sp, #232	@ 0xe8
100022c4:	469c      	mov	ip, r3
100022c6:	4893      	ldr	r0, [pc, #588]	@ (10002514 <main+0x1488>)
100022c8:	2220      	movs	r2, #32
100022ca:	4651      	mov	r1, sl
100022cc:	4460      	add	r0, ip
100022ce:	f003 fbe7 	bl	10005aa0 <__wrap___aeabi_memcpy>
100022d2:	20b4      	movs	r0, #180	@ 0xb4
100022d4:	4659      	mov	r1, fp
100022d6:	00c0      	lsls	r0, r0, #3
100022d8:	4468      	add	r0, sp
100022da:	22fe      	movs	r2, #254	@ 0xfe
100022dc:	6001      	str	r1, [r0, #0]
100022de:	4648      	mov	r0, r9
100022e0:	2300      	movs	r3, #0
100022e2:	0592      	lsls	r2, r2, #22
100022e4:	6082      	str	r2, [r0, #8]
100022e6:	464a      	mov	r2, r9
100022e8:	6043      	str	r3, [r0, #4]
100022ea:	a85c      	add	r0, sp, #368	@ 0x170
100022ec:	6110      	str	r0, [r2, #16]
100022ee:	a83a      	add	r0, sp, #232	@ 0xe8
100022f0:	4684      	mov	ip, r0
100022f2:	436c      	muls	r4, r5
100022f4:	7793      	strb	r3, [r2, #30]
100022f6:	6194      	str	r4, [r2, #24]
100022f8:	001c      	movs	r4, r3
100022fa:	4b87      	ldr	r3, [pc, #540]	@ (10002518 <main+0x148c>)
100022fc:	4649      	mov	r1, r9
100022fe:	4463      	add	r3, ip
10002300:	0018      	movs	r0, r3
10002302:	6157      	str	r7, [r2, #20]
10002304:	8396      	strh	r6, [r2, #28]
10002306:	2220      	movs	r2, #32
10002308:	f003 fbca 	bl	10005aa0 <__wrap___aeabi_memcpy>
1000230c:	2292      	movs	r2, #146	@ 0x92
1000230e:	ab3a      	add	r3, sp, #232	@ 0xe8
10002310:	0092      	lsls	r2, r2, #2
10002312:	189b      	adds	r3, r3, r2
10002314:	701c      	strb	r4, [r3, #0]
10002316:	465b      	mov	r3, fp
10002318:	93cd      	str	r3, [sp, #820]	@ 0x334
1000231a:	93ce      	str	r3, [sp, #824]	@ 0x338
1000231c:	93ca      	str	r3, [sp, #808]	@ 0x328
1000231e:	93c9      	str	r3, [sp, #804]	@ 0x324
10002320:	4643      	mov	r3, r8
10002322:	2202      	movs	r2, #2
10002324:	685c      	ldr	r4, [r3, #4]
10002326:	a9c8      	add	r1, sp, #800	@ 0x320
10002328:	6823      	ldr	r3, [r4, #0]
1000232a:	a859      	add	r0, sp, #356	@ 0x164
1000232c:	601a      	str	r2, [r3, #0]
1000232e:	aa3a      	add	r2, sp, #232	@ 0xe8
10002330:	4694      	mov	ip, r2
10002332:	4b76      	ldr	r3, [pc, #472]	@ (1000250c <main+0x1480>)
10002334:	4463      	add	r3, ip
10002336:	001a      	movs	r2, r3
10002338:	f7fe f862 	bl	10000400 <_ZN6tflite7testing12_GLOBAL__N_128ValidateDepthwiseConvGoldensIavvEE12TfLiteStatusPKT_iP25TfLiteDepthwiseConvParamsfiP12TfLiteTensor.constprop.1>
1000233c:	2801      	cmp	r0, #1
1000233e:	d009      	beq.n	10002354 <main+0x12c8>
10002340:	2301      	movs	r3, #1
10002342:	4a76      	ldr	r2, [pc, #472]	@ (1000251c <main+0x1490>)
10002344:	9000      	str	r0, [sp, #0]
10002346:	991e      	ldr	r1, [sp, #120]	@ 0x78
10002348:	983e      	ldr	r0, [sp, #248]	@ 0xf8
1000234a:	f007 fdaf 	bl	10009eac <_Z11MicroPrintfPKcz>
1000234e:	465a      	mov	r2, fp
10002350:	9b0d      	ldr	r3, [sp, #52]	@ 0x34
10002352:	701a      	strb	r2, [r3, #0]
10002354:	9a91      	ldr	r2, [sp, #580]	@ 0x244
10002356:	6823      	ldr	r3, [r4, #0]
10002358:	a9c8      	add	r1, sp, #800	@ 0x320
1000235a:	601a      	str	r2, [r3, #0]
1000235c:	2202      	movs	r2, #2
1000235e:	6863      	ldr	r3, [r4, #4]
10002360:	a859      	add	r0, sp, #356	@ 0x164
10002362:	601a      	str	r2, [r3, #0]
10002364:	aa3a      	add	r2, sp, #232	@ 0xe8
10002366:	4694      	mov	ip, r2
10002368:	4b68      	ldr	r3, [pc, #416]	@ (1000250c <main+0x1480>)
1000236a:	4463      	add	r3, ip
1000236c:	001a      	movs	r2, r3
1000236e:	f7fe f847 	bl	10000400 <_ZN6tflite7testing12_GLOBAL__N_128ValidateDepthwiseConvGoldensIavvEE12TfLiteStatusPKT_iP25TfLiteDepthwiseConvParamsfiP12TfLiteTensor.constprop.1>
10002372:	2801      	cmp	r0, #1
10002374:	d001      	beq.n	1000237a <main+0x12ee>
10002376:	f001 f8ec 	bl	10003552 <main+0x24c6>
1000237a:	9a10      	ldr	r2, [sp, #64]	@ 0x40
1000237c:	9b0d      	ldr	r3, [sp, #52]	@ 0x34
1000237e:	7010      	strb	r0, [r2, #0]
10002380:	781b      	ldrb	r3, [r3, #0]
10002382:	9a0c      	ldr	r2, [sp, #48]	@ 0x30
10002384:	6812      	ldr	r2, [r2, #0]
10002386:	2b00      	cmp	r3, #0
10002388:	d001      	beq.n	1000238e <main+0x1302>
1000238a:	f001 f942 	bl	10003612 <main+0x2586>
1000238e:	2300      	movs	r3, #0
10002390:	3201      	adds	r2, #1
10002392:	990c      	ldr	r1, [sp, #48]	@ 0x30
10002394:	9831      	ldr	r0, [sp, #196]	@ 0xc4
10002396:	600a      	str	r2, [r1, #0]
10002398:	9914      	ldr	r1, [sp, #80]	@ 0x50
1000239a:	680a      	ldr	r2, [r1, #0]
1000239c:	18d2      	adds	r2, r2, r3
1000239e:	600a      	str	r2, [r1, #0]
100023a0:	f007 fd84 	bl	10009eac <_Z11MicroPrintfPKcz>
100023a4:	2300      	movs	r3, #0
100023a6:	9a10      	ldr	r2, [sp, #64]	@ 0x40
100023a8:	9d1b      	ldr	r5, [sp, #108]	@ 0x6c
100023aa:	7013      	strb	r3, [r2, #0]
100023ac:	9a0d      	ldr	r2, [sp, #52]	@ 0x34
100023ae:	7013      	strb	r3, [r2, #0]
100023b0:	002b      	movs	r3, r5
100023b2:	aa84      	add	r2, sp, #528	@ 0x210
100023b4:	3338      	adds	r3, #56	@ 0x38
100023b6:	cb13      	ldmia	r3!, {r0, r1, r4}
100023b8:	c213      	stmia	r2!, {r0, r1, r4}
100023ba:	cb03      	ldmia	r3!, {r0, r1}
100023bc:	c203      	stmia	r2!, {r0, r1}
100023be:	002b      	movs	r3, r5
100023c0:	aa8a      	add	r2, sp, #552	@ 0x228
100023c2:	3338      	adds	r3, #56	@ 0x38
100023c4:	cb13      	ldmia	r3!, {r0, r1, r4}
100023c6:	c213      	stmia	r2!, {r0, r1, r4}
100023c8:	cb03      	ldmia	r3!, {r0, r1}
100023ca:	c203      	stmia	r2!, {r0, r1}
100023cc:	465b      	mov	r3, fp
100023ce:	9350      	str	r3, [sp, #320]	@ 0x140
100023d0:	2320      	movs	r3, #32
100023d2:	9351      	str	r3, [sp, #324]	@ 0x144
100023d4:	002b      	movs	r3, r5
100023d6:	aa91      	add	r2, sp, #580	@ 0x244
100023d8:	334c      	adds	r3, #76	@ 0x4c
100023da:	cb13      	ldmia	r3!, {r0, r1, r4}
100023dc:	c213      	stmia	r2!, {r0, r1, r4}
100023de:	cb03      	ldmia	r3!, {r0, r1}
100023e0:	c203      	stmia	r2!, {r0, r1}
100023e2:	a83a      	add	r0, sp, #232	@ 0xe8
100023e4:	23d7      	movs	r3, #215	@ 0xd7
100023e6:	4684      	mov	ip, r0
100023e8:	2280      	movs	r2, #128	@ 0x80
100023ea:	00db      	lsls	r3, r3, #3
100023ec:	4463      	add	r3, ip
100023ee:	0018      	movs	r0, r3
100023f0:	9932      	ldr	r1, [sp, #200]	@ 0xc8
100023f2:	0092      	lsls	r2, r2, #2
100023f4:	f003 fb54 	bl	10005aa0 <__wrap___aeabi_memcpy>
100023f8:	a83a      	add	r0, sp, #232	@ 0xe8
100023fa:	4684      	mov	ip, r0
100023fc:	2280      	movs	r2, #128	@ 0x80
100023fe:	4b43      	ldr	r3, [pc, #268]	@ (1000250c <main+0x1480>)
10002400:	9933      	ldr	r1, [sp, #204]	@ 0xcc
10002402:	4463      	add	r3, ip
10002404:	0018      	movs	r0, r3
10002406:	0092      	lsls	r2, r2, #2
10002408:	f003 fb4a 	bl	10005aa0 <__wrap___aeabi_memcpy>
1000240c:	2280      	movs	r2, #128	@ 0x80
1000240e:	2100      	movs	r1, #0
10002410:	a8c8      	add	r0, sp, #800	@ 0x320
10002412:	f003 fb3f 	bl	10005a94 <__wrap_memset>
10002416:	2280      	movs	r2, #128	@ 0x80
10002418:	9934      	ldr	r1, [sp, #208]	@ 0xd0
1000241a:	a8e8      	add	r0, sp, #928	@ 0x3a0
1000241c:	f003 fb40 	bl	10005aa0 <__wrap___aeabi_memcpy>
10002420:	a884      	add	r0, sp, #528	@ 0x210
10002422:	f007 fe8d 	bl	1000a140 <_ZN6tflite7testing16IntArrayFromIntsEPKi>
10002426:	ab8a      	add	r3, sp, #552	@ 0x228
10002428:	0004      	movs	r4, r0
1000242a:	900e      	str	r0, [sp, #56]	@ 0x38
1000242c:	0018      	movs	r0, r3
1000242e:	f007 fe87 	bl	1000a140 <_ZN6tflite7testing16IntArrayFromIntsEPKi>
10002432:	ab50      	add	r3, sp, #320	@ 0x140
10002434:	4680      	mov	r8, r0
10002436:	0018      	movs	r0, r3
10002438:	f007 fe82 	bl	1000a140 <_ZN6tflite7testing16IntArrayFromIntsEPKi>
1000243c:	ab91      	add	r3, sp, #580	@ 0x244
1000243e:	9012      	str	r0, [sp, #72]	@ 0x48
10002440:	0018      	movs	r0, r3
10002442:	f007 fe7d 	bl	1000a140 <_ZN6tflite7testing16IntArrayFromIntsEPKi>
10002446:	9013      	str	r0, [sp, #76]	@ 0x4c
10002448:	0020      	movs	r0, r4
1000244a:	f007 fd41 	bl	10009ed0 <_ZN6tflite12ElementCountERK14TfLiteIntArray>
1000244e:	2800      	cmp	r0, #0
10002450:	dd2a      	ble.n	100024a8 <main+0x141c>
10002452:	23d7      	movs	r3, #215	@ 0xd7
10002454:	aa3a      	add	r2, sp, #232	@ 0xe8
10002456:	4694      	mov	ip, r2
10002458:	00db      	lsls	r3, r3, #3
1000245a:	4463      	add	r3, ip
1000245c:	469c      	mov	ip, r3
1000245e:	0086      	lsls	r6, r0, #2
10002460:	001c      	movs	r4, r3
10002462:	9d11      	ldr	r5, [sp, #68]	@ 0x44
10002464:	4466      	add	r6, ip
10002466:	e005      	b.n	10002474 <main+0x13e8>
10002468:	207f      	movs	r0, #127	@ 0x7f
1000246a:	3404      	adds	r4, #4
1000246c:	7028      	strb	r0, [r5, #0]
1000246e:	3501      	adds	r5, #1
10002470:	42a6      	cmp	r6, r4
10002472:	d019      	beq.n	100024a8 <main+0x141c>
10002474:	492a      	ldr	r1, [pc, #168]	@ (10002520 <main+0x1494>)
10002476:	6820      	ldr	r0, [r4, #0]
10002478:	f003 f993 	bl	100057a2 <__wrap___aeabi_fdiv>
1000247c:	f003 fa52 	bl	10005924 <__wrap___aeabi_f2d>
10002480:	f002 fe3a 	bl	100050f8 <__wrap_round>
10002484:	2200      	movs	r2, #0
10002486:	4b27      	ldr	r3, [pc, #156]	@ (10002524 <main+0x1498>)
10002488:	f002 fcd1 	bl	10004e2e <__wrap___aeabi_dsub>
1000248c:	f002 fd86 	bl	10004f9c <__wrap___aeabi_d2iz>
10002490:	287f      	cmp	r0, #127	@ 0x7f
10002492:	dce9      	bgt.n	10002468 <main+0x13dc>
10002494:	0003      	movs	r3, r0
10002496:	3380      	adds	r3, #128	@ 0x80
10002498:	dae7      	bge.n	1000246a <main+0x13de>
1000249a:	2080      	movs	r0, #128	@ 0x80
1000249c:	3404      	adds	r4, #4
1000249e:	4240      	negs	r0, r0
100024a0:	7028      	strb	r0, [r5, #0]
100024a2:	3501      	adds	r5, #1
100024a4:	42a6      	cmp	r6, r4
100024a6:	d1e5      	bne.n	10002474 <main+0x13e8>
100024a8:	980e      	ldr	r0, [sp, #56]	@ 0x38
100024aa:	f007 fd11 	bl	10009ed0 <_ZN6tflite12ElementCountERK14TfLiteIntArray>
100024ae:	0004      	movs	r4, r0
100024b0:	2009      	movs	r0, #9
100024b2:	f006 fbbd 	bl	10008c30 <_ZN6tflite17TfLiteTypeGetSizeE10TfLiteType>
100024b6:	465b      	mov	r3, fp
100024b8:	9353      	str	r3, [sp, #332]	@ 0x14c
100024ba:	2380      	movs	r3, #128	@ 0x80
100024bc:	425b      	negs	r3, r3
100024be:	9354      	str	r3, [sp, #336]	@ 0x150
100024c0:	23fe      	movs	r3, #254	@ 0xfe
100024c2:	4360      	muls	r0, r4
100024c4:	059b      	lsls	r3, r3, #22
100024c6:	9356      	str	r3, [sp, #344]	@ 0x158
100024c8:	4b15      	ldr	r3, [pc, #84]	@ (10002520 <main+0x1494>)
100024ca:	220c      	movs	r2, #12
100024cc:	2100      	movs	r1, #0
100024ce:	9017      	str	r0, [sp, #92]	@ 0x5c
100024d0:	a870      	add	r0, sp, #448	@ 0x1c0
100024d2:	9357      	str	r3, [sp, #348]	@ 0x15c
100024d4:	f003 fade 	bl	10005a94 <__wrap_memset>
100024d8:	a856      	add	r0, sp, #344	@ 0x158
100024da:	f007 fe33 	bl	1000a144 <_ZN6tflite7testing20FloatArrayFromFloatsEPKf>
100024de:	9070      	str	r0, [sp, #448]	@ 0x1c0
100024e0:	a853      	add	r0, sp, #332	@ 0x14c
100024e2:	f007 fe2d 	bl	1000a140 <_ZN6tflite7testing16IntArrayFromIntsEPKi>
100024e6:	9071      	str	r0, [sp, #452]	@ 0x1c4
100024e8:	4640      	mov	r0, r8
100024ea:	f007 fcf1 	bl	10009ed0 <_ZN6tflite12ElementCountERK14TfLiteIntArray>
100024ee:	2800      	cmp	r0, #0
100024f0:	dd3a      	ble.n	10002568 <main+0x14dc>
100024f2:	aa3a      	add	r2, sp, #232	@ 0xe8
100024f4:	4694      	mov	ip, r2
100024f6:	4b05      	ldr	r3, [pc, #20]	@ (1000250c <main+0x1480>)
100024f8:	0086      	lsls	r6, r0, #2
100024fa:	4463      	add	r3, ip
100024fc:	469c      	mov	ip, r3
100024fe:	001c      	movs	r4, r3
10002500:	4655      	mov	r5, sl
10002502:	4466      	add	r6, ip
10002504:	e016      	b.n	10002534 <main+0x14a8>
10002506:	46c0      	nop			@ (mov r8, r8)
10002508:	000002d6 	.word	0x000002d6
1000250c:	000008b8 	.word	0x000008b8
10002510:	000008d8 	.word	0x000008d8
10002514:	000008f8 	.word	0x000008f8
10002518:	00000918 	.word	0x00000918
1000251c:	0000035d 	.word	0x0000035d
10002520:	3d70f16f 	.word	0x3d70f16f
10002524:	40600000 	.word	0x40600000
10002528:	207f      	movs	r0, #127	@ 0x7f
1000252a:	3404      	adds	r4, #4
1000252c:	7028      	strb	r0, [r5, #0]
1000252e:	3501      	adds	r5, #1
10002530:	42a6      	cmp	r6, r4
10002532:	d019      	beq.n	10002568 <main+0x14dc>
10002534:	49e8      	ldr	r1, [pc, #928]	@ (100028d8 <main+0x184c>)
10002536:	6820      	ldr	r0, [r4, #0]
10002538:	f003 f933 	bl	100057a2 <__wrap___aeabi_fdiv>
1000253c:	f003 f9f2 	bl	10005924 <__wrap___aeabi_f2d>
10002540:	f002 fdda 	bl	100050f8 <__wrap_round>
10002544:	2200      	movs	r2, #0
10002546:	2300      	movs	r3, #0
10002548:	f002 fc7a 	bl	10004e40 <__wrap___aeabi_dadd>
1000254c:	f002 fd26 	bl	10004f9c <__wrap___aeabi_d2iz>
10002550:	287f      	cmp	r0, #127	@ 0x7f
10002552:	dce9      	bgt.n	10002528 <main+0x149c>
10002554:	0003      	movs	r3, r0
10002556:	3380      	adds	r3, #128	@ 0x80
10002558:	dae7      	bge.n	1000252a <main+0x149e>
1000255a:	2080      	movs	r0, #128	@ 0x80
1000255c:	3404      	adds	r4, #4
1000255e:	4240      	negs	r0, r0
10002560:	7028      	strb	r0, [r5, #0]
10002562:	3501      	adds	r5, #1
10002564:	42a6      	cmp	r6, r4
10002566:	d1e5      	bne.n	10002534 <main+0x14a8>
10002568:	2500      	movs	r5, #0
1000256a:	4640      	mov	r0, r8
1000256c:	95a3      	str	r5, [sp, #652]	@ 0x28c
1000256e:	f007 fcaf 	bl	10009ed0 <_ZN6tflite12ElementCountERK14TfLiteIntArray>
10002572:	0004      	movs	r4, r0
10002574:	2009      	movs	r0, #9
10002576:	f006 fb5b 	bl	10008c30 <_ZN6tflite17TfLiteTypeGetSizeE10TfLiteType>
1000257a:	465b      	mov	r3, fp
1000257c:	9359      	str	r3, [sp, #356]	@ 0x164
1000257e:	23fe      	movs	r3, #254	@ 0xfe
10002580:	4360      	muls	r0, r4
10002582:	059b      	lsls	r3, r3, #22
10002584:	935c      	str	r3, [sp, #368]	@ 0x170
10002586:	4bd4      	ldr	r3, [pc, #848]	@ (100028d8 <main+0x184c>)
10002588:	220c      	movs	r2, #12
1000258a:	2100      	movs	r1, #0
1000258c:	9018      	str	r0, [sp, #96]	@ 0x60
1000258e:	a875      	add	r0, sp, #468	@ 0x1d4
10002590:	935d      	str	r3, [sp, #372]	@ 0x174
10002592:	955a      	str	r5, [sp, #360]	@ 0x168
10002594:	f003 fa7e 	bl	10005a94 <__wrap_memset>
10002598:	a85c      	add	r0, sp, #368	@ 0x170
1000259a:	f007 fdd3 	bl	1000a144 <_ZN6tflite7testing20FloatArrayFromFloatsEPKf>
1000259e:	9075      	str	r0, [sp, #468]	@ 0x1d4
100025a0:	a859      	add	r0, sp, #356	@ 0x164
100025a2:	f007 fdcd 	bl	1000a140 <_ZN6tflite7testing16IntArrayFromIntsEPKi>
100025a6:	23b4      	movs	r3, #180	@ 0xb4
100025a8:	2680      	movs	r6, #128	@ 0x80
100025aa:	002c      	movs	r4, r5
100025ac:	00db      	lsls	r3, r3, #3
100025ae:	446b      	add	r3, sp
100025b0:	9076      	str	r0, [sp, #472]	@ 0x1d8
100025b2:	601d      	str	r5, [r3, #0]
100025b4:	0636      	lsls	r6, r6, #24
100025b6:	abc8      	add	r3, sp, #800	@ 0x320
100025b8:	18e3      	adds	r3, r4, r3
100025ba:	6858      	ldr	r0, [r3, #4]
100025bc:	49c7      	ldr	r1, [pc, #796]	@ (100028dc <main+0x1850>)
100025be:	f003 f8f0 	bl	100057a2 <__wrap___aeabi_fdiv>
100025c2:	f003 f9af 	bl	10005924 <__wrap___aeabi_f2d>
100025c6:	f002 fd97 	bl	100050f8 <__wrap_round>
100025ca:	464b      	mov	r3, r9
100025cc:	191d      	adds	r5, r3, r4
100025ce:	f002 fd09 	bl	10004fe4 <__wrap___aeabi_d2lz>
100025d2:	2900      	cmp	r1, #0
100025d4:	dc00      	bgt.n	100025d8 <main+0x154c>
100025d6:	e338      	b.n	10002c4a <main+0x1bbe>
100025d8:	48c1      	ldr	r0, [pc, #772]	@ (100028e0 <main+0x1854>)
100025da:	3404      	adds	r4, #4
100025dc:	6068      	str	r0, [r5, #4]
100025de:	2c7c      	cmp	r4, #124	@ 0x7c
100025e0:	d1e9      	bne.n	100025b6 <main+0x152a>
100025e2:	2208      	movs	r2, #8
100025e4:	2100      	movs	r1, #0
100025e6:	a8aa      	add	r0, sp, #680	@ 0x2a8
100025e8:	f003 fa54 	bl	10005a94 <__wrap_memset>
100025ec:	9812      	ldr	r0, [sp, #72]	@ 0x48
100025ee:	f007 fc6f 	bl	10009ed0 <_ZN6tflite12ElementCountERK14TfLiteIntArray>
100025f2:	0007      	movs	r7, r0
100025f4:	2002      	movs	r0, #2
100025f6:	f006 fb1b 	bl	10008c30 <_ZN6tflite17TfLiteTypeGetSizeE10TfLiteType>
100025fa:	465b      	mov	r3, fp
100025fc:	9360      	str	r3, [sp, #384]	@ 0x180
100025fe:	23fe      	movs	r3, #254	@ 0xfe
10002600:	2400      	movs	r4, #0
10002602:	059b      	lsls	r3, r3, #22
10002604:	9364      	str	r3, [sp, #400]	@ 0x190
10002606:	4bb7      	ldr	r3, [pc, #732]	@ (100028e4 <main+0x1858>)
10002608:	2100      	movs	r1, #0
1000260a:	0005      	movs	r5, r0
1000260c:	220c      	movs	r2, #12
1000260e:	a87a      	add	r0, sp, #488	@ 0x1e8
10002610:	9365      	str	r3, [sp, #404]	@ 0x194
10002612:	9461      	str	r4, [sp, #388]	@ 0x184
10002614:	f003 fa3e 	bl	10005a94 <__wrap_memset>
10002618:	aa64      	add	r2, sp, #400	@ 0x190
1000261a:	0010      	movs	r0, r2
1000261c:	f007 fd92 	bl	1000a144 <_ZN6tflite7testing20FloatArrayFromFloatsEPKf>
10002620:	aa60      	add	r2, sp, #384	@ 0x180
10002622:	907a      	str	r0, [sp, #488]	@ 0x1e8
10002624:	0010      	movs	r0, r2
10002626:	f007 fd8b 	bl	1000a140 <_ZN6tflite7testing16IntArrayFromIntsEPKi>
1000262a:	907b      	str	r0, [sp, #492]	@ 0x1ec
1000262c:	9813      	ldr	r0, [sp, #76]	@ 0x4c
1000262e:	94bb      	str	r4, [sp, #748]	@ 0x2ec
10002630:	f007 fc4e 	bl	10009ed0 <_ZN6tflite12ElementCountERK14TfLiteIntArray>
10002634:	9019      	str	r0, [sp, #100]	@ 0x64
10002636:	2009      	movs	r0, #9
10002638:	f006 fafa 	bl	10008c30 <_ZN6tflite17TfLiteTypeGetSizeE10TfLiteType>
1000263c:	23fe      	movs	r3, #254	@ 0xfe
1000263e:	0026      	movs	r6, r4
10002640:	465a      	mov	r2, fp
10002642:	059b      	lsls	r3, r3, #22
10002644:	9669      	str	r6, [sp, #420]	@ 0x1a4
10002646:	936c      	str	r3, [sp, #432]	@ 0x1b0
10002648:	ae7f      	add	r6, sp, #508	@ 0x1fc
1000264a:	4ba7      	ldr	r3, [pc, #668]	@ (100028e8 <main+0x185c>)
1000264c:	0004      	movs	r4, r0
1000264e:	2100      	movs	r1, #0
10002650:	0030      	movs	r0, r6
10002652:	9268      	str	r2, [sp, #416]	@ 0x1a0
10002654:	220c      	movs	r2, #12
10002656:	936d      	str	r3, [sp, #436]	@ 0x1b4
10002658:	f003 fa1c 	bl	10005a94 <__wrap_memset>
1000265c:	a96c      	add	r1, sp, #432	@ 0x1b0
1000265e:	0008      	movs	r0, r1
10002660:	f007 fd70 	bl	1000a144 <_ZN6tflite7testing20FloatArrayFromFloatsEPKf>
10002664:	a968      	add	r1, sp, #416	@ 0x1a0
10002666:	907f      	str	r0, [sp, #508]	@ 0x1fc
10002668:	0008      	movs	r0, r1
1000266a:	f007 fd69 	bl	1000a140 <_ZN6tflite7testing16IntArrayFromIntsEPKi>
1000266e:	ab3a      	add	r3, sp, #232	@ 0xe8
10002670:	21b7      	movs	r1, #183	@ 0xb7
10002672:	469c      	mov	ip, r3
10002674:	465a      	mov	r2, fp
10002676:	00c9      	lsls	r1, r1, #3
10002678:	4461      	add	r1, ip
1000267a:	600a      	str	r2, [r1, #0]
1000267c:	499b      	ldr	r1, [pc, #620]	@ (100028ec <main+0x1860>)
1000267e:	aa70      	add	r2, sp, #448	@ 0x1c0
10002680:	4461      	add	r1, ip
10002682:	600a      	str	r2, [r1, #0]
10002684:	21b8      	movs	r1, #184	@ 0xb8
10002686:	4662      	mov	r2, ip
10002688:	4b99      	ldr	r3, [pc, #612]	@ (100028f0 <main+0x1864>)
1000268a:	00c9      	lsls	r1, r1, #3
1000268c:	4461      	add	r1, ip
1000268e:	600b      	str	r3, [r1, #0]
10002690:	0013      	movs	r3, r2
10002692:	2280      	movs	r2, #128	@ 0x80
10002694:	4997      	ldr	r1, [pc, #604]	@ (100028f4 <main+0x1868>)
10002696:	4252      	negs	r2, r2
10002698:	4461      	add	r1, ip
1000269a:	600a      	str	r2, [r1, #0]
1000269c:	21b9      	movs	r1, #185	@ 0xb9
1000269e:	9a11      	ldr	r2, [sp, #68]	@ 0x44
100026a0:	00c9      	lsls	r1, r1, #3
100026a2:	4461      	add	r1, ip
100026a4:	600a      	str	r2, [r1, #0]
100026a6:	4994      	ldr	r1, [pc, #592]	@ (100028f8 <main+0x186c>)
100026a8:	9a0e      	ldr	r2, [sp, #56]	@ 0x38
100026aa:	4461      	add	r1, ip
100026ac:	600a      	str	r2, [r1, #0]
100026ae:	21ba      	movs	r1, #186	@ 0xba
100026b0:	2609      	movs	r6, #9
100026b2:	9a17      	ldr	r2, [sp, #92]	@ 0x5c
100026b4:	00c9      	lsls	r1, r1, #3
100026b6:	4461      	add	r1, ip
100026b8:	600a      	str	r2, [r1, #0]
100026ba:	4a90      	ldr	r2, [pc, #576]	@ (100028fc <main+0x1870>)
100026bc:	9080      	str	r0, [sp, #512]	@ 0x200
100026be:	1899      	adds	r1, r3, r2
100026c0:	4a8f      	ldr	r2, [pc, #572]	@ (10002900 <main+0x1874>)
100026c2:	800e      	strh	r6, [r1, #0]
100026c4:	1899      	adds	r1, r3, r2
100026c6:	2200      	movs	r2, #0
100026c8:	700a      	strb	r2, [r1, #0]
100026ca:	4659      	mov	r1, fp
100026cc:	91a0      	str	r1, [sp, #640]	@ 0x280
100026ce:	a975      	add	r1, sp, #468	@ 0x1d4
100026d0:	91a1      	str	r1, [sp, #644]	@ 0x284
100026d2:	4651      	mov	r1, sl
100026d4:	91a4      	str	r1, [sp, #656]	@ 0x290
100026d6:	4641      	mov	r1, r8
100026d8:	4b7f      	ldr	r3, [pc, #508]	@ (100028d8 <main+0x184c>)
100026da:	91a5      	str	r1, [sp, #660]	@ 0x294
100026dc:	9918      	ldr	r1, [sp, #96]	@ 0x60
100026de:	93a2      	str	r3, [sp, #648]	@ 0x288
100026e0:	23da      	movs	r3, #218	@ 0xda
100026e2:	91a6      	str	r1, [sp, #664]	@ 0x298
100026e4:	4661      	mov	r1, ip
100026e6:	005b      	lsls	r3, r3, #1
100026e8:	18c9      	adds	r1, r1, r3
100026ea:	800e      	strh	r6, [r1, #0]
100026ec:	4661      	mov	r1, ip
100026ee:	3302      	adds	r3, #2
100026f0:	18c9      	adds	r1, r1, r3
100026f2:	23bb      	movs	r3, #187	@ 0xbb
100026f4:	00db      	lsls	r3, r3, #3
100026f6:	4463      	add	r3, ip
100026f8:	700a      	strb	r2, [r1, #0]
100026fa:	0018      	movs	r0, r3
100026fc:	3220      	adds	r2, #32
100026fe:	a9a0      	add	r1, sp, #640	@ 0x280
10002700:	f003 f9ce 	bl	10005aa0 <__wrap___aeabi_memcpy>
10002704:	4659      	mov	r1, fp
10002706:	91a8      	str	r1, [sp, #672]	@ 0x2a0
10002708:	a97a      	add	r1, sp, #488	@ 0x1e8
1000270a:	91a9      	str	r1, [sp, #676]	@ 0x2a4
1000270c:	4649      	mov	r1, r9
1000270e:	437d      	muls	r5, r7
10002710:	27ea      	movs	r7, #234	@ 0xea
10002712:	91ac      	str	r1, [sp, #688]	@ 0x2b0
10002714:	9912      	ldr	r1, [sp, #72]	@ 0x48
10002716:	007f      	lsls	r7, r7, #1
10002718:	91ad      	str	r1, [sp, #692]	@ 0x2b4
1000271a:	a93a      	add	r1, sp, #232	@ 0xe8
1000271c:	19c9      	adds	r1, r1, r7
1000271e:	3fd3      	subs	r7, #211	@ 0xd3
10002720:	3fff      	subs	r7, #255	@ 0xff
10002722:	95ae      	str	r5, [sp, #696]	@ 0x2b8
10002724:	800f      	strh	r7, [r1, #0]
10002726:	37d5      	adds	r7, #213	@ 0xd5
10002728:	37ff      	adds	r7, #255	@ 0xff
1000272a:	a93a      	add	r1, sp, #232	@ 0xe8
1000272c:	19c9      	adds	r1, r1, r7
1000272e:	ab3a      	add	r3, sp, #232	@ 0xe8
10002730:	27bf      	movs	r7, #191	@ 0xbf
10002732:	469c      	mov	ip, r3
10002734:	2500      	movs	r5, #0
10002736:	00ff      	lsls	r7, r7, #3
10002738:	4467      	add	r7, ip
1000273a:	700d      	strb	r5, [r1, #0]
1000273c:	2220      	movs	r2, #32
1000273e:	a9a8      	add	r1, sp, #672	@ 0x2a0
10002740:	0038      	movs	r0, r7
10002742:	f003 f9ad 	bl	10005aa0 <__wrap___aeabi_memcpy>
10002746:	465a      	mov	r2, fp
10002748:	92b8      	str	r2, [sp, #736]	@ 0x2e0
1000274a:	aa7f      	add	r2, sp, #508	@ 0x1fc
1000274c:	92b9      	str	r2, [sp, #740]	@ 0x2e4
1000274e:	2285      	movs	r2, #133	@ 0x85
10002750:	4b65      	ldr	r3, [pc, #404]	@ (100028e8 <main+0x185c>)
10002752:	0092      	lsls	r2, r2, #2
10002754:	93ba      	str	r3, [sp, #744]	@ 0x2e8
10002756:	abb0      	add	r3, sp, #704	@ 0x2c0
10002758:	93bc      	str	r3, [sp, #752]	@ 0x2f0
1000275a:	9b13      	ldr	r3, [sp, #76]	@ 0x4c
1000275c:	a83a      	add	r0, sp, #232	@ 0xe8
1000275e:	93bd      	str	r3, [sp, #756]	@ 0x2f4
10002760:	9b19      	ldr	r3, [sp, #100]	@ 0x64
10002762:	4684      	mov	ip, r0
10002764:	435c      	muls	r4, r3
10002766:	ab3a      	add	r3, sp, #232	@ 0xe8
10002768:	189b      	adds	r3, r3, r2
1000276a:	4a66      	ldr	r2, [pc, #408]	@ (10002904 <main+0x1878>)
1000276c:	94be      	str	r4, [sp, #760]	@ 0x2f8
1000276e:	801e      	strh	r6, [r3, #0]
10002770:	ab3a      	add	r3, sp, #232	@ 0xe8
10002772:	189b      	adds	r3, r3, r2
10002774:	701d      	strb	r5, [r3, #0]
10002776:	23c3      	movs	r3, #195	@ 0xc3
10002778:	00db      	lsls	r3, r3, #3
1000277a:	4463      	add	r3, ip
1000277c:	aeff      	add	r6, sp, #1020	@ 0x3fc
1000277e:	2220      	movs	r2, #32
10002780:	0018      	movs	r0, r3
10002782:	a9b8      	add	r1, sp, #736	@ 0x2e0
10002784:	3624      	adds	r6, #36	@ 0x24
10002786:	f003 f98b 	bl	10005aa0 <__wrap___aeabi_memcpy>
1000278a:	ace8      	add	r4, sp, #928	@ 0x3a0
1000278c:	adc0      	add	r5, sp, #768	@ 0x300
1000278e:	9611      	str	r6, [sp, #68]	@ 0x44
10002790:	e005      	b.n	1000279e <main+0x1712>
10002792:	207f      	movs	r0, #127	@ 0x7f
10002794:	3404      	adds	r4, #4
10002796:	7028      	strb	r0, [r5, #0]
10002798:	3501      	adds	r5, #1
1000279a:	42a6      	cmp	r6, r4
1000279c:	d019      	beq.n	100027d2 <main+0x1746>
1000279e:	4952      	ldr	r1, [pc, #328]	@ (100028e8 <main+0x185c>)
100027a0:	6820      	ldr	r0, [r4, #0]
100027a2:	f002 fffe 	bl	100057a2 <__wrap___aeabi_fdiv>
100027a6:	f003 f8bd 	bl	10005924 <__wrap___aeabi_f2d>
100027aa:	f002 fca5 	bl	100050f8 <__wrap_round>
100027ae:	2200      	movs	r2, #0
100027b0:	2300      	movs	r3, #0
100027b2:	f002 fb45 	bl	10004e40 <__wrap___aeabi_dadd>
100027b6:	f002 fbf1 	bl	10004f9c <__wrap___aeabi_d2iz>
100027ba:	287f      	cmp	r0, #127	@ 0x7f
100027bc:	dce9      	bgt.n	10002792 <main+0x1706>
100027be:	0003      	movs	r3, r0
100027c0:	3380      	adds	r3, #128	@ 0x80
100027c2:	dae7      	bge.n	10002794 <main+0x1708>
100027c4:	2080      	movs	r0, #128	@ 0x80
100027c6:	3404      	adds	r4, #4
100027c8:	4240      	negs	r0, r0
100027ca:	7028      	strb	r0, [r5, #0]
100027cc:	3501      	adds	r5, #1
100027ce:	42a6      	cmp	r6, r4
100027d0:	d1e5      	bne.n	1000279e <main+0x1712>
100027d2:	22c4      	movs	r2, #196	@ 0xc4
100027d4:	ab3a      	add	r3, sp, #232	@ 0xe8
100027d6:	0052      	lsls	r2, r2, #1
100027d8:	189b      	adds	r3, r3, r2
100027da:	2200      	movs	r2, #0
100027dc:	701a      	strb	r2, [r3, #0]
100027de:	465b      	mov	r3, fp
100027e0:	aa3a      	add	r2, sp, #232	@ 0xe8
100027e2:	939d      	str	r3, [sp, #628]	@ 0x274
100027e4:	939e      	str	r3, [sp, #632]	@ 0x278
100027e6:	939a      	str	r3, [sp, #616]	@ 0x268
100027e8:	9399      	str	r3, [sp, #612]	@ 0x264
100027ea:	23b7      	movs	r3, #183	@ 0xb7
100027ec:	4694      	mov	ip, r2
100027ee:	00db      	lsls	r3, r3, #3
100027f0:	4463      	add	r3, ip
100027f2:	001a      	movs	r2, r3
100027f4:	a998      	add	r1, sp, #608	@ 0x260
100027f6:	a8c0      	add	r0, sp, #768	@ 0x300
100027f8:	f7fd fd6c 	bl	100002d4 <_ZN6tflite7testing12_GLOBAL__N_128ValidateDepthwiseConvGoldensIavvEE12TfLiteStatusPKT_iP25TfLiteDepthwiseConvParamsfiP12TfLiteTensor.constprop.0>
100027fc:	465a      	mov	r2, fp
100027fe:	9b10      	ldr	r3, [sp, #64]	@ 0x40
10002800:	701a      	strb	r2, [r3, #0]
10002802:	9b0d      	ldr	r3, [sp, #52]	@ 0x34
10002804:	781b      	ldrb	r3, [r3, #0]
10002806:	2b00      	cmp	r3, #0
10002808:	d001      	beq.n	1000280e <main+0x1782>
1000280a:	f000 fe22 	bl	10003452 <main+0x23c6>
1000280e:	2200      	movs	r2, #0
10002810:	9b0c      	ldr	r3, [sp, #48]	@ 0x30
10002812:	681b      	ldr	r3, [r3, #0]
10002814:	3301      	adds	r3, #1
10002816:	990c      	ldr	r1, [sp, #48]	@ 0x30
10002818:	9835      	ldr	r0, [sp, #212]	@ 0xd4
1000281a:	600b      	str	r3, [r1, #0]
1000281c:	9914      	ldr	r1, [sp, #80]	@ 0x50
1000281e:	680b      	ldr	r3, [r1, #0]
10002820:	189b      	adds	r3, r3, r2
10002822:	600b      	str	r3, [r1, #0]
10002824:	f007 fb42 	bl	10009eac <_Z11MicroPrintfPKcz>
10002828:	2300      	movs	r3, #0
1000282a:	9a10      	ldr	r2, [sp, #64]	@ 0x40
1000282c:	9d1b      	ldr	r5, [sp, #108]	@ 0x6c
1000282e:	7013      	strb	r3, [r2, #0]
10002830:	9a0d      	ldr	r2, [sp, #52]	@ 0x34
10002832:	7013      	strb	r3, [r2, #0]
10002834:	002b      	movs	r3, r5
10002836:	aa84      	add	r2, sp, #528	@ 0x210
10002838:	334c      	adds	r3, #76	@ 0x4c
1000283a:	cb13      	ldmia	r3!, {r0, r1, r4}
1000283c:	c213      	stmia	r2!, {r0, r1, r4}
1000283e:	cb03      	ldmia	r3!, {r0, r1}
10002840:	c203      	stmia	r2!, {r0, r1}
10002842:	002b      	movs	r3, r5
10002844:	aa8a      	add	r2, sp, #552	@ 0x228
10002846:	334c      	adds	r3, #76	@ 0x4c
10002848:	cb13      	ldmia	r3!, {r0, r1, r4}
1000284a:	c213      	stmia	r2!, {r0, r1, r4}
1000284c:	cb03      	ldmia	r3!, {r0, r1}
1000284e:	c203      	stmia	r2!, {r0, r1}
10002850:	465b      	mov	r3, fp
10002852:	9350      	str	r3, [sp, #320]	@ 0x140
10002854:	2320      	movs	r3, #32
10002856:	9351      	str	r3, [sp, #324]	@ 0x144
10002858:	002b      	movs	r3, r5
1000285a:	aa91      	add	r2, sp, #580	@ 0x244
1000285c:	334c      	adds	r3, #76	@ 0x4c
1000285e:	cb13      	ldmia	r3!, {r0, r1, r4}
10002860:	c213      	stmia	r2!, {r0, r1, r4}
10002862:	cb03      	ldmia	r3!, {r0, r1}
10002864:	c203      	stmia	r2!, {r0, r1}
10002866:	2280      	movs	r2, #128	@ 0x80
10002868:	9936      	ldr	r1, [sp, #216]	@ 0xd8
1000286a:	9811      	ldr	r0, [sp, #68]	@ 0x44
1000286c:	f003 f918 	bl	10005aa0 <__wrap___aeabi_memcpy>
10002870:	2280      	movs	r2, #128	@ 0x80
10002872:	9937      	ldr	r1, [sp, #220]	@ 0xdc
10002874:	4650      	mov	r0, sl
10002876:	f003 f913 	bl	10005aa0 <__wrap___aeabi_memcpy>
1000287a:	2280      	movs	r2, #128	@ 0x80
1000287c:	2100      	movs	r1, #0
1000287e:	4648      	mov	r0, r9
10002880:	f003 f908 	bl	10005a94 <__wrap_memset>
10002884:	a83a      	add	r0, sp, #232	@ 0xe8
10002886:	23b7      	movs	r3, #183	@ 0xb7
10002888:	4684      	mov	ip, r0
1000288a:	00db      	lsls	r3, r3, #3
1000288c:	4463      	add	r3, ip
1000288e:	2280      	movs	r2, #128	@ 0x80
10002890:	9938      	ldr	r1, [sp, #224]	@ 0xe0
10002892:	0018      	movs	r0, r3
10002894:	f003 f904 	bl	10005aa0 <__wrap___aeabi_memcpy>
10002898:	a884      	add	r0, sp, #528	@ 0x210
1000289a:	f007 fc51 	bl	1000a140 <_ZN6tflite7testing16IntArrayFromIntsEPKi>
1000289e:	ab8a      	add	r3, sp, #552	@ 0x228
100028a0:	0004      	movs	r4, r0
100028a2:	900e      	str	r0, [sp, #56]	@ 0x38
100028a4:	0018      	movs	r0, r3
100028a6:	f007 fc4b 	bl	1000a140 <_ZN6tflite7testing16IntArrayFromIntsEPKi>
100028aa:	ab50      	add	r3, sp, #320	@ 0x140
100028ac:	4680      	mov	r8, r0
100028ae:	0018      	movs	r0, r3
100028b0:	f007 fc46 	bl	1000a140 <_ZN6tflite7testing16IntArrayFromIntsEPKi>
100028b4:	ab91      	add	r3, sp, #580	@ 0x244
100028b6:	9012      	str	r0, [sp, #72]	@ 0x48
100028b8:	0018      	movs	r0, r3
100028ba:	f007 fc41 	bl	1000a140 <_ZN6tflite7testing16IntArrayFromIntsEPKi>
100028be:	9013      	str	r0, [sp, #76]	@ 0x4c
100028c0:	0020      	movs	r0, r4
100028c2:	f007 fb05 	bl	10009ed0 <_ZN6tflite12ElementCountERK14TfLiteIntArray>
100028c6:	2800      	cmp	r0, #0
100028c8:	dd3e      	ble.n	10002948 <main+0x18bc>
100028ca:	9b11      	ldr	r3, [sp, #68]	@ 0x44
100028cc:	0086      	lsls	r6, r0, #2
100028ce:	469c      	mov	ip, r3
100028d0:	001c      	movs	r4, r3
100028d2:	ada0      	add	r5, sp, #640	@ 0x280
100028d4:	4466      	add	r6, ip
100028d6:	e01d      	b.n	10002914 <main+0x1888>
100028d8:	3b585597 	.word	0x3b585597
100028dc:	3bb27ba2 	.word	0x3bb27ba2
100028e0:	7fffffff 	.word	0x7fffffff
100028e4:	394b9c44 	.word	0x394b9c44
100028e8:	3dbda2f9 	.word	0x3dbda2f9
100028ec:	000005bc 	.word	0x000005bc
100028f0:	3d70f16f 	.word	0x3d70f16f
100028f4:	000005c4 	.word	0x000005c4
100028f8:	000005cc 	.word	0x000005cc
100028fc:	000005d4 	.word	0x000005d4
10002900:	000005d6 	.word	0x000005d6
10002904:	00000216 	.word	0x00000216
10002908:	207f      	movs	r0, #127	@ 0x7f
1000290a:	3404      	adds	r4, #4
1000290c:	7028      	strb	r0, [r5, #0]
1000290e:	3501      	adds	r5, #1
10002910:	42a6      	cmp	r6, r4
10002912:	d019      	beq.n	10002948 <main+0x18bc>
10002914:	49dd      	ldr	r1, [pc, #884]	@ (10002c8c <main+0x1c00>)
10002916:	6820      	ldr	r0, [r4, #0]
10002918:	f002 ff43 	bl	100057a2 <__wrap___aeabi_fdiv>
1000291c:	f003 f802 	bl	10005924 <__wrap___aeabi_f2d>
10002920:	f002 fbea 	bl	100050f8 <__wrap_round>
10002924:	2200      	movs	r2, #0
10002926:	4bda      	ldr	r3, [pc, #872]	@ (10002c90 <main+0x1c04>)
10002928:	f002 fa81 	bl	10004e2e <__wrap___aeabi_dsub>
1000292c:	f002 fb36 	bl	10004f9c <__wrap___aeabi_d2iz>
10002930:	287f      	cmp	r0, #127	@ 0x7f
10002932:	dce9      	bgt.n	10002908 <main+0x187c>
10002934:	0003      	movs	r3, r0
10002936:	3380      	adds	r3, #128	@ 0x80
10002938:	dae7      	bge.n	1000290a <main+0x187e>
1000293a:	2080      	movs	r0, #128	@ 0x80
1000293c:	3404      	adds	r4, #4
1000293e:	4240      	negs	r0, r0
10002940:	7028      	strb	r0, [r5, #0]
10002942:	3501      	adds	r5, #1
10002944:	42a6      	cmp	r6, r4
10002946:	d1e5      	bne.n	10002914 <main+0x1888>
10002948:	980e      	ldr	r0, [sp, #56]	@ 0x38
1000294a:	f007 fac1 	bl	10009ed0 <_ZN6tflite12ElementCountERK14TfLiteIntArray>
1000294e:	0004      	movs	r4, r0
10002950:	2009      	movs	r0, #9
10002952:	f006 f96d 	bl	10008c30 <_ZN6tflite17TfLiteTypeGetSizeE10TfLiteType>
10002956:	465b      	mov	r3, fp
10002958:	9353      	str	r3, [sp, #332]	@ 0x14c
1000295a:	2380      	movs	r3, #128	@ 0x80
1000295c:	425b      	negs	r3, r3
1000295e:	9354      	str	r3, [sp, #336]	@ 0x150
10002960:	23fe      	movs	r3, #254	@ 0xfe
10002962:	4360      	muls	r0, r4
10002964:	059b      	lsls	r3, r3, #22
10002966:	9356      	str	r3, [sp, #344]	@ 0x158
10002968:	4bc8      	ldr	r3, [pc, #800]	@ (10002c8c <main+0x1c00>)
1000296a:	220c      	movs	r2, #12
1000296c:	2100      	movs	r1, #0
1000296e:	9017      	str	r0, [sp, #92]	@ 0x5c
10002970:	a870      	add	r0, sp, #448	@ 0x1c0
10002972:	9357      	str	r3, [sp, #348]	@ 0x15c
10002974:	f003 f88e 	bl	10005a94 <__wrap_memset>
10002978:	a856      	add	r0, sp, #344	@ 0x158
1000297a:	f007 fbe3 	bl	1000a144 <_ZN6tflite7testing20FloatArrayFromFloatsEPKf>
1000297e:	9070      	str	r0, [sp, #448]	@ 0x1c0
10002980:	a853      	add	r0, sp, #332	@ 0x14c
10002982:	f007 fbdd 	bl	1000a140 <_ZN6tflite7testing16IntArrayFromIntsEPKi>
10002986:	9071      	str	r0, [sp, #452]	@ 0x1c4
10002988:	4640      	mov	r0, r8
1000298a:	f007 faa1 	bl	10009ed0 <_ZN6tflite12ElementCountERK14TfLiteIntArray>
1000298e:	2800      	cmp	r0, #0
10002990:	dd24      	ble.n	100029dc <main+0x1950>
10002992:	0086      	lsls	r6, r0, #2
10002994:	4654      	mov	r4, sl
10002996:	ada8      	add	r5, sp, #672	@ 0x2a0
10002998:	4456      	add	r6, sl
1000299a:	e005      	b.n	100029a8 <main+0x191c>
1000299c:	207f      	movs	r0, #127	@ 0x7f
1000299e:	3404      	adds	r4, #4
100029a0:	7028      	strb	r0, [r5, #0]
100029a2:	3501      	adds	r5, #1
100029a4:	42a6      	cmp	r6, r4
100029a6:	d019      	beq.n	100029dc <main+0x1950>
100029a8:	49ba      	ldr	r1, [pc, #744]	@ (10002c94 <main+0x1c08>)
100029aa:	6820      	ldr	r0, [r4, #0]
100029ac:	f002 fef9 	bl	100057a2 <__wrap___aeabi_fdiv>
100029b0:	f002 ffb8 	bl	10005924 <__wrap___aeabi_f2d>
100029b4:	f002 fba0 	bl	100050f8 <__wrap_round>
100029b8:	2200      	movs	r2, #0
100029ba:	2300      	movs	r3, #0
100029bc:	f002 fa40 	bl	10004e40 <__wrap___aeabi_dadd>
100029c0:	f002 faec 	bl	10004f9c <__wrap___aeabi_d2iz>
100029c4:	287f      	cmp	r0, #127	@ 0x7f
100029c6:	dce9      	bgt.n	1000299c <main+0x1910>
100029c8:	0003      	movs	r3, r0
100029ca:	3380      	adds	r3, #128	@ 0x80
100029cc:	dae7      	bge.n	1000299e <main+0x1912>
100029ce:	2080      	movs	r0, #128	@ 0x80
100029d0:	3404      	adds	r4, #4
100029d2:	4240      	negs	r0, r0
100029d4:	7028      	strb	r0, [r5, #0]
100029d6:	3501      	adds	r5, #1
100029d8:	42a6      	cmp	r6, r4
100029da:	d1e5      	bne.n	100029a8 <main+0x191c>
100029dc:	2500      	movs	r5, #0
100029de:	4640      	mov	r0, r8
100029e0:	95b3      	str	r5, [sp, #716]	@ 0x2cc
100029e2:	f007 fa75 	bl	10009ed0 <_ZN6tflite12ElementCountERK14TfLiteIntArray>
100029e6:	0004      	movs	r4, r0
100029e8:	2009      	movs	r0, #9
100029ea:	f006 f921 	bl	10008c30 <_ZN6tflite17TfLiteTypeGetSizeE10TfLiteType>
100029ee:	465b      	mov	r3, fp
100029f0:	9359      	str	r3, [sp, #356]	@ 0x164
100029f2:	23fe      	movs	r3, #254	@ 0xfe
100029f4:	4360      	muls	r0, r4
100029f6:	059b      	lsls	r3, r3, #22
100029f8:	935c      	str	r3, [sp, #368]	@ 0x170
100029fa:	4ba6      	ldr	r3, [pc, #664]	@ (10002c94 <main+0x1c08>)
100029fc:	220c      	movs	r2, #12
100029fe:	2100      	movs	r1, #0
10002a00:	9018      	str	r0, [sp, #96]	@ 0x60
10002a02:	a875      	add	r0, sp, #468	@ 0x1d4
10002a04:	935d      	str	r3, [sp, #372]	@ 0x174
10002a06:	955a      	str	r5, [sp, #360]	@ 0x168
10002a08:	f003 f844 	bl	10005a94 <__wrap_memset>
10002a0c:	a85c      	add	r0, sp, #368	@ 0x170
10002a0e:	f007 fb99 	bl	1000a144 <_ZN6tflite7testing20FloatArrayFromFloatsEPKf>
10002a12:	9075      	str	r0, [sp, #468]	@ 0x1d4
10002a14:	a859      	add	r0, sp, #356	@ 0x164
10002a16:	f007 fb93 	bl	1000a140 <_ZN6tflite7testing16IntArrayFromIntsEPKi>
10002a1a:	23d7      	movs	r3, #215	@ 0xd7
10002a1c:	aa3a      	add	r2, sp, #232	@ 0xe8
10002a1e:	4694      	mov	ip, r2
10002a20:	2680      	movs	r6, #128	@ 0x80
10002a22:	002c      	movs	r4, r5
10002a24:	00db      	lsls	r3, r3, #3
10002a26:	4463      	add	r3, ip
10002a28:	9076      	str	r0, [sp, #472]	@ 0x1d8
10002a2a:	601d      	str	r5, [r3, #0]
10002a2c:	0636      	lsls	r6, r6, #24
10002a2e:	464b      	mov	r3, r9
10002a30:	191b      	adds	r3, r3, r4
10002a32:	6858      	ldr	r0, [r3, #4]
10002a34:	4998      	ldr	r1, [pc, #608]	@ (10002c98 <main+0x1c0c>)
10002a36:	f002 feb4 	bl	100057a2 <__wrap___aeabi_fdiv>
10002a3a:	f002 ff73 	bl	10005924 <__wrap___aeabi_f2d>
10002a3e:	f002 fb5b 	bl	100050f8 <__wrap_round>
10002a42:	23d7      	movs	r3, #215	@ 0xd7
10002a44:	aa3a      	add	r2, sp, #232	@ 0xe8
10002a46:	4694      	mov	ip, r2
10002a48:	00db      	lsls	r3, r3, #3
10002a4a:	4463      	add	r3, ip
10002a4c:	191d      	adds	r5, r3, r4
10002a4e:	f002 fac9 	bl	10004fe4 <__wrap___aeabi_d2lz>
10002a52:	2900      	cmp	r1, #0
10002a54:	dc00      	bgt.n	10002a58 <main+0x19cc>
10002a56:	e108      	b.n	10002c6a <main+0x1bde>
10002a58:	4890      	ldr	r0, [pc, #576]	@ (10002c9c <main+0x1c10>)
10002a5a:	3404      	adds	r4, #4
10002a5c:	6068      	str	r0, [r5, #4]
10002a5e:	2c7c      	cmp	r4, #124	@ 0x7c
10002a60:	d1e5      	bne.n	10002a2e <main+0x19a2>
10002a62:	2208      	movs	r2, #8
10002a64:	2100      	movs	r1, #0
10002a66:	a8ba      	add	r0, sp, #744	@ 0x2e8
10002a68:	f003 f814 	bl	10005a94 <__wrap_memset>
10002a6c:	9812      	ldr	r0, [sp, #72]	@ 0x48
10002a6e:	f007 fa2f 	bl	10009ed0 <_ZN6tflite12ElementCountERK14TfLiteIntArray>
10002a72:	0007      	movs	r7, r0
10002a74:	2002      	movs	r0, #2
10002a76:	f006 f8db 	bl	10008c30 <_ZN6tflite17TfLiteTypeGetSizeE10TfLiteType>
10002a7a:	465b      	mov	r3, fp
10002a7c:	9360      	str	r3, [sp, #384]	@ 0x180
10002a7e:	23fe      	movs	r3, #254	@ 0xfe
10002a80:	2400      	movs	r4, #0
10002a82:	059b      	lsls	r3, r3, #22
10002a84:	9364      	str	r3, [sp, #400]	@ 0x190
10002a86:	4b86      	ldr	r3, [pc, #536]	@ (10002ca0 <main+0x1c14>)
10002a88:	2100      	movs	r1, #0
10002a8a:	0005      	movs	r5, r0
10002a8c:	220c      	movs	r2, #12
10002a8e:	a87a      	add	r0, sp, #488	@ 0x1e8
10002a90:	9365      	str	r3, [sp, #404]	@ 0x194
10002a92:	9461      	str	r4, [sp, #388]	@ 0x184
10002a94:	f002 fffe 	bl	10005a94 <__wrap_memset>
10002a98:	aa64      	add	r2, sp, #400	@ 0x190
10002a9a:	0010      	movs	r0, r2
10002a9c:	f007 fb52 	bl	1000a144 <_ZN6tflite7testing20FloatArrayFromFloatsEPKf>
10002aa0:	aa60      	add	r2, sp, #384	@ 0x180
10002aa2:	907a      	str	r0, [sp, #488]	@ 0x1e8
10002aa4:	0010      	movs	r0, r2
10002aa6:	f007 fb4b 	bl	1000a140 <_ZN6tflite7testing16IntArrayFromIntsEPKi>
10002aaa:	907b      	str	r0, [sp, #492]	@ 0x1ec
10002aac:	9813      	ldr	r0, [sp, #76]	@ 0x4c
10002aae:	94cb      	str	r4, [sp, #812]	@ 0x32c
10002ab0:	f007 fa0e 	bl	10009ed0 <_ZN6tflite12ElementCountERK14TfLiteIntArray>
10002ab4:	9019      	str	r0, [sp, #100]	@ 0x64
10002ab6:	2009      	movs	r0, #9
10002ab8:	f006 f8ba 	bl	10008c30 <_ZN6tflite17TfLiteTypeGetSizeE10TfLiteType>
10002abc:	23fe      	movs	r3, #254	@ 0xfe
10002abe:	0026      	movs	r6, r4
10002ac0:	465a      	mov	r2, fp
10002ac2:	059b      	lsls	r3, r3, #22
10002ac4:	9669      	str	r6, [sp, #420]	@ 0x1a4
10002ac6:	936c      	str	r3, [sp, #432]	@ 0x1b0
10002ac8:	ae7f      	add	r6, sp, #508	@ 0x1fc
10002aca:	4b76      	ldr	r3, [pc, #472]	@ (10002ca4 <main+0x1c18>)
10002acc:	0004      	movs	r4, r0
10002ace:	2100      	movs	r1, #0
10002ad0:	0030      	movs	r0, r6
10002ad2:	9268      	str	r2, [sp, #416]	@ 0x1a0
10002ad4:	220c      	movs	r2, #12
10002ad6:	936d      	str	r3, [sp, #436]	@ 0x1b4
10002ad8:	f002 ffdc 	bl	10005a94 <__wrap_memset>
10002adc:	a96c      	add	r1, sp, #432	@ 0x1b0
10002ade:	0008      	movs	r0, r1
10002ae0:	f007 fb30 	bl	1000a144 <_ZN6tflite7testing20FloatArrayFromFloatsEPKf>
10002ae4:	a968      	add	r1, sp, #416	@ 0x1a0
10002ae6:	907f      	str	r0, [sp, #508]	@ 0x1fc
10002ae8:	0008      	movs	r0, r1
10002aea:	f007 fb29 	bl	1000a140 <_ZN6tflite7testing16IntArrayFromIntsEPKi>
10002aee:	ab3a      	add	r3, sp, #232	@ 0xe8
10002af0:	469c      	mov	ip, r3
10002af2:	465a      	mov	r2, fp
10002af4:	496c      	ldr	r1, [pc, #432]	@ (10002ca8 <main+0x1c1c>)
10002af6:	4b65      	ldr	r3, [pc, #404]	@ (10002c8c <main+0x1c00>)
10002af8:	4461      	add	r1, ip
10002afa:	600a      	str	r2, [r1, #0]
10002afc:	496b      	ldr	r1, [pc, #428]	@ (10002cac <main+0x1c20>)
10002afe:	aa70      	add	r2, sp, #448	@ 0x1c0
10002b00:	4461      	add	r1, ip
10002b02:	600a      	str	r2, [r1, #0]
10002b04:	218c      	movs	r1, #140	@ 0x8c
10002b06:	4662      	mov	r2, ip
10002b08:	0109      	lsls	r1, r1, #4
10002b0a:	4461      	add	r1, ip
10002b0c:	600b      	str	r3, [r1, #0]
10002b0e:	0013      	movs	r3, r2
10002b10:	2280      	movs	r2, #128	@ 0x80
10002b12:	4967      	ldr	r1, [pc, #412]	@ (10002cb0 <main+0x1c24>)
10002b14:	4252      	negs	r2, r2
10002b16:	4461      	add	r1, ip
10002b18:	600a      	str	r2, [r1, #0]
10002b1a:	4966      	ldr	r1, [pc, #408]	@ (10002cb4 <main+0x1c28>)
10002b1c:	aaa0      	add	r2, sp, #640	@ 0x280
10002b1e:	4461      	add	r1, ip
10002b20:	600a      	str	r2, [r1, #0]
10002b22:	4965      	ldr	r1, [pc, #404]	@ (10002cb8 <main+0x1c2c>)
10002b24:	9a0e      	ldr	r2, [sp, #56]	@ 0x38
10002b26:	4461      	add	r1, ip
10002b28:	600a      	str	r2, [r1, #0]
10002b2a:	218d      	movs	r1, #141	@ 0x8d
10002b2c:	2609      	movs	r6, #9
10002b2e:	9a17      	ldr	r2, [sp, #92]	@ 0x5c
10002b30:	0109      	lsls	r1, r1, #4
10002b32:	4461      	add	r1, ip
10002b34:	600a      	str	r2, [r1, #0]
10002b36:	4a61      	ldr	r2, [pc, #388]	@ (10002cbc <main+0x1c30>)
10002b38:	9080      	str	r0, [sp, #512]	@ 0x200
10002b3a:	1899      	adds	r1, r3, r2
10002b3c:	4a60      	ldr	r2, [pc, #384]	@ (10002cc0 <main+0x1c34>)
10002b3e:	800e      	strh	r6, [r1, #0]
10002b40:	1899      	adds	r1, r3, r2
10002b42:	2200      	movs	r2, #0
10002b44:	700a      	strb	r2, [r1, #0]
10002b46:	4659      	mov	r1, fp
10002b48:	91b0      	str	r1, [sp, #704]	@ 0x2c0
10002b4a:	a975      	add	r1, sp, #468	@ 0x1d4
10002b4c:	91b1      	str	r1, [sp, #708]	@ 0x2c4
10002b4e:	a9a8      	add	r1, sp, #672	@ 0x2a0
10002b50:	91b4      	str	r1, [sp, #720]	@ 0x2d0
10002b52:	4641      	mov	r1, r8
10002b54:	4b4f      	ldr	r3, [pc, #316]	@ (10002c94 <main+0x1c08>)
10002b56:	91b5      	str	r1, [sp, #724]	@ 0x2d4
10002b58:	9918      	ldr	r1, [sp, #96]	@ 0x60
10002b5a:	93b2      	str	r3, [sp, #712]	@ 0x2c8
10002b5c:	23fa      	movs	r3, #250	@ 0xfa
10002b5e:	91b6      	str	r1, [sp, #728]	@ 0x2d8
10002b60:	4661      	mov	r1, ip
10002b62:	005b      	lsls	r3, r3, #1
10002b64:	18c9      	adds	r1, r1, r3
10002b66:	800e      	strh	r6, [r1, #0]
10002b68:	4661      	mov	r1, ip
10002b6a:	3302      	adds	r3, #2
10002b6c:	18c9      	adds	r1, r1, r3
10002b6e:	4b55      	ldr	r3, [pc, #340]	@ (10002cc4 <main+0x1c38>)
10002b70:	700a      	strb	r2, [r1, #0]
10002b72:	4463      	add	r3, ip
10002b74:	0018      	movs	r0, r3
10002b76:	3220      	adds	r2, #32
10002b78:	a9b0      	add	r1, sp, #704	@ 0x2c0
10002b7a:	f002 ff91 	bl	10005aa0 <__wrap___aeabi_memcpy>
10002b7e:	4659      	mov	r1, fp
10002b80:	91b8      	str	r1, [sp, #736]	@ 0x2e0
10002b82:	a97a      	add	r1, sp, #488	@ 0x1e8
10002b84:	ab3a      	add	r3, sp, #232	@ 0xe8
10002b86:	91b9      	str	r1, [sp, #740]	@ 0x2e4
10002b88:	21d7      	movs	r1, #215	@ 0xd7
10002b8a:	469c      	mov	ip, r3
10002b8c:	437d      	muls	r5, r7
10002b8e:	2785      	movs	r7, #133	@ 0x85
10002b90:	00c9      	lsls	r1, r1, #3
10002b92:	4461      	add	r1, ip
10002b94:	91bc      	str	r1, [sp, #752]	@ 0x2f0
10002b96:	9912      	ldr	r1, [sp, #72]	@ 0x48
10002b98:	00bf      	lsls	r7, r7, #2
10002b9a:	91bd      	str	r1, [sp, #756]	@ 0x2f4
10002b9c:	19d9      	adds	r1, r3, r7
10002b9e:	2702      	movs	r7, #2
10002ba0:	95be      	str	r5, [sp, #760]	@ 0x2f8
10002ba2:	2500      	movs	r5, #0
10002ba4:	800f      	strh	r7, [r1, #0]
10002ba6:	4f48      	ldr	r7, [pc, #288]	@ (10002cc8 <main+0x1c3c>)
10002ba8:	2220      	movs	r2, #32
10002baa:	19d9      	adds	r1, r3, r7
10002bac:	4f47      	ldr	r7, [pc, #284]	@ (10002ccc <main+0x1c40>)
10002bae:	700d      	strb	r5, [r1, #0]
10002bb0:	4467      	add	r7, ip
10002bb2:	a9b8      	add	r1, sp, #736	@ 0x2e0
10002bb4:	0038      	movs	r0, r7
10002bb6:	f002 ff73 	bl	10005aa0 <__wrap___aeabi_memcpy>
10002bba:	465a      	mov	r2, fp
10002bbc:	92c8      	str	r2, [sp, #800]	@ 0x320
10002bbe:	aa7f      	add	r2, sp, #508	@ 0x1fc
10002bc0:	92c9      	str	r2, [sp, #804]	@ 0x324
10002bc2:	2295      	movs	r2, #149	@ 0x95
10002bc4:	a83a      	add	r0, sp, #232	@ 0xe8
10002bc6:	4684      	mov	ip, r0
10002bc8:	4b36      	ldr	r3, [pc, #216]	@ (10002ca4 <main+0x1c18>)
10002bca:	0092      	lsls	r2, r2, #2
10002bcc:	93ca      	str	r3, [sp, #808]	@ 0x328
10002bce:	abc0      	add	r3, sp, #768	@ 0x300
10002bd0:	93cc      	str	r3, [sp, #816]	@ 0x330
10002bd2:	9b13      	ldr	r3, [sp, #76]	@ 0x4c
10002bd4:	a9c8      	add	r1, sp, #800	@ 0x320
10002bd6:	93cd      	str	r3, [sp, #820]	@ 0x334
10002bd8:	9b19      	ldr	r3, [sp, #100]	@ 0x64
10002bda:	435c      	muls	r4, r3
10002bdc:	ab3a      	add	r3, sp, #232	@ 0xe8
10002bde:	189b      	adds	r3, r3, r2
10002be0:	4a3b      	ldr	r2, [pc, #236]	@ (10002cd0 <main+0x1c44>)
10002be2:	94ce      	str	r4, [sp, #824]	@ 0x338
10002be4:	801e      	strh	r6, [r3, #0]
10002be6:	ab3a      	add	r3, sp, #232	@ 0xe8
10002be8:	189b      	adds	r3, r3, r2
10002bea:	701d      	strb	r5, [r3, #0]
10002bec:	4b39      	ldr	r3, [pc, #228]	@ (10002cd4 <main+0x1c48>)
10002bee:	2220      	movs	r2, #32
10002bf0:	4463      	add	r3, ip
10002bf2:	0018      	movs	r0, r3
10002bf4:	f002 ff54 	bl	10005aa0 <__wrap___aeabi_memcpy>
10002bf8:	23b7      	movs	r3, #183	@ 0xb7
10002bfa:	aa3a      	add	r2, sp, #232	@ 0xe8
10002bfc:	4694      	mov	ip, r2
10002bfe:	00db      	lsls	r3, r3, #3
10002c00:	4463      	add	r3, ip
10002c02:	001c      	movs	r4, r3
10002c04:	ade8      	add	r5, sp, #928	@ 0x3a0
10002c06:	e00a      	b.n	10002c1e <main+0x1b92>
10002c08:	207f      	movs	r0, #127	@ 0x7f
10002c0a:	23c7      	movs	r3, #199	@ 0xc7
10002c0c:	aa3a      	add	r2, sp, #232	@ 0xe8
10002c0e:	4694      	mov	ip, r2
10002c10:	00db      	lsls	r3, r3, #3
10002c12:	3404      	adds	r4, #4
10002c14:	4463      	add	r3, ip
10002c16:	7028      	strb	r0, [r5, #0]
10002c18:	3501      	adds	r5, #1
10002c1a:	42a3      	cmp	r3, r4
10002c1c:	d05e      	beq.n	10002cdc <main+0x1c50>
10002c1e:	4921      	ldr	r1, [pc, #132]	@ (10002ca4 <main+0x1c18>)
10002c20:	6820      	ldr	r0, [r4, #0]
10002c22:	f002 fdbe 	bl	100057a2 <__wrap___aeabi_fdiv>
10002c26:	f002 fe7d 	bl	10005924 <__wrap___aeabi_f2d>
10002c2a:	f002 fa65 	bl	100050f8 <__wrap_round>
10002c2e:	2200      	movs	r2, #0
10002c30:	2300      	movs	r3, #0
10002c32:	f002 f905 	bl	10004e40 <__wrap___aeabi_dadd>
10002c36:	f002 f9b1 	bl	10004f9c <__wrap___aeabi_d2iz>
10002c3a:	287f      	cmp	r0, #127	@ 0x7f
10002c3c:	dce4      	bgt.n	10002c08 <main+0x1b7c>
10002c3e:	0003      	movs	r3, r0
10002c40:	3380      	adds	r3, #128	@ 0x80
10002c42:	dae2      	bge.n	10002c0a <main+0x1b7e>
10002c44:	2080      	movs	r0, #128	@ 0x80
10002c46:	4240      	negs	r0, r0
10002c48:	e7df      	b.n	10002c0a <main+0x1b7e>
10002c4a:	2900      	cmp	r1, #0
10002c4c:	d103      	bne.n	10002c56 <main+0x1bca>
10002c4e:	42b0      	cmp	r0, r6
10002c50:	d200      	bcs.n	10002c54 <main+0x1bc8>
10002c52:	e4c2      	b.n	100025da <main+0x154e>
10002c54:	e4c0      	b.n	100025d8 <main+0x154c>
10002c56:	1c4b      	adds	r3, r1, #1
10002c58:	db05      	blt.n	10002c66 <main+0x1bda>
10002c5a:	3101      	adds	r1, #1
10002c5c:	d000      	beq.n	10002c60 <main+0x1bd4>
10002c5e:	e4bc      	b.n	100025da <main+0x154e>
10002c60:	42b0      	cmp	r0, r6
10002c62:	d900      	bls.n	10002c66 <main+0x1bda>
10002c64:	e4b9      	b.n	100025da <main+0x154e>
10002c66:	481c      	ldr	r0, [pc, #112]	@ (10002cd8 <main+0x1c4c>)
10002c68:	e4b7      	b.n	100025da <main+0x154e>
10002c6a:	2900      	cmp	r1, #0
10002c6c:	d103      	bne.n	10002c76 <main+0x1bea>
10002c6e:	42b0      	cmp	r0, r6
10002c70:	d200      	bcs.n	10002c74 <main+0x1be8>
10002c72:	e6f2      	b.n	10002a5a <main+0x19ce>
10002c74:	e6f0      	b.n	10002a58 <main+0x19cc>
10002c76:	1c4b      	adds	r3, r1, #1
10002c78:	db05      	blt.n	10002c86 <main+0x1bfa>
10002c7a:	3101      	adds	r1, #1
10002c7c:	d000      	beq.n	10002c80 <main+0x1bf4>
10002c7e:	e6ec      	b.n	10002a5a <main+0x19ce>
10002c80:	42b0      	cmp	r0, r6
10002c82:	d900      	bls.n	10002c86 <main+0x1bfa>
10002c84:	e6e9      	b.n	10002a5a <main+0x19ce>
10002c86:	4814      	ldr	r0, [pc, #80]	@ (10002cd8 <main+0x1c4c>)
10002c88:	e6e7      	b.n	10002a5a <main+0x19ce>
10002c8a:	46c0      	nop			@ (mov r8, r8)
10002c8c:	3d70f16f 	.word	0x3d70f16f
10002c90:	40600000 	.word	0x40600000
10002c94:	3b585597 	.word	0x3b585597
10002c98:	3bb27ba2 	.word	0x3bb27ba2
10002c9c:	7fffffff 	.word	0x7fffffff
10002ca0:	394b9c44 	.word	0x394b9c44
10002ca4:	3dbda2f9 	.word	0x3dbda2f9
10002ca8:	000008b8 	.word	0x000008b8
10002cac:	000008bc 	.word	0x000008bc
10002cb0:	000008c4 	.word	0x000008c4
10002cb4:	000008c8 	.word	0x000008c8
10002cb8:	000008cc 	.word	0x000008cc
10002cbc:	000008d4 	.word	0x000008d4
10002cc0:	000008d6 	.word	0x000008d6
10002cc4:	000008d8 	.word	0x000008d8
10002cc8:	00000216 	.word	0x00000216
10002ccc:	000008f8 	.word	0x000008f8
10002cd0:	00000256 	.word	0x00000256
10002cd4:	00000918 	.word	0x00000918
10002cd8:	80000001 	.word	0x80000001
10002cdc:	0013      	movs	r3, r2
10002cde:	22c4      	movs	r2, #196	@ 0xc4
10002ce0:	0052      	lsls	r2, r2, #1
10002ce2:	189b      	adds	r3, r3, r2
10002ce4:	2200      	movs	r2, #0
10002ce6:	701a      	strb	r2, [r3, #0]
10002ce8:	465b      	mov	r3, fp
10002cea:	939d      	str	r3, [sp, #628]	@ 0x274
10002cec:	939e      	str	r3, [sp, #632]	@ 0x278
10002cee:	2302      	movs	r3, #2
10002cf0:	939a      	str	r3, [sp, #616]	@ 0x268
10002cf2:	9399      	str	r3, [sp, #612]	@ 0x264
10002cf4:	4be0      	ldr	r3, [pc, #896]	@ (10003078 <main+0x1fec>)
10002cf6:	a998      	add	r1, sp, #608	@ 0x260
10002cf8:	4463      	add	r3, ip
10002cfa:	001a      	movs	r2, r3
10002cfc:	a8e8      	add	r0, sp, #928	@ 0x3a0
10002cfe:	f7fd fae9 	bl	100002d4 <_ZN6tflite7testing12_GLOBAL__N_128ValidateDepthwiseConvGoldensIavvEE12TfLiteStatusPKT_iP25TfLiteDepthwiseConvParamsfiP12TfLiteTensor.constprop.0>
10002d02:	2800      	cmp	r0, #0
10002d04:	d001      	beq.n	10002d0a <main+0x1c7e>
10002d06:	f000 fc35 	bl	10003574 <main+0x24e8>
10002d0a:	4659      	mov	r1, fp
10002d0c:	9b0d      	ldr	r3, [sp, #52]	@ 0x34
10002d0e:	781a      	ldrb	r2, [r3, #0]
10002d10:	9b10      	ldr	r3, [sp, #64]	@ 0x40
10002d12:	7019      	strb	r1, [r3, #0]
10002d14:	9b0c      	ldr	r3, [sp, #48]	@ 0x30
10002d16:	681b      	ldr	r3, [r3, #0]
10002d18:	2a00      	cmp	r2, #0
10002d1a:	d001      	beq.n	10002d20 <main+0x1c94>
10002d1c:	f000 fc83 	bl	10003626 <main+0x259a>
10002d20:	2200      	movs	r2, #0
10002d22:	3301      	adds	r3, #1
10002d24:	2600      	movs	r6, #0
10002d26:	990c      	ldr	r1, [sp, #48]	@ 0x30
10002d28:	9839      	ldr	r0, [sp, #228]	@ 0xe4
10002d2a:	600b      	str	r3, [r1, #0]
10002d2c:	9914      	ldr	r1, [sp, #80]	@ 0x50
10002d2e:	afc8      	add	r7, sp, #800	@ 0x320
10002d30:	680b      	ldr	r3, [r1, #0]
10002d32:	189b      	adds	r3, r3, r2
10002d34:	600b      	str	r3, [r1, #0]
10002d36:	f007 f8b9 	bl	10009eac <_Z11MicroPrintfPKcz>
10002d3a:	9d15      	ldr	r5, [sp, #84]	@ 0x54
10002d3c:	9b10      	ldr	r3, [sp, #64]	@ 0x40
10002d3e:	9a0d      	ldr	r2, [sp, #52]	@ 0x34
10002d40:	701e      	strb	r6, [r3, #0]
10002d42:	002b      	movs	r3, r5
10002d44:	7016      	strb	r6, [r2, #0]
10002d46:	3318      	adds	r3, #24
10002d48:	cb13      	ldmia	r3!, {r0, r1, r4}
10002d4a:	c713      	stmia	r7!, {r0, r1, r4}
10002d4c:	003a      	movs	r2, r7
10002d4e:	cb03      	ldmia	r3!, {r0, r1}
10002d50:	c203      	stmia	r2!, {r0, r1}
10002d52:	a93a      	add	r1, sp, #232	@ 0xe8
10002d54:	22d7      	movs	r2, #215	@ 0xd7
10002d56:	468c      	mov	ip, r1
10002d58:	002b      	movs	r3, r5
10002d5a:	00d2      	lsls	r2, r2, #3
10002d5c:	4462      	add	r2, ip
10002d5e:	332c      	adds	r3, #44	@ 0x2c
10002d60:	cb13      	ldmia	r3!, {r0, r1, r4}
10002d62:	c213      	stmia	r2!, {r0, r1, r4}
10002d64:	cb13      	ldmia	r3!, {r0, r1, r4}
10002d66:	c213      	stmia	r2!, {r0, r1, r4}
10002d68:	cb13      	ldmia	r3!, {r0, r1, r4}
10002d6a:	c213      	stmia	r2!, {r0, r1, r4}
10002d6c:	cb13      	ldmia	r3!, {r0, r1, r4}
10002d6e:	c213      	stmia	r2!, {r0, r1, r4}
10002d70:	002b      	movs	r3, r5
10002d72:	ade8      	add	r5, sp, #928	@ 0x3a0
10002d74:	335c      	adds	r3, #92	@ 0x5c
10002d76:	cb13      	ldmia	r3!, {r0, r1, r4}
10002d78:	c513      	stmia	r5!, {r0, r1, r4}
10002d7a:	002a      	movs	r2, r5
10002d7c:	cb03      	ldmia	r3!, {r0, r1}
10002d7e:	c203      	stmia	r2!, {r0, r1}
10002d80:	48bd      	ldr	r0, [pc, #756]	@ (10003078 <main+0x1fec>)
10002d82:	991b      	ldr	r1, [sp, #108]	@ 0x6c
10002d84:	2240      	movs	r2, #64	@ 0x40
10002d86:	3160      	adds	r1, #96	@ 0x60
10002d88:	4460      	add	r0, ip
10002d8a:	f002 fe89 	bl	10005aa0 <__wrap___aeabi_memcpy>
10002d8e:	9d16      	ldr	r5, [sp, #88]	@ 0x58
10002d90:	9f11      	ldr	r7, [sp, #68]	@ 0x44
10002d92:	002b      	movs	r3, r5
10002d94:	003a      	movs	r2, r7
10002d96:	3330      	adds	r3, #48	@ 0x30
10002d98:	cb13      	ldmia	r3!, {r0, r1, r4}
10002d9a:	c213      	stmia	r2!, {r0, r1, r4}
10002d9c:	cb03      	ldmia	r3!, {r0, r1}
10002d9e:	c203      	stmia	r2!, {r0, r1}
10002da0:	002b      	movs	r3, r5
10002da2:	aab0      	add	r2, sp, #704	@ 0x2c0
10002da4:	3344      	adds	r3, #68	@ 0x44
10002da6:	cb13      	ldmia	r3!, {r0, r1, r4}
10002da8:	c213      	stmia	r2!, {r0, r1, r4}
10002daa:	681b      	ldr	r3, [r3, #0]
10002dac:	6013      	str	r3, [r2, #0]
10002dae:	9926      	ldr	r1, [sp, #152]	@ 0x98
10002db0:	22b7      	movs	r2, #183	@ 0xb7
10002db2:	3120      	adds	r1, #32
10002db4:	000b      	movs	r3, r1
10002db6:	a93a      	add	r1, sp, #232	@ 0xe8
10002db8:	468c      	mov	ip, r1
10002dba:	00d2      	lsls	r2, r2, #3
10002dbc:	4462      	add	r2, ip
10002dbe:	cb13      	ldmia	r3!, {r0, r1, r4}
10002dc0:	c213      	stmia	r2!, {r0, r1, r4}
10002dc2:	cb13      	ldmia	r3!, {r0, r1, r4}
10002dc4:	c213      	stmia	r2!, {r0, r1, r4}
10002dc6:	cb03      	ldmia	r3!, {r0, r1}
10002dc8:	c203      	stmia	r2!, {r0, r1}
10002dca:	002b      	movs	r3, r5
10002dcc:	4655      	mov	r5, sl
10002dce:	3374      	adds	r3, #116	@ 0x74
10002dd0:	cb13      	ldmia	r3!, {r0, r1, r4}
10002dd2:	c513      	stmia	r5!, {r0, r1, r4}
10002dd4:	002a      	movs	r2, r5
10002dd6:	465c      	mov	r4, fp
10002dd8:	cb03      	ldmia	r3!, {r0, r1}
10002dda:	c203      	stmia	r2!, {r0, r1}
10002ddc:	4648      	mov	r0, r9
10002dde:	21b7      	movs	r1, #183	@ 0xb7
10002de0:	7406      	strb	r6, [r0, #16]
10002de2:	6144      	str	r4, [r0, #20]
10002de4:	6184      	str	r4, [r0, #24]
10002de6:	6084      	str	r4, [r0, #8]
10002de8:	6044      	str	r4, [r0, #4]
10002dea:	9009      	str	r0, [sp, #36]	@ 0x24
10002dec:	a898      	add	r0, sp, #608	@ 0x260
10002dee:	9008      	str	r0, [sp, #32]
10002df0:	00c9      	lsls	r1, r1, #3
10002df2:	a8a0      	add	r0, sp, #640	@ 0x280
10002df4:	4461      	add	r1, ip
10002df6:	9007      	str	r0, [sp, #28]
10002df8:	4650      	mov	r0, sl
10002dfa:	9106      	str	r1, [sp, #24]
10002dfc:	499e      	ldr	r1, [pc, #632]	@ (10003078 <main+0x1fec>)
10002dfe:	2312      	movs	r3, #18
10002e00:	4461      	add	r1, ip
10002e02:	9100      	str	r1, [sp, #0]
10002e04:	21d7      	movs	r1, #215	@ 0xd7
10002e06:	9005      	str	r0, [sp, #20]
10002e08:	a8c0      	add	r0, sp, #768	@ 0x300
10002e0a:	9004      	str	r0, [sp, #16]
10002e0c:	a8b0      	add	r0, sp, #704	@ 0x2c0
10002e0e:	9003      	str	r0, [sp, #12]
10002e10:	a8b8      	add	r0, sp, #736	@ 0x2e0
10002e12:	9001      	str	r0, [sp, #4]
10002e14:	a8e8      	add	r0, sp, #928	@ 0x3a0
10002e16:	930a      	str	r3, [sp, #40]	@ 0x28
10002e18:	00c9      	lsls	r1, r1, #3
10002e1a:	0003      	movs	r3, r0
10002e1c:	a8a8      	add	r0, sp, #672	@ 0x2a0
10002e1e:	0002      	movs	r2, r0
10002e20:	4461      	add	r1, ip
10002e22:	a8c8      	add	r0, sp, #800	@ 0x320
10002e24:	9702      	str	r7, [sp, #8]
10002e26:	f7fd ff47 	bl	10000cb8 <_ZN6tflite7testing12_GLOBAL__N_136TestDepthwiseConvQuantizedPerChannelIalEEvPiPKfPT_fiS3_S5_PaS3_S5_PT0_S3_S5_S7_S7_fiP25TfLiteDepthwiseConvParams10TfLiteType.constprop.0>
10002e2a:	9b10      	ldr	r3, [sp, #64]	@ 0x40
10002e2c:	9a0d      	ldr	r2, [sp, #52]	@ 0x34
10002e2e:	701c      	strb	r4, [r3, #0]
10002e30:	7813      	ldrb	r3, [r2, #0]
10002e32:	2b00      	cmp	r3, #0
10002e34:	d000      	beq.n	10002e38 <main+0x1dac>
10002e36:	e308      	b.n	1000344a <main+0x23be>
10002e38:	2200      	movs	r2, #0
10002e3a:	990c      	ldr	r1, [sp, #48]	@ 0x30
10002e3c:	680b      	ldr	r3, [r1, #0]
10002e3e:	3301      	adds	r3, #1
10002e40:	2600      	movs	r6, #0
10002e42:	990c      	ldr	r1, [sp, #48]	@ 0x30
10002e44:	983a      	ldr	r0, [sp, #232]	@ 0xe8
10002e46:	600b      	str	r3, [r1, #0]
10002e48:	9914      	ldr	r1, [sp, #80]	@ 0x50
10002e4a:	afc8      	add	r7, sp, #800	@ 0x320
10002e4c:	680b      	ldr	r3, [r1, #0]
10002e4e:	189b      	adds	r3, r3, r2
10002e50:	600b      	str	r3, [r1, #0]
10002e52:	f007 f82b 	bl	10009eac <_Z11MicroPrintfPKcz>
10002e56:	9d15      	ldr	r5, [sp, #84]	@ 0x54
10002e58:	9b10      	ldr	r3, [sp, #64]	@ 0x40
10002e5a:	9a0d      	ldr	r2, [sp, #52]	@ 0x34
10002e5c:	701e      	strb	r6, [r3, #0]
10002e5e:	002b      	movs	r3, r5
10002e60:	7016      	strb	r6, [r2, #0]
10002e62:	3318      	adds	r3, #24
10002e64:	cb13      	ldmia	r3!, {r0, r1, r4}
10002e66:	c713      	stmia	r7!, {r0, r1, r4}
10002e68:	003a      	movs	r2, r7
10002e6a:	cb03      	ldmia	r3!, {r0, r1}
10002e6c:	c203      	stmia	r2!, {r0, r1}
10002e6e:	a93a      	add	r1, sp, #232	@ 0xe8
10002e70:	22d7      	movs	r2, #215	@ 0xd7
10002e72:	468c      	mov	ip, r1
10002e74:	002b      	movs	r3, r5
10002e76:	00d2      	lsls	r2, r2, #3
10002e78:	4462      	add	r2, ip
10002e7a:	332c      	adds	r3, #44	@ 0x2c
10002e7c:	cb13      	ldmia	r3!, {r0, r1, r4}
10002e7e:	c213      	stmia	r2!, {r0, r1, r4}
10002e80:	cb13      	ldmia	r3!, {r0, r1, r4}
10002e82:	c213      	stmia	r2!, {r0, r1, r4}
10002e84:	cb13      	ldmia	r3!, {r0, r1, r4}
10002e86:	c213      	stmia	r2!, {r0, r1, r4}
10002e88:	cb13      	ldmia	r3!, {r0, r1, r4}
10002e8a:	c213      	stmia	r2!, {r0, r1, r4}
10002e8c:	002b      	movs	r3, r5
10002e8e:	afe8      	add	r7, sp, #928	@ 0x3a0
10002e90:	335c      	adds	r3, #92	@ 0x5c
10002e92:	cb13      	ldmia	r3!, {r0, r1, r4}
10002e94:	c713      	stmia	r7!, {r0, r1, r4}
10002e96:	003a      	movs	r2, r7
10002e98:	cb03      	ldmia	r3!, {r0, r1}
10002e9a:	c203      	stmia	r2!, {r0, r1}
10002e9c:	4876      	ldr	r0, [pc, #472]	@ (10003078 <main+0x1fec>)
10002e9e:	3570      	adds	r5, #112	@ 0x70
10002ea0:	0029      	movs	r1, r5
10002ea2:	2240      	movs	r2, #64	@ 0x40
10002ea4:	4460      	add	r0, ip
10002ea6:	f002 fdfb 	bl	10005aa0 <__wrap___aeabi_memcpy>
10002eaa:	9d16      	ldr	r5, [sp, #88]	@ 0x58
10002eac:	9f11      	ldr	r7, [sp, #68]	@ 0x44
10002eae:	002b      	movs	r3, r5
10002eb0:	003a      	movs	r2, r7
10002eb2:	3330      	adds	r3, #48	@ 0x30
10002eb4:	cb13      	ldmia	r3!, {r0, r1, r4}
10002eb6:	c213      	stmia	r2!, {r0, r1, r4}
10002eb8:	cb03      	ldmia	r3!, {r0, r1}
10002eba:	c203      	stmia	r2!, {r0, r1}
10002ebc:	002b      	movs	r3, r5
10002ebe:	aab0      	add	r2, sp, #704	@ 0x2c0
10002ec0:	3344      	adds	r3, #68	@ 0x44
10002ec2:	cb13      	ldmia	r3!, {r0, r1, r4}
10002ec4:	c213      	stmia	r2!, {r0, r1, r4}
10002ec6:	681b      	ldr	r3, [r3, #0]
10002ec8:	a93a      	add	r1, sp, #232	@ 0xe8
10002eca:	6013      	str	r3, [r2, #0]
10002ecc:	22b7      	movs	r2, #183	@ 0xb7
10002ece:	468c      	mov	ip, r1
10002ed0:	002b      	movs	r3, r5
10002ed2:	00d2      	lsls	r2, r2, #3
10002ed4:	4462      	add	r2, ip
10002ed6:	3354      	adds	r3, #84	@ 0x54
10002ed8:	cb13      	ldmia	r3!, {r0, r1, r4}
10002eda:	c213      	stmia	r2!, {r0, r1, r4}
10002edc:	cb13      	ldmia	r3!, {r0, r1, r4}
10002ede:	c213      	stmia	r2!, {r0, r1, r4}
10002ee0:	cb03      	ldmia	r3!, {r0, r1}
10002ee2:	c203      	stmia	r2!, {r0, r1}
10002ee4:	002b      	movs	r3, r5
10002ee6:	4655      	mov	r5, sl
10002ee8:	3374      	adds	r3, #116	@ 0x74
10002eea:	cb13      	ldmia	r3!, {r0, r1, r4}
10002eec:	c513      	stmia	r5!, {r0, r1, r4}
10002eee:	002a      	movs	r2, r5
10002ef0:	465c      	mov	r4, fp
10002ef2:	cb03      	ldmia	r3!, {r0, r1}
10002ef4:	c203      	stmia	r2!, {r0, r1}
10002ef6:	4648      	mov	r0, r9
10002ef8:	21b7      	movs	r1, #183	@ 0xb7
10002efa:	7406      	strb	r6, [r0, #16]
10002efc:	6144      	str	r4, [r0, #20]
10002efe:	6184      	str	r4, [r0, #24]
10002f00:	6084      	str	r4, [r0, #8]
10002f02:	6044      	str	r4, [r0, #4]
10002f04:	9009      	str	r0, [sp, #36]	@ 0x24
10002f06:	a898      	add	r0, sp, #608	@ 0x260
10002f08:	9008      	str	r0, [sp, #32]
10002f0a:	00c9      	lsls	r1, r1, #3
10002f0c:	a8a0      	add	r0, sp, #640	@ 0x280
10002f0e:	4461      	add	r1, ip
10002f10:	9007      	str	r0, [sp, #28]
10002f12:	4650      	mov	r0, sl
10002f14:	9106      	str	r1, [sp, #24]
10002f16:	4958      	ldr	r1, [pc, #352]	@ (10003078 <main+0x1fec>)
10002f18:	9005      	str	r0, [sp, #20]
10002f1a:	4461      	add	r1, ip
10002f1c:	9100      	str	r1, [sp, #0]
10002f1e:	21d7      	movs	r1, #215	@ 0xd7
10002f20:	a8c0      	add	r0, sp, #768	@ 0x300
10002f22:	9004      	str	r0, [sp, #16]
10002f24:	a8b0      	add	r0, sp, #704	@ 0x2c0
10002f26:	9003      	str	r0, [sp, #12]
10002f28:	a8b8      	add	r0, sp, #736	@ 0x2e0
10002f2a:	9001      	str	r0, [sp, #4]
10002f2c:	a8e8      	add	r0, sp, #928	@ 0x3a0
10002f2e:	0003      	movs	r3, r0
10002f30:	00c9      	lsls	r1, r1, #3
10002f32:	a8a8      	add	r0, sp, #672	@ 0x2a0
10002f34:	0002      	movs	r2, r0
10002f36:	9702      	str	r7, [sp, #8]
10002f38:	4461      	add	r1, ip
10002f3a:	a8c8      	add	r0, sp, #800	@ 0x320
10002f3c:	960a      	str	r6, [sp, #40]	@ 0x28
10002f3e:	f7fd febb 	bl	10000cb8 <_ZN6tflite7testing12_GLOBAL__N_136TestDepthwiseConvQuantizedPerChannelIalEEvPiPKfPT_fiS3_S5_PaS3_S5_PT0_S3_S5_S7_S7_fiP25TfLiteDepthwiseConvParams10TfLiteType.constprop.0>
10002f42:	9b10      	ldr	r3, [sp, #64]	@ 0x40
10002f44:	9a0d      	ldr	r2, [sp, #52]	@ 0x34
10002f46:	701c      	strb	r4, [r3, #0]
10002f48:	7813      	ldrb	r3, [r2, #0]
10002f4a:	2b00      	cmp	r3, #0
10002f4c:	d000      	beq.n	10002f50 <main+0x1ec4>
10002f4e:	e278      	b.n	10003442 <main+0x23b6>
10002f50:	2200      	movs	r2, #0
10002f52:	990c      	ldr	r1, [sp, #48]	@ 0x30
10002f54:	680b      	ldr	r3, [r1, #0]
10002f56:	3301      	adds	r3, #1
10002f58:	2600      	movs	r6, #0
10002f5a:	990c      	ldr	r1, [sp, #48]	@ 0x30
10002f5c:	983b      	ldr	r0, [sp, #236]	@ 0xec
10002f5e:	600b      	str	r3, [r1, #0]
10002f60:	9914      	ldr	r1, [sp, #80]	@ 0x50
10002f62:	680b      	ldr	r3, [r1, #0]
10002f64:	189b      	adds	r3, r3, r2
10002f66:	600b      	str	r3, [r1, #0]
10002f68:	f006 ffa0 	bl	10009eac <_Z11MicroPrintfPKcz>
10002f6c:	9b10      	ldr	r3, [sp, #64]	@ 0x40
10002f6e:	9d15      	ldr	r5, [sp, #84]	@ 0x54
10002f70:	701e      	strb	r6, [r3, #0]
10002f72:	9b0d      	ldr	r3, [sp, #52]	@ 0x34
10002f74:	aa70      	add	r2, sp, #448	@ 0x1c0
10002f76:	701e      	strb	r6, [r3, #0]
10002f78:	002b      	movs	r3, r5
10002f7a:	3318      	adds	r3, #24
10002f7c:	cb13      	ldmia	r3!, {r0, r1, r4}
10002f7e:	c213      	stmia	r2!, {r0, r1, r4}
10002f80:	cb03      	ldmia	r3!, {r0, r1}
10002f82:	c203      	stmia	r2!, {r0, r1}
10002f84:	9926      	ldr	r1, [sp, #152]	@ 0x98
10002f86:	2240      	movs	r2, #64	@ 0x40
10002f88:	3140      	adds	r1, #64	@ 0x40
10002f8a:	a8c8      	add	r0, sp, #800	@ 0x320
10002f8c:	f002 fd88 	bl	10005aa0 <__wrap___aeabi_memcpy>
10002f90:	002b      	movs	r3, r5
10002f92:	aa75      	add	r2, sp, #468	@ 0x1d4
10002f94:	335c      	adds	r3, #92	@ 0x5c
10002f96:	cb13      	ldmia	r3!, {r0, r1, r4}
10002f98:	c213      	stmia	r2!, {r0, r1, r4}
10002f9a:	3570      	adds	r5, #112	@ 0x70
10002f9c:	cb03      	ldmia	r3!, {r0, r1}
10002f9e:	c203      	stmia	r2!, {r0, r1}
10002fa0:	0029      	movs	r1, r5
10002fa2:	2240      	movs	r2, #64	@ 0x40
10002fa4:	a8e8      	add	r0, sp, #928	@ 0x3a0
10002fa6:	f002 fd7b 	bl	10005aa0 <__wrap___aeabi_memcpy>
10002faa:	9d16      	ldr	r5, [sp, #88]	@ 0x58
10002fac:	aa7a      	add	r2, sp, #488	@ 0x1e8
10002fae:	002b      	movs	r3, r5
10002fb0:	3330      	adds	r3, #48	@ 0x30
10002fb2:	cb13      	ldmia	r3!, {r0, r1, r4}
10002fb4:	c213      	stmia	r2!, {r0, r1, r4}
10002fb6:	cb03      	ldmia	r3!, {r0, r1}
10002fb8:	c203      	stmia	r2!, {r0, r1}
10002fba:	002b      	movs	r3, r5
10002fbc:	aa5c      	add	r2, sp, #368	@ 0x170
10002fbe:	3344      	adds	r3, #68	@ 0x44
10002fc0:	cb13      	ldmia	r3!, {r0, r1, r4}
10002fc2:	c213      	stmia	r2!, {r0, r1, r4}
10002fc4:	681b      	ldr	r3, [r3, #0]
10002fc6:	6013      	str	r3, [r2, #0]
10002fc8:	9a3c      	ldr	r2, [sp, #240]	@ 0xf0
10002fca:	aba0      	add	r3, sp, #640	@ 0x280
10002fcc:	ca13      	ldmia	r2!, {r0, r1, r4}
10002fce:	c313      	stmia	r3!, {r0, r1, r4}
10002fd0:	ca13      	ldmia	r2!, {r0, r1, r4}
10002fd2:	c313      	stmia	r3!, {r0, r1, r4}
10002fd4:	ca03      	ldmia	r2!, {r0, r1}
10002fd6:	c303      	stmia	r3!, {r0, r1}
10002fd8:	002b      	movs	r3, r5
10002fda:	aa7f      	add	r2, sp, #508	@ 0x1fc
10002fdc:	3374      	adds	r3, #116	@ 0x74
10002fde:	cb13      	ldmia	r3!, {r0, r1, r4}
10002fe0:	c213      	stmia	r2!, {r0, r1, r4}
10002fe2:	cb03      	ldmia	r3!, {r0, r1}
10002fe4:	c203      	stmia	r2!, {r0, r1}
10002fe6:	22a8      	movs	r2, #168	@ 0xa8
10002fe8:	ab3a      	add	r3, sp, #232	@ 0xe8
10002fea:	0052      	lsls	r2, r2, #1
10002fec:	189b      	adds	r3, r3, r2
10002fee:	701e      	strb	r6, [r3, #0]
10002ff0:	465b      	mov	r3, fp
10002ff2:	a870      	add	r0, sp, #448	@ 0x1c0
10002ff4:	938f      	str	r3, [sp, #572]	@ 0x23c
10002ff6:	9390      	str	r3, [sp, #576]	@ 0x240
10002ff8:	938c      	str	r3, [sp, #560]	@ 0x230
10002ffa:	938b      	str	r3, [sp, #556]	@ 0x22c
10002ffc:	f007 f8a0 	bl	1000a140 <_ZN6tflite7testing16IntArrayFromIntsEPKi>
10003000:	ab75      	add	r3, sp, #468	@ 0x1d4
10003002:	0004      	movs	r4, r0
10003004:	9020      	str	r0, [sp, #128]	@ 0x80
10003006:	0018      	movs	r0, r3
10003008:	f007 f89a 	bl	1000a140 <_ZN6tflite7testing16IntArrayFromIntsEPKi>
1000300c:	ab7a      	add	r3, sp, #488	@ 0x1e8
1000300e:	900e      	str	r0, [sp, #56]	@ 0x38
10003010:	0018      	movs	r0, r3
10003012:	f007 f895 	bl	1000a140 <_ZN6tflite7testing16IntArrayFromIntsEPKi>
10003016:	ab7f      	add	r3, sp, #508	@ 0x1fc
10003018:	901c      	str	r0, [sp, #112]	@ 0x70
1000301a:	0018      	movs	r0, r3
1000301c:	f007 f890 	bl	1000a140 <_ZN6tflite7testing16IntArrayFromIntsEPKi>
10003020:	9021      	str	r0, [sp, #132]	@ 0x84
10003022:	f006 ff55 	bl	10009ed0 <_ZN6tflite12ElementCountERK14TfLiteIntArray>
10003026:	901d      	str	r0, [sp, #116]	@ 0x74
10003028:	0020      	movs	r0, r4
1000302a:	f006 ff51 	bl	10009ed0 <_ZN6tflite12ElementCountERK14TfLiteIntArray>
1000302e:	2800      	cmp	r0, #0
10003030:	dd28      	ble.n	10003084 <main+0x1ff8>
10003032:	2380      	movs	r3, #128	@ 0x80
10003034:	021b      	lsls	r3, r3, #8
10003036:	4698      	mov	r8, r3
10003038:	acc8      	add	r4, sp, #800	@ 0x320
1000303a:	0080      	lsls	r0, r0, #2
1000303c:	4e0f      	ldr	r6, [pc, #60]	@ (1000307c <main+0x1ff0>)
1000303e:	ad84      	add	r5, sp, #528	@ 0x210
10003040:	1907      	adds	r7, r0, r4
10003042:	6820      	ldr	r0, [r4, #0]
10003044:	1c01      	adds	r1, r0, #0
10003046:	f002 fba9 	bl	1000579c <__wrap___aeabi_fadd>
1000304a:	f002 fc6b 	bl	10005924 <__wrap___aeabi_f2d>
1000304e:	f002 f853 	bl	100050f8 <__wrap_round>
10003052:	2200      	movs	r2, #0
10003054:	2300      	movs	r3, #0
10003056:	f001 fef3 	bl	10004e40 <__wrap___aeabi_dadd>
1000305a:	f001 ff9f 	bl	10004f9c <__wrap___aeabi_d2iz>
1000305e:	4540      	cmp	r0, r8
10003060:	db00      	blt.n	10003064 <main+0x1fd8>
10003062:	4807      	ldr	r0, [pc, #28]	@ (10003080 <main+0x1ff4>)
10003064:	42b0      	cmp	r0, r6
10003066:	da00      	bge.n	1000306a <main+0x1fde>
10003068:	4804      	ldr	r0, [pc, #16]	@ (1000307c <main+0x1ff0>)
1000306a:	3404      	adds	r4, #4
1000306c:	8028      	strh	r0, [r5, #0]
1000306e:	3502      	adds	r5, #2
10003070:	42a7      	cmp	r7, r4
10003072:	d1e6      	bne.n	10003042 <main+0x1fb6>
10003074:	e006      	b.n	10003084 <main+0x1ff8>
10003076:	46c0      	nop			@ (mov r8, r8)
10003078:	000008b8 	.word	0x000008b8
1000307c:	ffff8000 	.word	0xffff8000
10003080:	00007fff 	.word	0x00007fff
10003084:	2500      	movs	r5, #0
10003086:	9820      	ldr	r0, [sp, #128]	@ 0x80
10003088:	95ab      	str	r5, [sp, #684]	@ 0x2ac
1000308a:	f006 ff21 	bl	10009ed0 <_ZN6tflite12ElementCountERK14TfLiteIntArray>
1000308e:	0004      	movs	r4, r0
10003090:	2007      	movs	r0, #7
10003092:	f005 fdcd 	bl	10008c30 <_ZN6tflite17TfLiteTypeGetSizeE10TfLiteType>
10003096:	2303      	movs	r3, #3
10003098:	9303      	str	r3, [sp, #12]
1000309a:	ab50      	add	r3, sp, #320	@ 0x140
1000309c:	9302      	str	r3, [sp, #8]
1000309e:	4653      	mov	r3, sl
100030a0:	9301      	str	r3, [sp, #4]
100030a2:	464b      	mov	r3, r9
100030a4:	4360      	muls	r0, r4
100030a6:	aa64      	add	r2, sp, #400	@ 0x190
100030a8:	a9e8      	add	r1, sp, #928	@ 0x3a0
100030aa:	9027      	str	r0, [sp, #156]	@ 0x9c
100030ac:	9300      	str	r3, [sp, #0]
100030ae:	a8b0      	add	r0, sp, #704	@ 0x2c0
100030b0:	9b0e      	ldr	r3, [sp, #56]	@ 0x38
100030b2:	9505      	str	r5, [sp, #20]
100030b4:	9504      	str	r5, [sp, #16]
100030b6:	f007 f84d 	bl	1000a154 <_ZN6tflite7testing40CreateSymmetricPerChannelQuantizedTensorEPKfPaP14TfLiteIntArrayPfPiP24TfLiteAffineQuantizationib10TfLiteType>
100030ba:	9c1c      	ldr	r4, [sp, #112]	@ 0x70
100030bc:	0020      	movs	r0, r4
100030be:	f006 ff07 	bl	10009ed0 <_ZN6tflite12ElementCountERK14TfLiteIntArray>
100030c2:	aa3a      	add	r2, sp, #232	@ 0xe8
100030c4:	23b7      	movs	r3, #183	@ 0xb7
100030c6:	4694      	mov	ip, r2
100030c8:	6926      	ldr	r6, [r4, #16]
100030ca:	00db      	lsls	r3, r3, #3
100030cc:	4463      	add	r3, ip
100030ce:	601e      	str	r6, [r3, #0]
100030d0:	0007      	movs	r7, r0
100030d2:	0030      	movs	r0, r6
100030d4:	f002 fbcc 	bl	10005870 <__wrap___aeabi_i2f>
100030d8:	23d7      	movs	r3, #215	@ 0xd7
100030da:	aa3a      	add	r2, sp, #232	@ 0xe8
100030dc:	4694      	mov	ip, r2
100030de:	00db      	lsls	r3, r3, #3
100030e0:	4463      	add	r3, ip
100030e2:	6018      	str	r0, [r3, #0]
100030e4:	00b4      	lsls	r4, r6, #2
100030e6:	2e00      	cmp	r6, #0
100030e8:	dd77      	ble.n	100031da <main+0x214e>
100030ea:	46b0      	mov	r8, r6
100030ec:	0026      	movs	r6, r4
100030ee:	aa3a      	add	r2, sp, #232	@ 0xe8
100030f0:	23d7      	movs	r3, #215	@ 0xd7
100030f2:	4694      	mov	ip, r2
100030f4:	00db      	lsls	r3, r3, #3
100030f6:	4463      	add	r3, ip
100030f8:	195c      	adds	r4, r3, r5
100030fa:	464b      	mov	r3, r9
100030fc:	21fc      	movs	r1, #252	@ 0xfc
100030fe:	195b      	adds	r3, r3, r5
10003100:	6858      	ldr	r0, [r3, #4]
10003102:	0589      	lsls	r1, r1, #22
10003104:	f002 fb61 	bl	100057ca <__wrap___aeabi_fmul>
10003108:	3504      	adds	r5, #4
1000310a:	6060      	str	r0, [r4, #4]
1000310c:	42ae      	cmp	r6, r5
1000310e:	d1ee      	bne.n	100030ee <main+0x2062>
10003110:	a83a      	add	r0, sp, #232	@ 0xe8
10003112:	4684      	mov	ip, r0
10003114:	0034      	movs	r4, r6
10003116:	4646      	mov	r6, r8
10003118:	4be5      	ldr	r3, [pc, #916]	@ (100034b0 <main+0x2424>)
1000311a:	0022      	movs	r2, r4
1000311c:	4463      	add	r3, ip
1000311e:	2100      	movs	r1, #0
10003120:	0018      	movs	r0, r3
10003122:	f002 fcb7 	bl	10005a94 <__wrap_memset>
10003126:	0031      	movs	r1, r6
10003128:	0038      	movs	r0, r7
1000312a:	f001 fc1d 	bl	10004968 <__wrap___aeabi_idiv>
1000312e:	1e01      	subs	r1, r0, #0
10003130:	dd53      	ble.n	100031da <main+0x214e>
10003132:	aa3a      	add	r2, sp, #232	@ 0xe8
10003134:	23d7      	movs	r3, #215	@ 0xd7
10003136:	4694      	mov	ip, r2
10003138:	00db      	lsls	r3, r3, #3
1000313a:	4463      	add	r3, ip
1000313c:	0018      	movs	r0, r3
1000313e:	00cb      	lsls	r3, r1, #3
10003140:	469c      	mov	ip, r3
10003142:	9317      	str	r3, [sp, #92]	@ 0x5c
10003144:	2300      	movs	r3, #0
10003146:	aa98      	add	r2, sp, #608	@ 0x260
10003148:	4462      	add	r2, ip
1000314a:	930e      	str	r3, [sp, #56]	@ 0x38
1000314c:	4684      	mov	ip, r0
1000314e:	010b      	lsls	r3, r1, #4
10003150:	425b      	negs	r3, r3
10003152:	2680      	movs	r6, #128	@ 0x80
10003154:	9319      	str	r3, [sp, #100]	@ 0x64
10003156:	4690      	mov	r8, r2
10003158:	0003      	movs	r3, r0
1000315a:	4464      	add	r4, ip
1000315c:	9418      	str	r4, [sp, #96]	@ 0x60
1000315e:	0636      	lsls	r6, r6, #24
10003160:	911a      	str	r1, [sp, #104]	@ 0x68
10003162:	9a0e      	ldr	r2, [sp, #56]	@ 0x38
10003164:	9917      	ldr	r1, [sp, #92]	@ 0x5c
10003166:	0095      	lsls	r5, r2, #2
10003168:	aa5c      	add	r2, sp, #368	@ 0x170
1000316a:	4694      	mov	ip, r2
1000316c:	4642      	mov	r2, r8
1000316e:	685f      	ldr	r7, [r3, #4]
10003170:	1a52      	subs	r2, r2, r1
10003172:	0014      	movs	r4, r2
10003174:	9212      	str	r2, [sp, #72]	@ 0x48
10003176:	1c3a      	adds	r2, r7, #0
10003178:	4465      	add	r5, ip
1000317a:	4647      	mov	r7, r8
1000317c:	9313      	str	r3, [sp, #76]	@ 0x4c
1000317e:	4690      	mov	r8, r2
10003180:	e005      	b.n	1000318e <main+0x2102>
10003182:	6020      	str	r0, [r4, #0]
10003184:	6063      	str	r3, [r4, #4]
10003186:	3408      	adds	r4, #8
10003188:	3504      	adds	r5, #4
1000318a:	42bc      	cmp	r4, r7
1000318c:	d017      	beq.n	100031be <main+0x2132>
1000318e:	4641      	mov	r1, r8
10003190:	6828      	ldr	r0, [r5, #0]
10003192:	f002 fb06 	bl	100057a2 <__wrap___aeabi_fdiv>
10003196:	f002 fbc5 	bl	10005924 <__wrap___aeabi_f2d>
1000319a:	f001 ffad 	bl	100050f8 <__wrap_round>
1000319e:	f001 ff21 	bl	10004fe4 <__wrap___aeabi_d2lz>
100031a2:	000b      	movs	r3, r1
100031a4:	6020      	str	r0, [r4, #0]
100031a6:	6061      	str	r1, [r4, #4]
100031a8:	42b1      	cmp	r1, r6
100031aa:	d1ea      	bne.n	10003182 <main+0x20f6>
100031ac:	2800      	cmp	r0, #0
100031ae:	d1e8      	bne.n	10003182 <main+0x20f6>
100031b0:	3001      	adds	r0, #1
100031b2:	6020      	str	r0, [r4, #0]
100031b4:	6063      	str	r3, [r4, #4]
100031b6:	3408      	adds	r4, #8
100031b8:	3504      	adds	r5, #4
100031ba:	42bc      	cmp	r4, r7
100031bc:	d1e7      	bne.n	1000318e <main+0x2102>
100031be:	991a      	ldr	r1, [sp, #104]	@ 0x68
100031c0:	9a0e      	ldr	r2, [sp, #56]	@ 0x38
100031c2:	468c      	mov	ip, r1
100031c4:	4462      	add	r2, ip
100031c6:	9919      	ldr	r1, [sp, #100]	@ 0x64
100031c8:	920e      	str	r2, [sp, #56]	@ 0x38
100031ca:	9a12      	ldr	r2, [sp, #72]	@ 0x48
100031cc:	9b13      	ldr	r3, [sp, #76]	@ 0x4c
100031ce:	1a52      	subs	r2, r2, r1
100031d0:	4690      	mov	r8, r2
100031d2:	9a18      	ldr	r2, [sp, #96]	@ 0x60
100031d4:	3304      	adds	r3, #4
100031d6:	429a      	cmp	r2, r3
100031d8:	d1c3      	bne.n	10003162 <main+0x20d6>
100031da:	aa3a      	add	r2, sp, #232	@ 0xe8
100031dc:	23d7      	movs	r3, #215	@ 0xd7
100031de:	4694      	mov	ip, r2
100031e0:	00db      	lsls	r3, r3, #3
100031e2:	4463      	add	r3, ip
100031e4:	0018      	movs	r0, r3
100031e6:	f006 ffad 	bl	1000a144 <_ZN6tflite7testing20FloatArrayFromFloatsEPKf>
100031ea:	aa3a      	add	r2, sp, #232	@ 0xe8
100031ec:	23b7      	movs	r3, #183	@ 0xb7
100031ee:	4694      	mov	ip, r2
100031f0:	00db      	lsls	r3, r3, #3
100031f2:	4463      	add	r3, ip
100031f4:	9053      	str	r0, [sp, #332]	@ 0x14c
100031f6:	0018      	movs	r0, r3
100031f8:	f006 ffa2 	bl	1000a140 <_ZN6tflite7testing16IntArrayFromIntsEPKi>
100031fc:	2303      	movs	r3, #3
100031fe:	2208      	movs	r2, #8
10003200:	2100      	movs	r1, #0
10003202:	9054      	str	r0, [sp, #336]	@ 0x150
10003204:	a8ba      	add	r0, sp, #744	@ 0x2e8
10003206:	9355      	str	r3, [sp, #340]	@ 0x154
10003208:	f002 fc44 	bl	10005a94 <__wrap_memset>
1000320c:	981c      	ldr	r0, [sp, #112]	@ 0x70
1000320e:	f006 fe5f 	bl	10009ed0 <_ZN6tflite12ElementCountERK14TfLiteIntArray>
10003212:	0007      	movs	r7, r0
10003214:	2004      	movs	r0, #4
10003216:	f005 fd0b 	bl	10008c30 <_ZN6tflite17TfLiteTypeGetSizeE10TfLiteType>
1000321a:	2300      	movs	r3, #0
1000321c:	0005      	movs	r5, r0
1000321e:	9821      	ldr	r0, [sp, #132]	@ 0x84
10003220:	93c3      	str	r3, [sp, #780]	@ 0x30c
10003222:	f006 fe55 	bl	10009ed0 <_ZN6tflite12ElementCountERK14TfLiteIntArray>
10003226:	4680      	mov	r8, r0
10003228:	2007      	movs	r0, #7
1000322a:	f005 fd01 	bl	10008c30 <_ZN6tflite17TfLiteTypeGetSizeE10TfLiteType>
1000322e:	22fe      	movs	r2, #254	@ 0xfe
10003230:	4659      	mov	r1, fp
10003232:	26fc      	movs	r6, #252	@ 0xfc
10003234:	2300      	movs	r3, #0
10003236:	0592      	lsls	r2, r2, #22
10003238:	05b6      	lsls	r6, r6, #22
1000323a:	0004      	movs	r4, r0
1000323c:	9246      	str	r2, [sp, #280]	@ 0x118
1000323e:	9148      	str	r1, [sp, #288]	@ 0x120
10003240:	220c      	movs	r2, #12
10003242:	2100      	movs	r1, #0
10003244:	a856      	add	r0, sp, #344	@ 0x158
10003246:	9349      	str	r3, [sp, #292]	@ 0x124
10003248:	9647      	str	r6, [sp, #284]	@ 0x11c
1000324a:	f002 fc23 	bl	10005a94 <__wrap_memset>
1000324e:	a946      	add	r1, sp, #280	@ 0x118
10003250:	0008      	movs	r0, r1
10003252:	f006 ff77 	bl	1000a144 <_ZN6tflite7testing20FloatArrayFromFloatsEPKf>
10003256:	a948      	add	r1, sp, #288	@ 0x120
10003258:	9056      	str	r0, [sp, #344]	@ 0x158
1000325a:	0008      	movs	r0, r1
1000325c:	f006 ff70 	bl	1000a140 <_ZN6tflite7testing16IntArrayFromIntsEPKi>
10003260:	22fe      	movs	r2, #254	@ 0xfe
10003262:	4659      	mov	r1, fp
10003264:	2300      	movs	r3, #0
10003266:	0592      	lsls	r2, r2, #22
10003268:	9057      	str	r0, [sp, #348]	@ 0x15c
1000326a:	924a      	str	r2, [sp, #296]	@ 0x128
1000326c:	924b      	str	r2, [sp, #300]	@ 0x12c
1000326e:	914c      	str	r1, [sp, #304]	@ 0x130
10003270:	220c      	movs	r2, #12
10003272:	2100      	movs	r1, #0
10003274:	a859      	add	r0, sp, #356	@ 0x164
10003276:	934d      	str	r3, [sp, #308]	@ 0x134
10003278:	f002 fc0c 	bl	10005a94 <__wrap_memset>
1000327c:	a94a      	add	r1, sp, #296	@ 0x128
1000327e:	0008      	movs	r0, r1
10003280:	f006 ff60 	bl	1000a144 <_ZN6tflite7testing20FloatArrayFromFloatsEPKf>
10003284:	a94c      	add	r1, sp, #304	@ 0x130
10003286:	9059      	str	r0, [sp, #356]	@ 0x164
10003288:	0008      	movs	r0, r1
1000328a:	f006 ff59 	bl	1000a140 <_ZN6tflite7testing16IntArrayFromIntsEPKi>
1000328e:	4659      	mov	r1, fp
10003290:	905a      	str	r0, [sp, #360]	@ 0x168
10003292:	20ea      	movs	r0, #234	@ 0xea
10003294:	96aa      	str	r6, [sp, #680]	@ 0x2a8
10003296:	2607      	movs	r6, #7
10003298:	2300      	movs	r3, #0
1000329a:	91a8      	str	r1, [sp, #672]	@ 0x2a0
1000329c:	a956      	add	r1, sp, #344	@ 0x158
1000329e:	91a9      	str	r1, [sp, #676]	@ 0x2a4
100032a0:	a984      	add	r1, sp, #528	@ 0x210
100032a2:	91ac      	str	r1, [sp, #688]	@ 0x2b0
100032a4:	9920      	ldr	r1, [sp, #128]	@ 0x80
100032a6:	0040      	lsls	r0, r0, #1
100032a8:	91ad      	str	r1, [sp, #692]	@ 0x2b4
100032aa:	9927      	ldr	r1, [sp, #156]	@ 0x9c
100032ac:	2220      	movs	r2, #32
100032ae:	91ae      	str	r1, [sp, #696]	@ 0x2b8
100032b0:	a93a      	add	r1, sp, #232	@ 0xe8
100032b2:	1809      	adds	r1, r1, r0
100032b4:	800e      	strh	r6, [r1, #0]
100032b6:	3002      	adds	r0, #2
100032b8:	a93a      	add	r1, sp, #232	@ 0xe8
100032ba:	1809      	adds	r1, r1, r0
100032bc:	700b      	strb	r3, [r1, #0]
100032be:	9811      	ldr	r0, [sp, #68]	@ 0x44
100032c0:	a9a8      	add	r1, sp, #672	@ 0x2a0
100032c2:	f002 fbed 	bl	10005aa0 <__wrap___aeabi_memcpy>
100032c6:	a8ff      	add	r0, sp, #1020	@ 0x3fc
100032c8:	2220      	movs	r2, #32
100032ca:	a9b0      	add	r1, sp, #704	@ 0x2c0
100032cc:	3044      	adds	r0, #68	@ 0x44
100032ce:	f002 fbe7 	bl	10005aa0 <__wrap___aeabi_memcpy>
100032d2:	4659      	mov	r1, fp
100032d4:	437d      	muls	r5, r7
100032d6:	2785      	movs	r7, #133	@ 0x85
100032d8:	2304      	movs	r3, #4
100032da:	95be      	str	r5, [sp, #760]	@ 0x2f8
100032dc:	2500      	movs	r5, #0
100032de:	91b8      	str	r1, [sp, #736]	@ 0x2e0
100032e0:	a953      	add	r1, sp, #332	@ 0x14c
100032e2:	91b9      	str	r1, [sp, #740]	@ 0x2e4
100032e4:	a998      	add	r1, sp, #608	@ 0x260
100032e6:	91bc      	str	r1, [sp, #752]	@ 0x2f0
100032e8:	991c      	ldr	r1, [sp, #112]	@ 0x70
100032ea:	00bf      	lsls	r7, r7, #2
100032ec:	91bd      	str	r1, [sp, #756]	@ 0x2f4
100032ee:	a93a      	add	r1, sp, #232	@ 0xe8
100032f0:	19c9      	adds	r1, r1, r7
100032f2:	4f70      	ldr	r7, [pc, #448]	@ (100034b4 <main+0x2428>)
100032f4:	800b      	strh	r3, [r1, #0]
100032f6:	a93a      	add	r1, sp, #232	@ 0xe8
100032f8:	abff      	add	r3, sp, #1020	@ 0x3fc
100032fa:	3364      	adds	r3, #100	@ 0x64
100032fc:	19c9      	adds	r1, r1, r7
100032fe:	2220      	movs	r2, #32
10003300:	0018      	movs	r0, r3
10003302:	700d      	strb	r5, [r1, #0]
10003304:	a9b8      	add	r1, sp, #736	@ 0x2e0
10003306:	f002 fbcb 	bl	10005aa0 <__wrap___aeabi_memcpy>
1000330a:	465b      	mov	r3, fp
1000330c:	22fe      	movs	r2, #254	@ 0xfe
1000330e:	93c0      	str	r3, [sp, #768]	@ 0x300
10003310:	ab59      	add	r3, sp, #356	@ 0x164
10003312:	93c1      	str	r3, [sp, #772]	@ 0x304
10003314:	ab60      	add	r3, sp, #384	@ 0x180
10003316:	93c4      	str	r3, [sp, #784]	@ 0x310
10003318:	9b21      	ldr	r3, [sp, #132]	@ 0x84
1000331a:	0592      	lsls	r2, r2, #22
1000331c:	93c5      	str	r3, [sp, #788]	@ 0x314
1000331e:	4643      	mov	r3, r8
10003320:	92c2      	str	r2, [sp, #776]	@ 0x308
10003322:	228d      	movs	r2, #141	@ 0x8d
10003324:	435c      	muls	r4, r3
10003326:	0092      	lsls	r2, r2, #2
10003328:	ab3a      	add	r3, sp, #232	@ 0xe8
1000332a:	189b      	adds	r3, r3, r2
1000332c:	4a62      	ldr	r2, [pc, #392]	@ (100034b8 <main+0x242c>)
1000332e:	94c6      	str	r4, [sp, #792]	@ 0x318
10003330:	801e      	strh	r6, [r3, #0]
10003332:	ab3a      	add	r3, sp, #232	@ 0xe8
10003334:	189b      	adds	r3, r3, r2
10003336:	a8ff      	add	r0, sp, #1020	@ 0x3fc
10003338:	701d      	strb	r5, [r3, #0]
1000333a:	2220      	movs	r2, #32
1000333c:	a9c0      	add	r1, sp, #768	@ 0x300
1000333e:	3084      	adds	r0, #132	@ 0x84
10003340:	f002 fbae 	bl	10005aa0 <__wrap___aeabi_memcpy>
10003344:	9b1d      	ldr	r3, [sp, #116]	@ 0x74
10003346:	2b00      	cmp	r3, #0
10003348:	dd1d      	ble.n	10003386 <main+0x22fa>
1000334a:	009b      	lsls	r3, r3, #2
1000334c:	aca0      	add	r4, sp, #640	@ 0x280
1000334e:	191f      	adds	r7, r3, r4
10003350:	2380      	movs	r3, #128	@ 0x80
10003352:	021b      	lsls	r3, r3, #8
10003354:	4698      	mov	r8, r3
10003356:	4e59      	ldr	r6, [pc, #356]	@ (100034bc <main+0x2430>)
10003358:	ad68      	add	r5, sp, #416	@ 0x1a0
1000335a:	6820      	ldr	r0, [r4, #0]
1000335c:	f002 fae2 	bl	10005924 <__wrap___aeabi_f2d>
10003360:	f001 feca 	bl	100050f8 <__wrap_round>
10003364:	2200      	movs	r2, #0
10003366:	2300      	movs	r3, #0
10003368:	f001 fd6a 	bl	10004e40 <__wrap___aeabi_dadd>
1000336c:	f001 fe16 	bl	10004f9c <__wrap___aeabi_d2iz>
10003370:	4540      	cmp	r0, r8
10003372:	db00      	blt.n	10003376 <main+0x22ea>
10003374:	4852      	ldr	r0, [pc, #328]	@ (100034c0 <main+0x2434>)
10003376:	42b0      	cmp	r0, r6
10003378:	da00      	bge.n	1000337c <main+0x22f0>
1000337a:	4850      	ldr	r0, [pc, #320]	@ (100034bc <main+0x2430>)
1000337c:	3404      	adds	r4, #4
1000337e:	8028      	strh	r0, [r5, #0]
10003380:	3502      	adds	r5, #2
10003382:	42a7      	cmp	r7, r4
10003384:	d1e9      	bne.n	1000335a <main+0x22ce>
10003386:	9a15      	ldr	r2, [sp, #84]	@ 0x54
10003388:	ab6c      	add	r3, sp, #432	@ 0x1b0
1000338a:	ca13      	ldmia	r2!, {r0, r1, r4}
1000338c:	c313      	stmia	r3!, {r0, r1, r4}
1000338e:	6812      	ldr	r2, [r2, #0]
10003390:	a86c      	add	r0, sp, #432	@ 0x1b0
10003392:	601a      	str	r2, [r3, #0]
10003394:	f006 fed4 	bl	1000a140 <_ZN6tflite7testing16IntArrayFromIntsEPKi>
10003398:	465b      	mov	r3, fp
1000339a:	934e      	str	r3, [sp, #312]	@ 0x138
1000339c:	2303      	movs	r3, #3
1000339e:	0004      	movs	r4, r0
100033a0:	a84e      	add	r0, sp, #312	@ 0x138
100033a2:	934f      	str	r3, [sp, #316]	@ 0x13c
100033a4:	f006 fecc 	bl	1000a140 <_ZN6tflite7testing16IntArrayFromIntsEPKi>
100033a8:	0005      	movs	r5, r0
100033aa:	a891      	add	r0, sp, #580	@ 0x244
100033ac:	f006 fa52 	bl	10009854 <_ZN6tflite26Register_DEPTHWISE_CONV_2DEv>
100033b0:	2300      	movs	r3, #0
100033b2:	9501      	str	r5, [sp, #4]
100033b4:	ad3a      	add	r5, sp, #232	@ 0xe8
100033b6:	46ac      	mov	ip, r5
100033b8:	9400      	str	r4, [sp, #0]
100033ba:	4842      	ldr	r0, [pc, #264]	@ (100034c4 <main+0x2438>)
100033bc:	9c11      	ldr	r4, [sp, #68]	@ 0x44
100033be:	9303      	str	r3, [sp, #12]
100033c0:	ab8a      	add	r3, sp, #552	@ 0x228
100033c2:	4460      	add	r0, ip
100033c4:	0022      	movs	r2, r4
100033c6:	9302      	str	r3, [sp, #8]
100033c8:	a991      	add	r1, sp, #580	@ 0x244
100033ca:	2304      	movs	r3, #4
100033cc:	f006 fbfc 	bl	10009bc8 <_ZN6tflite5micro12KernelRunnerC1ERK16TFLMRegistrationP12TfLiteTensoriP14TfLiteIntArrayS8_PKvS8_>
100033d0:	6b63      	ldr	r3, [r4, #52]	@ 0x34
100033d2:	6962      	ldr	r2, [r4, #20]
100033d4:	6918      	ldr	r0, [r3, #16]
100033d6:	6911      	ldr	r1, [r2, #16]
100033d8:	f001 fac6 	bl	10004968 <__wrap___aeabi_idiv>
100033dc:	22a0      	movs	r2, #160	@ 0xa0
100033de:	46ac      	mov	ip, r5
100033e0:	0052      	lsls	r2, r2, #1
100033e2:	18ab      	adds	r3, r5, r2
100033e4:	3a3f      	subs	r2, #63	@ 0x3f
100033e6:	3aff      	subs	r2, #255	@ 0xff
100033e8:	701a      	strb	r2, [r3, #0]
100033ea:	4b36      	ldr	r3, [pc, #216]	@ (100034c4 <main+0x2438>)
100033ec:	908d      	str	r0, [sp, #564]	@ 0x234
100033ee:	4463      	add	r3, ip
100033f0:	2200      	movs	r2, #0
100033f2:	0018      	movs	r0, r3
100033f4:	a98a      	add	r1, sp, #552	@ 0x228
100033f6:	f006 fc35 	bl	10009c64 <_ZN6tflite5micro12KernelRunner14InitAndPrepareEPKcj>
100033fa:	2800      	cmp	r0, #0
100033fc:	d043      	beq.n	10003486 <main+0x23fa>
100033fe:	2300      	movs	r3, #0
10003400:	22e8      	movs	r2, #232	@ 0xe8
10003402:	991e      	ldr	r1, [sp, #120]	@ 0x78
10003404:	9000      	str	r0, [sp, #0]
10003406:	9828      	ldr	r0, [sp, #160]	@ 0xa0
10003408:	f006 fd50 	bl	10009eac <_Z11MicroPrintfPKcz>
1000340c:	465a      	mov	r2, fp
1000340e:	9b0d      	ldr	r3, [sp, #52]	@ 0x34
10003410:	701a      	strb	r2, [r3, #0]
10003412:	9b10      	ldr	r3, [sp, #64]	@ 0x40
10003414:	701a      	strb	r2, [r3, #0]
10003416:	9b0c      	ldr	r3, [sp, #48]	@ 0x30
10003418:	6819      	ldr	r1, [r3, #0]
1000341a:	2301      	movs	r3, #1
1000341c:	9c14      	ldr	r4, [sp, #80]	@ 0x50
1000341e:	9a0c      	ldr	r2, [sp, #48]	@ 0x30
10003420:	983d      	ldr	r0, [sp, #244]	@ 0xf4
10003422:	6011      	str	r1, [r2, #0]
10003424:	6822      	ldr	r2, [r4, #0]
10003426:	189a      	adds	r2, r3, r2
10003428:	6022      	str	r2, [r4, #0]
1000342a:	1852      	adds	r2, r2, r1
1000342c:	f006 fd3e 	bl	10009eac <_Z11MicroPrintfPKcz>
10003430:	6823      	ldr	r3, [r4, #0]
10003432:	2b00      	cmp	r3, #0
10003434:	d000      	beq.n	10003438 <main+0x23ac>
10003436:	e0f1      	b.n	1000361c <main+0x2590>
10003438:	9844      	ldr	r0, [sp, #272]	@ 0x110
1000343a:	f006 fd37 	bl	10009eac <_Z11MicroPrintfPKcz>
1000343e:	f7fd fe93 	bl	10001168 <main+0xdc>
10003442:	9b0c      	ldr	r3, [sp, #48]	@ 0x30
10003444:	2201      	movs	r2, #1
10003446:	681b      	ldr	r3, [r3, #0]
10003448:	e586      	b.n	10002f58 <main+0x1ecc>
1000344a:	9b0c      	ldr	r3, [sp, #48]	@ 0x30
1000344c:	2201      	movs	r2, #1
1000344e:	681b      	ldr	r3, [r3, #0]
10003450:	e4f6      	b.n	10002e40 <main+0x1db4>
10003452:	9b0c      	ldr	r3, [sp, #48]	@ 0x30
10003454:	2201      	movs	r2, #1
10003456:	681b      	ldr	r3, [r3, #0]
10003458:	f7ff f9dd 	bl	10002816 <main+0x178a>
1000345c:	9b0c      	ldr	r3, [sp, #48]	@ 0x30
1000345e:	2201      	movs	r2, #1
10003460:	681b      	ldr	r3, [r3, #0]
10003462:	f7fe fc27 	bl	10001cb4 <main+0xc28>
10003466:	9b0c      	ldr	r3, [sp, #48]	@ 0x30
10003468:	2201      	movs	r2, #1
1000346a:	681b      	ldr	r3, [r3, #0]
1000346c:	f7fe fb7d 	bl	10001b6a <main+0xade>
10003470:	9b0c      	ldr	r3, [sp, #48]	@ 0x30
10003472:	2201      	movs	r2, #1
10003474:	681b      	ldr	r3, [r3, #0]
10003476:	f7fd ff72 	bl	1000135e <main+0x2d2>
1000347a:	9b0c      	ldr	r3, [sp, #48]	@ 0x30
1000347c:	2200      	movs	r2, #0
1000347e:	681b      	ldr	r3, [r3, #0]
10003480:	3301      	adds	r3, #1
10003482:	f7fd feee 	bl	10001262 <main+0x1d6>
10003486:	aa3a      	add	r2, sp, #232	@ 0xe8
10003488:	4694      	mov	ip, r2
1000348a:	4b0e      	ldr	r3, [pc, #56]	@ (100034c4 <main+0x2438>)
1000348c:	4463      	add	r3, ip
1000348e:	0018      	movs	r0, r3
10003490:	f006 fc3c 	bl	10009d0c <_ZN6tflite5micro12KernelRunner6InvokeEv>
10003494:	2800      	cmp	r0, #0
10003496:	d000      	beq.n	1000349a <main+0x240e>
10003498:	e0b0      	b.n	100035fc <main+0x2570>
1000349a:	9b11      	ldr	r3, [sp, #68]	@ 0x44
1000349c:	6f1c      	ldr	r4, [r3, #112]	@ 0x70
1000349e:	9b1d      	ldr	r3, [sp, #116]	@ 0x74
100034a0:	2b00      	cmp	r3, #0
100034a2:	dd40      	ble.n	10003526 <main+0x249a>
100034a4:	005b      	lsls	r3, r3, #1
100034a6:	ad68      	add	r5, sp, #416	@ 0x1a0
100034a8:	18e3      	adds	r3, r4, r3
100034aa:	002f      	movs	r7, r5
100034ac:	4698      	mov	r8, r3
100034ae:	e011      	b.n	100034d4 <main+0x2448>
100034b0:	000005bc 	.word	0x000005bc
100034b4:	00000216 	.word	0x00000216
100034b8:	00000236 	.word	0x00000236
100034bc:	ffff8000 	.word	0xffff8000
100034c0:	00007fff 	.word	0x00007fff
100034c4:	000008b8 	.word	0x000008b8
100034c8:	42ae      	cmp	r6, r5
100034ca:	d138      	bne.n	1000353e <main+0x24b2>
100034cc:	3402      	adds	r4, #2
100034ce:	3702      	adds	r7, #2
100034d0:	4544      	cmp	r4, r8
100034d2:	d028      	beq.n	10003526 <main+0x249a>
100034d4:	2300      	movs	r3, #0
100034d6:	5efe      	ldrsh	r6, [r7, r3]
100034d8:	2300      	movs	r3, #0
100034da:	5ee5      	ldrsh	r5, [r4, r3]
100034dc:	1b70      	subs	r0, r6, r5
100034de:	42ae      	cmp	r6, r5
100034e0:	ddf2      	ble.n	100034c8 <main+0x243c>
100034e2:	f002 f9c5 	bl	10005870 <__wrap___aeabi_i2f>
100034e6:	21fe      	movs	r1, #254	@ 0xfe
100034e8:	0589      	lsls	r1, r1, #22
100034ea:	f002 f9bb 	bl	10005864 <__wrap___aeabi_fcmpgt>
100034ee:	2800      	cmp	r0, #0
100034f0:	d0ec      	beq.n	100034cc <main+0x2440>
100034f2:	0030      	movs	r0, r6
100034f4:	f001 fd3a 	bl	10004f6c <__wrap___aeabi_i2d>
100034f8:	23a3      	movs	r3, #163	@ 0xa3
100034fa:	9303      	str	r3, [sp, #12]
100034fc:	9b1e      	ldr	r3, [sp, #120]	@ 0x78
100034fe:	900e      	str	r0, [sp, #56]	@ 0x38
10003500:	910f      	str	r1, [sp, #60]	@ 0x3c
10003502:	0028      	movs	r0, r5
10003504:	9302      	str	r3, [sp, #8]
10003506:	f001 fd31 	bl	10004f6c <__wrap___aeabi_i2d>
1000350a:	9a0e      	ldr	r2, [sp, #56]	@ 0x38
1000350c:	9b0f      	ldr	r3, [sp, #60]	@ 0x3c
1000350e:	9000      	str	r0, [sp, #0]
10003510:	9101      	str	r1, [sp, #4]
10003512:	983f      	ldr	r0, [sp, #252]	@ 0xfc
10003514:	f006 fcca 	bl	10009eac <_Z11MicroPrintfPKcz>
10003518:	465a      	mov	r2, fp
1000351a:	9b0d      	ldr	r3, [sp, #52]	@ 0x34
1000351c:	3402      	adds	r4, #2
1000351e:	701a      	strb	r2, [r3, #0]
10003520:	3702      	adds	r7, #2
10003522:	4544      	cmp	r4, r8
10003524:	d1d6      	bne.n	100034d4 <main+0x2448>
10003526:	4659      	mov	r1, fp
10003528:	9a10      	ldr	r2, [sp, #64]	@ 0x40
1000352a:	9b0d      	ldr	r3, [sp, #52]	@ 0x34
1000352c:	7011      	strb	r1, [r2, #0]
1000352e:	781b      	ldrb	r3, [r3, #0]
10003530:	9a0c      	ldr	r2, [sp, #48]	@ 0x30
10003532:	6811      	ldr	r1, [r2, #0]
10003534:	2b00      	cmp	r3, #0
10003536:	d16f      	bne.n	10003618 <main+0x258c>
10003538:	2300      	movs	r3, #0
1000353a:	3101      	adds	r1, #1
1000353c:	e76e      	b.n	1000341c <main+0x2390>
1000353e:	1ba8      	subs	r0, r5, r6
10003540:	f002 f996 	bl	10005870 <__wrap___aeabi_i2f>
10003544:	21fe      	movs	r1, #254	@ 0xfe
10003546:	0589      	lsls	r1, r1, #22
10003548:	f002 f98c 	bl	10005864 <__wrap___aeabi_fcmpgt>
1000354c:	2800      	cmp	r0, #0
1000354e:	d0bd      	beq.n	100034cc <main+0x2440>
10003550:	e7cf      	b.n	100034f2 <main+0x2466>
10003552:	2301      	movs	r3, #1
10003554:	4a3a      	ldr	r2, [pc, #232]	@ (10003640 <main+0x25b4>)
10003556:	9000      	str	r0, [sp, #0]
10003558:	991e      	ldr	r1, [sp, #120]	@ 0x78
1000355a:	983e      	ldr	r0, [sp, #248]	@ 0xf8
1000355c:	f006 fca6 	bl	10009eac <_Z11MicroPrintfPKcz>
10003560:	465a      	mov	r2, fp
10003562:	9b0d      	ldr	r3, [sp, #52]	@ 0x34
10003564:	701a      	strb	r2, [r3, #0]
10003566:	9b10      	ldr	r3, [sp, #64]	@ 0x40
10003568:	701a      	strb	r2, [r3, #0]
1000356a:	9b0c      	ldr	r3, [sp, #48]	@ 0x30
1000356c:	681a      	ldr	r2, [r3, #0]
1000356e:	2301      	movs	r3, #1
10003570:	f7fe ff0f 	bl	10002392 <main+0x1306>
10003574:	2300      	movs	r3, #0
10003576:	4a33      	ldr	r2, [pc, #204]	@ (10003644 <main+0x25b8>)
10003578:	9000      	str	r0, [sp, #0]
1000357a:	991e      	ldr	r1, [sp, #120]	@ 0x78
1000357c:	9841      	ldr	r0, [sp, #260]	@ 0x104
1000357e:	f006 fc95 	bl	10009eac <_Z11MicroPrintfPKcz>
10003582:	465a      	mov	r2, fp
10003584:	9b0d      	ldr	r3, [sp, #52]	@ 0x34
10003586:	701a      	strb	r2, [r3, #0]
10003588:	9b10      	ldr	r3, [sp, #64]	@ 0x40
1000358a:	701a      	strb	r2, [r3, #0]
1000358c:	9b0c      	ldr	r3, [sp, #48]	@ 0x30
1000358e:	2201      	movs	r2, #1
10003590:	681b      	ldr	r3, [r3, #0]
10003592:	f7ff fbc7 	bl	10002d24 <main+0x1c98>
10003596:	2300      	movs	r3, #0
10003598:	22e8      	movs	r2, #232	@ 0xe8
1000359a:	9000      	str	r0, [sp, #0]
1000359c:	991e      	ldr	r1, [sp, #120]	@ 0x78
1000359e:	9828      	ldr	r0, [sp, #160]	@ 0xa0
100035a0:	f006 fc84 	bl	10009eac <_Z11MicroPrintfPKcz>
100035a4:	465a      	mov	r2, fp
100035a6:	9b0d      	ldr	r3, [sp, #52]	@ 0x34
100035a8:	701a      	strb	r2, [r3, #0]
100035aa:	9b10      	ldr	r3, [sp, #64]	@ 0x40
100035ac:	701a      	strb	r2, [r3, #0]
100035ae:	9b0c      	ldr	r3, [sp, #48]	@ 0x30
100035b0:	2201      	movs	r2, #1
100035b2:	681b      	ldr	r3, [r3, #0]
100035b4:	f7fe fa4f 	bl	10001a56 <main+0x9ca>
100035b8:	2300      	movs	r3, #0
100035ba:	22e8      	movs	r2, #232	@ 0xe8
100035bc:	9000      	str	r0, [sp, #0]
100035be:	991e      	ldr	r1, [sp, #120]	@ 0x78
100035c0:	9828      	ldr	r0, [sp, #160]	@ 0xa0
100035c2:	f006 fc73 	bl	10009eac <_Z11MicroPrintfPKcz>
100035c6:	465a      	mov	r2, fp
100035c8:	9b0d      	ldr	r3, [sp, #52]	@ 0x34
100035ca:	701a      	strb	r2, [r3, #0]
100035cc:	9b10      	ldr	r3, [sp, #64]	@ 0x40
100035ce:	701a      	strb	r2, [r3, #0]
100035d0:	9b0c      	ldr	r3, [sp, #48]	@ 0x30
100035d2:	2201      	movs	r2, #1
100035d4:	681b      	ldr	r3, [r3, #0]
100035d6:	f7fe f8ac 	bl	10001732 <main+0x6a6>
100035da:	2300      	movs	r3, #0
100035dc:	4a1a      	ldr	r2, [pc, #104]	@ (10003648 <main+0x25bc>)
100035de:	9000      	str	r0, [sp, #0]
100035e0:	991e      	ldr	r1, [sp, #120]	@ 0x78
100035e2:	9840      	ldr	r0, [sp, #256]	@ 0x100
100035e4:	f006 fc62 	bl	10009eac <_Z11MicroPrintfPKcz>
100035e8:	465a      	mov	r2, fp
100035ea:	9b0d      	ldr	r3, [sp, #52]	@ 0x34
100035ec:	701a      	strb	r2, [r3, #0]
100035ee:	9b10      	ldr	r3, [sp, #64]	@ 0x40
100035f0:	701a      	strb	r2, [r3, #0]
100035f2:	9b0c      	ldr	r3, [sp, #48]	@ 0x30
100035f4:	2201      	movs	r2, #1
100035f6:	681b      	ldr	r3, [r3, #0]
100035f8:	f7fe fd4d 	bl	10002096 <main+0x100a>
100035fc:	2300      	movs	r3, #0
100035fe:	229e      	movs	r2, #158	@ 0x9e
10003600:	9000      	str	r0, [sp, #0]
10003602:	991e      	ldr	r1, [sp, #120]	@ 0x78
10003604:	9842      	ldr	r0, [sp, #264]	@ 0x108
10003606:	f006 fc51 	bl	10009eac <_Z11MicroPrintfPKcz>
1000360a:	465a      	mov	r2, fp
1000360c:	9b0d      	ldr	r3, [sp, #52]	@ 0x34
1000360e:	701a      	strb	r2, [r3, #0]
10003610:	e743      	b.n	1000349a <main+0x240e>
10003612:	2301      	movs	r3, #1
10003614:	f7fe febd 	bl	10002392 <main+0x1306>
10003618:	2301      	movs	r3, #1
1000361a:	e6ff      	b.n	1000341c <main+0x2390>
1000361c:	9845      	ldr	r0, [sp, #276]	@ 0x114
1000361e:	f006 fc45 	bl	10009eac <_Z11MicroPrintfPKcz>
10003622:	f7fd fda1 	bl	10001168 <main+0xdc>
10003626:	2201      	movs	r2, #1
10003628:	f7ff fb7c 	bl	10002d24 <main+0x1c98>
1000362c:	2201      	movs	r2, #1
1000362e:	f7fe fa12 	bl	10001a56 <main+0x9ca>
10003632:	2201      	movs	r2, #1
10003634:	f7fe f87d 	bl	10001732 <main+0x6a6>
10003638:	2201      	movs	r2, #1
1000363a:	f7fe fd2c 	bl	10002096 <main+0x100a>
1000363e:	46c0      	nop			@ (mov r8, r8)
10003640:	00000365 	.word	0x00000365
10003644:	0000047e 	.word	0x0000047e
10003648:	00000309 	.word	0x00000309

1000364c <rp2040_chip_version>:
1000364c:	2380      	movs	r3, #128	@ 0x80
1000364e:	05db      	lsls	r3, r3, #23
10003650:	6818      	ldr	r0, [r3, #0]
10003652:	0f00      	lsrs	r0, r0, #28
10003654:	4770      	bx	lr
10003656:	46c0      	nop			@ (mov r8, r8)

10003658 <panic>:
10003658:	b40f      	push	{r0, r1, r2, r3}
1000365a:	b500      	push	{lr}
1000365c:	4808      	ldr	r0, [pc, #32]	@ (10003680 <panic+0x28>)
1000365e:	b083      	sub	sp, #12
10003660:	f002 fc6e 	bl	10005f40 <__wrap_puts>
10003664:	9b04      	ldr	r3, [sp, #16]
10003666:	2b00      	cmp	r3, #0
10003668:	d007      	beq.n	1000367a <panic+0x22>
1000366a:	a905      	add	r1, sp, #20
1000366c:	0018      	movs	r0, r3
1000366e:	9101      	str	r1, [sp, #4]
10003670:	f002 fa44 	bl	10005afc <weak_raw_vprintf>
10003674:	4803      	ldr	r0, [pc, #12]	@ (10003684 <panic+0x2c>)
10003676:	f002 fc63 	bl	10005f40 <__wrap_puts>
1000367a:	2001      	movs	r0, #1
1000367c:	f002 fa56 	bl	10005b2c <_exit>
10003680:	10013d68 	.word	0x10013d68
10003684:	10013d78 	.word	0x10013d78

10003688 <hw_claim_or_assert>:
10003688:	b570      	push	{r4, r5, r6, lr}
1000368a:	f3ef 8c10 	mrs	ip, PRIMASK
1000368e:	b672      	cpsid	i
10003690:	4d0d      	ldr	r5, [pc, #52]	@ (100036c8 <hw_claim_or_assert+0x40>)
10003692:	682b      	ldr	r3, [r5, #0]
10003694:	2b00      	cmp	r3, #0
10003696:	d0fc      	beq.n	10003692 <hw_claim_or_assert+0xa>
10003698:	f3bf 8f5f 	dmb	sy
1000369c:	2407      	movs	r4, #7
1000369e:	08cb      	lsrs	r3, r1, #3
100036a0:	18c6      	adds	r6, r0, r3
100036a2:	5cc0      	ldrb	r0, [r0, r3]
100036a4:	2301      	movs	r3, #1
100036a6:	400c      	ands	r4, r1
100036a8:	40a3      	lsls	r3, r4
100036aa:	001c      	movs	r4, r3
100036ac:	4004      	ands	r4, r0
100036ae:	4203      	tst	r3, r0
100036b0:	d107      	bne.n	100036c2 <hw_claim_or_assert+0x3a>
100036b2:	4318      	orrs	r0, r3
100036b4:	7030      	strb	r0, [r6, #0]
100036b6:	f3bf 8f5f 	dmb	sy
100036ba:	602c      	str	r4, [r5, #0]
100036bc:	f38c 8810 	msr	PRIMASK, ip
100036c0:	bd70      	pop	{r4, r5, r6, pc}
100036c2:	0010      	movs	r0, r2
100036c4:	f7ff ffc8 	bl	10003658 <panic>
100036c8:	d000012c 	.word	0xd000012c

100036cc <hw_claim_unused_from_range>:
100036cc:	b5f8      	push	{r3, r4, r5, r6, r7, lr}
100036ce:	4647      	mov	r7, r8
100036d0:	46ce      	mov	lr, r9
100036d2:	4688      	mov	r8, r1
100036d4:	b580      	push	{r7, lr}
100036d6:	f3ef 8c10 	mrs	ip, PRIMASK
100036da:	b672      	cpsid	i
100036dc:	4d21      	ldr	r5, [pc, #132]	@ (10003764 <hw_claim_unused_from_range+0x98>)
100036de:	682c      	ldr	r4, [r5, #0]
100036e0:	2c00      	cmp	r4, #0
100036e2:	d0fc      	beq.n	100036de <hw_claim_unused_from_range+0x12>
100036e4:	f3bf 8f5f 	dmb	sy
100036e8:	429a      	cmp	r2, r3
100036ea:	d82c      	bhi.n	10003746 <hw_claim_unused_from_range+0x7a>
100036ec:	08d4      	lsrs	r4, r2, #3
100036ee:	2707      	movs	r7, #7
100036f0:	5d05      	ldrb	r5, [r0, r4]
100036f2:	1906      	adds	r6, r0, r4
100036f4:	2401      	movs	r4, #1
100036f6:	4017      	ands	r7, r2
100036f8:	40bc      	lsls	r4, r7
100036fa:	422c      	tst	r4, r5
100036fc:	d01f      	beq.n	1000373e <hw_claim_unused_from_range+0x72>
100036fe:	2107      	movs	r1, #7
10003700:	2701      	movs	r7, #1
10003702:	4689      	mov	r9, r1
10003704:	e009      	b.n	1000371a <hw_claim_unused_from_range+0x4e>
10003706:	08d4      	lsrs	r4, r2, #3
10003708:	5d05      	ldrb	r5, [r0, r4]
1000370a:	1906      	adds	r6, r0, r4
1000370c:	464c      	mov	r4, r9
1000370e:	0039      	movs	r1, r7
10003710:	4014      	ands	r4, r2
10003712:	40a1      	lsls	r1, r4
10003714:	000c      	movs	r4, r1
10003716:	4229      	tst	r1, r5
10003718:	d011      	beq.n	1000373e <hw_claim_unused_from_range+0x72>
1000371a:	3201      	adds	r2, #1
1000371c:	4293      	cmp	r3, r2
1000371e:	d2f2      	bcs.n	10003706 <hw_claim_unused_from_range+0x3a>
10003720:	2001      	movs	r0, #1
10003722:	4240      	negs	r0, r0
10003724:	f3bf 8f5f 	dmb	sy
10003728:	2200      	movs	r2, #0
1000372a:	4b0e      	ldr	r3, [pc, #56]	@ (10003764 <hw_claim_unused_from_range+0x98>)
1000372c:	601a      	str	r2, [r3, #0]
1000372e:	f38c 8810 	msr	PRIMASK, ip
10003732:	2800      	cmp	r0, #0
10003734:	db0f      	blt.n	10003756 <hw_claim_unused_from_range+0x8a>
10003736:	bcc0      	pop	{r6, r7}
10003738:	46b9      	mov	r9, r7
1000373a:	46b0      	mov	r8, r6
1000373c:	bdf8      	pop	{r3, r4, r5, r6, r7, pc}
1000373e:	4325      	orrs	r5, r4
10003740:	0010      	movs	r0, r2
10003742:	7035      	strb	r5, [r6, #0]
10003744:	e7ee      	b.n	10003724 <hw_claim_unused_from_range+0x58>
10003746:	f3bf 8f5f 	dmb	sy
1000374a:	2300      	movs	r3, #0
1000374c:	602b      	str	r3, [r5, #0]
1000374e:	f38c 8810 	msr	PRIMASK, ip
10003752:	2001      	movs	r0, #1
10003754:	4240      	negs	r0, r0
10003756:	4643      	mov	r3, r8
10003758:	2b00      	cmp	r3, #0
1000375a:	d0ec      	beq.n	10003736 <hw_claim_unused_from_range+0x6a>
1000375c:	9808      	ldr	r0, [sp, #32]
1000375e:	f7ff ff7b 	bl	10003658 <panic>
10003762:	46c0      	nop			@ (mov r8, r8)
10003764:	d000012c 	.word	0xd000012c

10003768 <next_striped_spin_lock_num>:
10003768:	4a04      	ldr	r2, [pc, #16]	@ (1000377c <next_striped_spin_lock_num+0x14>)
1000376a:	7810      	ldrb	r0, [r2, #0]
1000376c:	1c43      	adds	r3, r0, #1
1000376e:	b2db      	uxtb	r3, r3
10003770:	2b17      	cmp	r3, #23
10003772:	d900      	bls.n	10003776 <next_striped_spin_lock_num+0xe>
10003774:	2310      	movs	r3, #16
10003776:	7013      	strb	r3, [r2, #0]
10003778:	4770      	bx	lr
1000377a:	46c0      	nop			@ (mov r8, r8)
1000377c:	20001110 	.word	0x20001110

10003780 <spin_lock_claim_unused>:
10003780:	b510      	push	{r4, lr}
10003782:	4b06      	ldr	r3, [pc, #24]	@ (1000379c <spin_lock_claim_unused+0x1c>)
10003784:	4c06      	ldr	r4, [pc, #24]	@ (100037a0 <spin_lock_claim_unused+0x20>)
10003786:	b082      	sub	sp, #8
10003788:	0001      	movs	r1, r0
1000378a:	9300      	str	r3, [sp, #0]
1000378c:	2218      	movs	r2, #24
1000378e:	231f      	movs	r3, #31
10003790:	0020      	movs	r0, r4
10003792:	f7ff ff9b 	bl	100036cc <hw_claim_unused_from_range>
10003796:	b002      	add	sp, #8
10003798:	bd10      	pop	{r4, pc}
1000379a:	46c0      	nop			@ (mov r8, r8)
1000379c:	10013d7c 	.word	0x10013d7c
100037a0:	20004d08 	.word	0x20004d08

100037a4 <spin_locks_reset>:
100037a4:	2100      	movs	r1, #0
100037a6:	4b04      	ldr	r3, [pc, #16]	@ (100037b8 <spin_locks_reset+0x14>)
100037a8:	4a04      	ldr	r2, [pc, #16]	@ (100037bc <spin_locks_reset+0x18>)
100037aa:	f3bf 8f5f 	dmb	sy
100037ae:	c302      	stmia	r3!, {r1}
100037b0:	4293      	cmp	r3, r2
100037b2:	d1fa      	bne.n	100037aa <spin_locks_reset+0x6>
100037b4:	4770      	bx	lr
100037b6:	46c0      	nop			@ (mov r8, r8)
100037b8:	d0000100 	.word	0xd0000100
100037bc:	d0000180 	.word	0xd0000180

100037c0 <runtime_init_per_core_irq_priorities>:
100037c0:	4b05      	ldr	r3, [pc, #20]	@ (100037d8 <runtime_init_per_core_irq_priorities+0x18>)
100037c2:	4a06      	ldr	r2, [pc, #24]	@ (100037dc <runtime_init_per_core_irq_priorities+0x1c>)
100037c4:	6013      	str	r3, [r2, #0]
100037c6:	4a06      	ldr	r2, [pc, #24]	@ (100037e0 <runtime_init_per_core_irq_priorities+0x20>)
100037c8:	6013      	str	r3, [r2, #0]
100037ca:	6053      	str	r3, [r2, #4]
100037cc:	6093      	str	r3, [r2, #8]
100037ce:	60d3      	str	r3, [r2, #12]
100037d0:	6113      	str	r3, [r2, #16]
100037d2:	6153      	str	r3, [r2, #20]
100037d4:	6193      	str	r3, [r2, #24]
100037d6:	4770      	bx	lr
100037d8:	80808080 	.word	0x80808080
100037dc:	e000e400 	.word	0xe000e400
100037e0:	e000e404 	.word	0xe000e404

100037e4 <irq_set_enabled>:
100037e4:	231f      	movs	r3, #31
100037e6:	4018      	ands	r0, r3
100037e8:	3b1e      	subs	r3, #30
100037ea:	4083      	lsls	r3, r0
100037ec:	2900      	cmp	r1, #0
100037ee:	d005      	beq.n	100037fc <irq_set_enabled+0x18>
100037f0:	21c0      	movs	r1, #192	@ 0xc0
100037f2:	4a04      	ldr	r2, [pc, #16]	@ (10003804 <irq_set_enabled+0x20>)
100037f4:	0049      	lsls	r1, r1, #1
100037f6:	5053      	str	r3, [r2, r1]
100037f8:	6013      	str	r3, [r2, #0]
100037fa:	4770      	bx	lr
100037fc:	2280      	movs	r2, #128	@ 0x80
100037fe:	4901      	ldr	r1, [pc, #4]	@ (10003804 <irq_set_enabled+0x20>)
10003800:	508b      	str	r3, [r1, r2]
10003802:	e7fa      	b.n	100037fa <irq_set_enabled+0x16>
10003804:	e000e100 	.word	0xe000e100

10003808 <irq_is_enabled>:
10003808:	2201      	movs	r2, #1
1000380a:	4082      	lsls	r2, r0
1000380c:	4b03      	ldr	r3, [pc, #12]	@ (1000381c <irq_is_enabled+0x14>)
1000380e:	681b      	ldr	r3, [r3, #0]
10003810:	4013      	ands	r3, r2
10003812:	1e5a      	subs	r2, r3, #1
10003814:	4193      	sbcs	r3, r2
10003816:	b2d8      	uxtb	r0, r3
10003818:	4770      	bx	lr
1000381a:	46c0      	nop			@ (mov r8, r8)
1000381c:	e000e100 	.word	0xe000e100

10003820 <irq_set_pending>:
10003820:	2301      	movs	r3, #1
10003822:	4083      	lsls	r3, r0
10003824:	4a01      	ldr	r2, [pc, #4]	@ (1000382c <irq_set_pending+0xc>)
10003826:	6013      	str	r3, [r2, #0]
10003828:	4770      	bx	lr
1000382a:	46c0      	nop			@ (mov r8, r8)
1000382c:	e000e200 	.word	0xe000e200

10003830 <irq_has_shared_handler>:
10003830:	4b08      	ldr	r3, [pc, #32]	@ (10003854 <irq_has_shared_handler+0x24>)
10003832:	3010      	adds	r0, #16
10003834:	689b      	ldr	r3, [r3, #8]
10003836:	0080      	lsls	r0, r0, #2
10003838:	58c3      	ldr	r3, [r0, r3]
1000383a:	2b00      	cmp	r3, #0
1000383c:	d007      	beq.n	1000384e <irq_has_shared_handler+0x1e>
1000383e:	4a06      	ldr	r2, [pc, #24]	@ (10003858 <irq_has_shared_handler+0x28>)
10003840:	2000      	movs	r0, #0
10003842:	1a9b      	subs	r3, r3, r2
10003844:	222f      	movs	r2, #47	@ 0x2f
10003846:	429a      	cmp	r2, r3
10003848:	4140      	adcs	r0, r0
1000384a:	b2c0      	uxtb	r0, r0
1000384c:	4770      	bx	lr
1000384e:	2000      	movs	r0, #0
10003850:	e7fc      	b.n	1000384c <irq_has_shared_handler+0x1c>
10003852:	46c0      	nop			@ (mov r8, r8)
10003854:	e000ed00 	.word	0xe000ed00
10003858:	20001114 	.word	0x20001114

1000385c <irq_set_exclusive_handler>:
1000385c:	b570      	push	{r4, r5, r6, lr}
1000385e:	000d      	movs	r5, r1
10003860:	f3ef 8610 	mrs	r6, PRIMASK
10003864:	b672      	cpsid	i
10003866:	4a0f      	ldr	r2, [pc, #60]	@ (100038a4 <irq_set_exclusive_handler+0x48>)
10003868:	6813      	ldr	r3, [r2, #0]
1000386a:	2b00      	cmp	r3, #0
1000386c:	d0fc      	beq.n	10003868 <irq_set_exclusive_handler+0xc>
1000386e:	f3bf 8f5f 	dmb	sy
10003872:	4b0d      	ldr	r3, [pc, #52]	@ (100038a8 <irq_set_exclusive_handler+0x4c>)
10003874:	3010      	adds	r0, #16
10003876:	689b      	ldr	r3, [r3, #8]
10003878:	0084      	lsls	r4, r0, #2
1000387a:	591b      	ldr	r3, [r3, r4]
1000387c:	4a0b      	ldr	r2, [pc, #44]	@ (100038ac <irq_set_exclusive_handler+0x50>)
1000387e:	4293      	cmp	r3, r2
10003880:	d003      	beq.n	1000388a <irq_set_exclusive_handler+0x2e>
10003882:	429d      	cmp	r5, r3
10003884:	d001      	beq.n	1000388a <irq_set_exclusive_handler+0x2e>
10003886:	f000 ff91 	bl	100047ac <hard_assertion_failure>
1000388a:	4b07      	ldr	r3, [pc, #28]	@ (100038a8 <irq_set_exclusive_handler+0x4c>)
1000388c:	689b      	ldr	r3, [r3, #8]
1000388e:	511d      	str	r5, [r3, r4]
10003890:	f3bf 8f5f 	dmb	sy
10003894:	f3bf 8f5f 	dmb	sy
10003898:	2200      	movs	r2, #0
1000389a:	4b02      	ldr	r3, [pc, #8]	@ (100038a4 <irq_set_exclusive_handler+0x48>)
1000389c:	601a      	str	r2, [r3, #0]
1000389e:	f386 8810 	msr	PRIMASK, r6
100038a2:	bd70      	pop	{r4, r5, r6, pc}
100038a4:	d0000124 	.word	0xd0000124
100038a8:	e000ed00 	.word	0xe000ed00
100038ac:	100001cd 	.word	0x100001cd

100038b0 <irq_add_shared_handler>:
100038b0:	b5f0      	push	{r4, r5, r6, r7, lr}
100038b2:	4657      	mov	r7, sl
100038b4:	464e      	mov	r6, r9
100038b6:	46de      	mov	lr, fp
100038b8:	4645      	mov	r5, r8
100038ba:	b5e0      	push	{r5, r6, r7, lr}
100038bc:	b085      	sub	sp, #20
100038be:	0006      	movs	r6, r0
100038c0:	9100      	str	r1, [sp, #0]
100038c2:	0017      	movs	r7, r2
100038c4:	f3ef 8b10 	mrs	fp, PRIMASK
100038c8:	b672      	cpsid	i
100038ca:	4a6a      	ldr	r2, [pc, #424]	@ (10003a74 <irq_add_shared_handler+0x1c4>)
100038cc:	6813      	ldr	r3, [r2, #0]
100038ce:	2b00      	cmp	r3, #0
100038d0:	d0fc      	beq.n	100038cc <irq_add_shared_handler+0x1c>
100038d2:	f3bf 8f5f 	dmb	sy
100038d6:	2500      	movs	r5, #0
100038d8:	4b67      	ldr	r3, [pc, #412]	@ (10003a78 <irq_add_shared_handler+0x1c8>)
100038da:	575d      	ldrsb	r5, [r3, r5]
100038dc:	469a      	mov	sl, r3
100038de:	2d00      	cmp	r5, #0
100038e0:	da00      	bge.n	100038e4 <irq_add_shared_handler+0x34>
100038e2:	e0a9      	b.n	10003a38 <irq_add_shared_handler+0x188>
100038e4:	006b      	lsls	r3, r5, #1
100038e6:	4c65      	ldr	r4, [pc, #404]	@ (10003a7c <irq_add_shared_handler+0x1cc>)
100038e8:	9301      	str	r3, [sp, #4]
100038ea:	195b      	adds	r3, r3, r5
100038ec:	009b      	lsls	r3, r3, #2
100038ee:	4698      	mov	r8, r3
100038f0:	46a1      	mov	r9, r4
100038f2:	44c1      	add	r9, r8
100038f4:	464b      	mov	r3, r9
100038f6:	4652      	mov	r2, sl
100038f8:	799b      	ldrb	r3, [r3, #6]
100038fa:	3610      	adds	r6, #16
100038fc:	7013      	strb	r3, [r2, #0]
100038fe:	4b60      	ldr	r3, [pc, #384]	@ (10003a80 <irq_add_shared_handler+0x1d0>)
10003900:	00b6      	lsls	r6, r6, #2
10003902:	689b      	ldr	r3, [r3, #8]
10003904:	5999      	ldr	r1, [r3, r6]
10003906:	1b0b      	subs	r3, r1, r4
10003908:	2b2f      	cmp	r3, #47	@ 0x2f
1000390a:	d933      	bls.n	10003974 <irq_add_shared_handler+0xc4>
1000390c:	4b5d      	ldr	r3, [pc, #372]	@ (10003a84 <irq_add_shared_handler+0x1d4>)
1000390e:	4299      	cmp	r1, r3
10003910:	d000      	beq.n	10003914 <irq_add_shared_handler+0x64>
10003912:	e0ac      	b.n	10003a6e <irq_add_shared_handler+0x1be>
10003914:	9b01      	ldr	r3, [sp, #4]
10003916:	4642      	mov	r2, r8
10003918:	469c      	mov	ip, r3
1000391a:	4b5b      	ldr	r3, [pc, #364]	@ (10003a88 <irq_add_shared_handler+0x1d8>)
1000391c:	4465      	add	r5, ip
1000391e:	00ad      	lsls	r5, r5, #2
10003920:	5363      	strh	r3, [r4, r5]
10003922:	4b5a      	ldr	r3, [pc, #360]	@ (10003a8c <irq_add_shared_handler+0x1dc>)
10003924:	3202      	adds	r2, #2
10003926:	18a2      	adds	r2, r4, r2
10003928:	3b04      	subs	r3, #4
1000392a:	1a9b      	subs	r3, r3, r2
1000392c:	051b      	lsls	r3, r3, #20
1000392e:	4a58      	ldr	r2, [pc, #352]	@ (10003a90 <irq_add_shared_handler+0x1e0>)
10003930:	0d5b      	lsrs	r3, r3, #21
10003932:	1965      	adds	r5, r4, r5
10003934:	4313      	orrs	r3, r2
10003936:	806b      	strh	r3, [r5, #2]
10003938:	4b56      	ldr	r3, [pc, #344]	@ (10003a94 <irq_add_shared_handler+0x1e4>)
1000393a:	2101      	movs	r1, #1
1000393c:	80ab      	strh	r3, [r5, #4]
1000393e:	23ff      	movs	r3, #255	@ 0xff
10003940:	71ab      	strb	r3, [r5, #6]
10003942:	9b00      	ldr	r3, [sp, #0]
10003944:	71ef      	strb	r7, [r5, #7]
10003946:	60ab      	str	r3, [r5, #8]
10003948:	464b      	mov	r3, r9
1000394a:	430b      	orrs	r3, r1
1000394c:	0019      	movs	r1, r3
1000394e:	4b4c      	ldr	r3, [pc, #304]	@ (10003a80 <irq_add_shared_handler+0x1d0>)
10003950:	689b      	ldr	r3, [r3, #8]
10003952:	5199      	str	r1, [r3, r6]
10003954:	f3bf 8f5f 	dmb	sy
10003958:	f3bf 8f5f 	dmb	sy
1000395c:	2200      	movs	r2, #0
1000395e:	4b45      	ldr	r3, [pc, #276]	@ (10003a74 <irq_add_shared_handler+0x1c4>)
10003960:	601a      	str	r2, [r3, #0]
10003962:	f38b 8810 	msr	PRIMASK, fp
10003966:	b005      	add	sp, #20
10003968:	bcf0      	pop	{r4, r5, r6, r7}
1000396a:	46bb      	mov	fp, r7
1000396c:	46b2      	mov	sl, r6
1000396e:	46a9      	mov	r9, r5
10003970:	46a0      	mov	r8, r4
10003972:	bdf0      	pop	{r4, r5, r6, r7, pc}
10003974:	2001      	movs	r0, #1
10003976:	000a      	movs	r2, r1
10003978:	4382      	bics	r2, r0
1000397a:	79d3      	ldrb	r3, [r2, #7]
1000397c:	468c      	mov	ip, r1
1000397e:	42bb      	cmp	r3, r7
10003980:	d831      	bhi.n	100039e6 <irq_add_shared_handler+0x136>
10003982:	4645      	mov	r5, r8
10003984:	0013      	movs	r3, r2
10003986:	4944      	ldr	r1, [pc, #272]	@ (10003a98 <irq_add_shared_handler+0x1e8>)
10003988:	1b1b      	subs	r3, r3, r4
1000398a:	415b      	adcs	r3, r3
1000398c:	4359      	muls	r1, r3
1000398e:	0d09      	lsrs	r1, r1, #20
10003990:	4b3d      	ldr	r3, [pc, #244]	@ (10003a88 <irq_add_shared_handler+0x1d8>)
10003992:	5363      	strh	r3, [r4, r5]
10003994:	4b3d      	ldr	r3, [pc, #244]	@ (10003a8c <irq_add_shared_handler+0x1dc>)
10003996:	3502      	adds	r5, #2
10003998:	1965      	adds	r5, r4, r5
1000399a:	3b04      	subs	r3, #4
1000399c:	1b5b      	subs	r3, r3, r5
1000399e:	051b      	lsls	r3, r3, #20
100039a0:	4d3b      	ldr	r5, [pc, #236]	@ (10003a90 <irq_add_shared_handler+0x1e0>)
100039a2:	0d5b      	lsrs	r3, r3, #21
100039a4:	432b      	orrs	r3, r5
100039a6:	46aa      	mov	sl, r5
100039a8:	464d      	mov	r5, r9
100039aa:	806b      	strh	r3, [r5, #2]
100039ac:	2504      	movs	r5, #4
100039ae:	46ac      	mov	ip, r5
100039b0:	4655      	mov	r5, sl
100039b2:	44e0      	add	r8, ip
100039b4:	1f13      	subs	r3, r2, #4
100039b6:	4444      	add	r4, r8
100039b8:	1b1b      	subs	r3, r3, r4
100039ba:	051b      	lsls	r3, r3, #20
100039bc:	0d5b      	lsrs	r3, r3, #21
100039be:	431d      	orrs	r5, r3
100039c0:	464b      	mov	r3, r9
100039c2:	7199      	strb	r1, [r3, #6]
100039c4:	9900      	ldr	r1, [sp, #0]
100039c6:	809d      	strh	r5, [r3, #4]
100039c8:	6099      	str	r1, [r3, #8]
100039ca:	4649      	mov	r1, r9
100039cc:	71df      	strb	r7, [r3, #7]
100039ce:	4b33      	ldr	r3, [pc, #204]	@ (10003a9c <irq_add_shared_handler+0x1ec>)
100039d0:	4301      	orrs	r1, r0
100039d2:	6013      	str	r3, [r2, #0]
100039d4:	e7bb      	b.n	1000394e <irq_add_shared_handler+0x9e>
100039d6:	0058      	lsls	r0, r3, #1
100039d8:	18c0      	adds	r0, r0, r3
100039da:	0080      	lsls	r0, r0, #2
100039dc:	1820      	adds	r0, r4, r0
100039de:	79c1      	ldrb	r1, [r0, #7]
100039e0:	42b9      	cmp	r1, r7
100039e2:	d92f      	bls.n	10003a44 <irq_add_shared_handler+0x194>
100039e4:	0002      	movs	r2, r0
100039e6:	2306      	movs	r3, #6
100039e8:	56d3      	ldrsb	r3, [r2, r3]
100039ea:	2b00      	cmp	r3, #0
100039ec:	daf3      	bge.n	100039d6 <irq_add_shared_handler+0x126>
100039ee:	9302      	str	r3, [sp, #8]
100039f0:	4b2b      	ldr	r3, [pc, #172]	@ (10003aa0 <irq_add_shared_handler+0x1f0>)
100039f2:	4661      	mov	r1, ip
100039f4:	9303      	str	r3, [sp, #12]
100039f6:	1d13      	adds	r3, r2, #4
100039f8:	469a      	mov	sl, r3
100039fa:	2304      	movs	r3, #4
100039fc:	425b      	negs	r3, r3
100039fe:	469c      	mov	ip, r3
10003a00:	44e1      	add	r9, ip
10003a02:	4650      	mov	r0, sl
10003a04:	464b      	mov	r3, r9
10003a06:	1a1b      	subs	r3, r3, r0
10003a08:	051b      	lsls	r3, r3, #20
10003a0a:	0d5b      	lsrs	r3, r3, #21
10003a0c:	469c      	mov	ip, r3
10003a0e:	4b20      	ldr	r3, [pc, #128]	@ (10003a90 <irq_add_shared_handler+0x1e0>)
10003a10:	7195      	strb	r5, [r2, #6]
10003a12:	4698      	mov	r8, r3
10003a14:	4663      	mov	r3, ip
10003a16:	4640      	mov	r0, r8
10003a18:	4303      	orrs	r3, r0
10003a1a:	8093      	strh	r3, [r2, #4]
10003a1c:	9b01      	ldr	r3, [sp, #4]
10003a1e:	195a      	adds	r2, r3, r5
10003a20:	0092      	lsls	r2, r2, #2
10003a22:	9b03      	ldr	r3, [sp, #12]
10003a24:	18a4      	adds	r4, r4, r2
10003a26:	80a3      	strh	r3, [r4, #4]
10003a28:	9b02      	ldr	r3, [sp, #8]
10003a2a:	4a1c      	ldr	r2, [pc, #112]	@ (10003a9c <irq_add_shared_handler+0x1ec>)
10003a2c:	71a3      	strb	r3, [r4, #6]
10003a2e:	9b00      	ldr	r3, [sp, #0]
10003a30:	6022      	str	r2, [r4, #0]
10003a32:	71e7      	strb	r7, [r4, #7]
10003a34:	60a3      	str	r3, [r4, #8]
10003a36:	e78a      	b.n	1000394e <irq_add_shared_handler+0x9e>
10003a38:	f000 feb8 	bl	100047ac <hard_assertion_failure>
10003a3c:	2500      	movs	r5, #0
10003a3e:	4653      	mov	r3, sl
10003a40:	575d      	ldrsb	r5, [r3, r5]
10003a42:	e74f      	b.n	100038e4 <irq_add_shared_handler+0x34>
10003a44:	8890      	ldrh	r0, [r2, #4]
10003a46:	9302      	str	r3, [sp, #8]
10003a48:	0540      	lsls	r0, r0, #21
10003a4a:	1d13      	adds	r3, r2, #4
10003a4c:	469a      	mov	sl, r3
10003a4e:	1503      	asrs	r3, r0, #20
10003a50:	4661      	mov	r1, ip
10003a52:	469c      	mov	ip, r3
10003a54:	4640      	mov	r0, r8
10003a56:	44d4      	add	ip, sl
10003a58:	4663      	mov	r3, ip
10003a5a:	3004      	adds	r0, #4
10003a5c:	1820      	adds	r0, r4, r0
10003a5e:	1a18      	subs	r0, r3, r0
10003a60:	23e0      	movs	r3, #224	@ 0xe0
10003a62:	0500      	lsls	r0, r0, #20
10003a64:	0d40      	lsrs	r0, r0, #21
10003a66:	021b      	lsls	r3, r3, #8
10003a68:	4318      	orrs	r0, r3
10003a6a:	9003      	str	r0, [sp, #12]
10003a6c:	e7c5      	b.n	100039fa <irq_add_shared_handler+0x14a>
10003a6e:	f000 fe9d 	bl	100047ac <hard_assertion_failure>
10003a72:	e74f      	b.n	10003914 <irq_add_shared_handler+0x64>
10003a74:	d0000124 	.word	0xd0000124
10003a78:	200051e3 	.word	0x200051e3
10003a7c:	20001114 	.word	0x20001114
10003a80:	e000ed00 	.word	0xe000ed00
10003a84:	100001cd 	.word	0x100001cd
10003a88:	ffffa100 	.word	0xffffa100
10003a8c:	20001144 	.word	0x20001144
10003a90:	ffffe000 	.word	0xffffe000
10003a94:	ffffbd01 	.word	0xffffbd01
10003a98:	0000aaaa 	.word	0x0000aaaa
10003a9c:	47804801 	.word	0x47804801
10003aa0:	0000bd01 	.word	0x0000bd01

10003aa4 <irq_add_tail_to_free_list>:
10003aa4:	b570      	push	{r4, r5, r6, lr}
10003aa6:	2401      	movs	r4, #1
10003aa8:	4304      	orrs	r4, r0
10003aaa:	f3ef 8105 	mrs	r1, IPSR
10003aae:	f3ef 8c10 	mrs	ip, PRIMASK
10003ab2:	b672      	cpsid	i
10003ab4:	4a21      	ldr	r2, [pc, #132]	@ (10003b3c <irq_add_tail_to_free_list+0x98>)
10003ab6:	6813      	ldr	r3, [r2, #0]
10003ab8:	2b00      	cmp	r3, #0
10003aba:	d0fc      	beq.n	10003ab6 <irq_add_tail_to_free_list+0x12>
10003abc:	f3bf 8f5f 	dmb	sy
10003ac0:	4b1f      	ldr	r3, [pc, #124]	@ (10003b40 <irq_add_tail_to_free_list+0x9c>)
10003ac2:	0005      	movs	r5, r0
10003ac4:	4a1f      	ldr	r2, [pc, #124]	@ (10003b44 <irq_add_tail_to_free_list+0xa0>)
10003ac6:	1aed      	subs	r5, r5, r3
10003ac8:	416d      	adcs	r5, r5
10003aca:	436a      	muls	r2, r5
10003acc:	0d12      	lsrs	r2, r2, #20
10003ace:	4d1e      	ldr	r5, [pc, #120]	@ (10003b48 <irq_add_tail_to_free_list+0xa4>)
10003ad0:	0089      	lsls	r1, r1, #2
10003ad2:	68ae      	ldr	r6, [r5, #8]
10003ad4:	b252      	sxtb	r2, r2
10003ad6:	5876      	ldr	r6, [r6, r1]
10003ad8:	42a6      	cmp	r6, r4
10003ada:	d01c      	beq.n	10003b16 <irq_add_tail_to_free_list+0x72>
10003adc:	2106      	movs	r1, #6
10003ade:	5659      	ldrsb	r1, [r3, r1]
10003ae0:	4291      	cmp	r1, r2
10003ae2:	d01c      	beq.n	10003b1e <irq_add_tail_to_free_list+0x7a>
10003ae4:	2112      	movs	r1, #18
10003ae6:	5659      	ldrsb	r1, [r3, r1]
10003ae8:	4291      	cmp	r1, r2
10003aea:	d022      	beq.n	10003b32 <irq_add_tail_to_free_list+0x8e>
10003aec:	211e      	movs	r1, #30
10003aee:	5659      	ldrsb	r1, [r3, r1]
10003af0:	4291      	cmp	r1, r2
10003af2:	d020      	beq.n	10003b36 <irq_add_tail_to_free_list+0x92>
10003af4:	212a      	movs	r1, #42	@ 0x2a
10003af6:	5659      	ldrsb	r1, [r3, r1]
10003af8:	2403      	movs	r4, #3
10003afa:	4291      	cmp	r1, r2
10003afc:	d010      	beq.n	10003b20 <irq_add_tail_to_free_list+0x7c>
10003afe:	4b13      	ldr	r3, [pc, #76]	@ (10003b4c <irq_add_tail_to_free_list+0xa8>)
10003b00:	7819      	ldrb	r1, [r3, #0]
10003b02:	701a      	strb	r2, [r3, #0]
10003b04:	7181      	strb	r1, [r0, #6]
10003b06:	f3bf 8f5f 	dmb	sy
10003b0a:	2200      	movs	r2, #0
10003b0c:	4b0b      	ldr	r3, [pc, #44]	@ (10003b3c <irq_add_tail_to_free_list+0x98>)
10003b0e:	601a      	str	r2, [r3, #0]
10003b10:	f38c 8810 	msr	PRIMASK, ip
10003b14:	bd70      	pop	{r4, r5, r6, pc}
10003b16:	68ab      	ldr	r3, [r5, #8]
10003b18:	4c0d      	ldr	r4, [pc, #52]	@ (10003b50 <irq_add_tail_to_free_list+0xac>)
10003b1a:	505c      	str	r4, [r3, r1]
10003b1c:	e7ef      	b.n	10003afe <irq_add_tail_to_free_list+0x5a>
10003b1e:	2400      	movs	r4, #0
10003b20:	0061      	lsls	r1, r4, #1
10003b22:	1909      	adds	r1, r1, r4
10003b24:	0089      	lsls	r1, r1, #2
10003b26:	185b      	adds	r3, r3, r1
10003b28:	21ff      	movs	r1, #255	@ 0xff
10003b2a:	7199      	strb	r1, [r3, #6]
10003b2c:	4909      	ldr	r1, [pc, #36]	@ (10003b54 <irq_add_tail_to_free_list+0xb0>)
10003b2e:	8099      	strh	r1, [r3, #4]
10003b30:	e7e5      	b.n	10003afe <irq_add_tail_to_free_list+0x5a>
10003b32:	2401      	movs	r4, #1
10003b34:	e7f4      	b.n	10003b20 <irq_add_tail_to_free_list+0x7c>
10003b36:	2402      	movs	r4, #2
10003b38:	e7f2      	b.n	10003b20 <irq_add_tail_to_free_list+0x7c>
10003b3a:	46c0      	nop			@ (mov r8, r8)
10003b3c:	d0000124 	.word	0xd0000124
10003b40:	20001114 	.word	0x20001114
10003b44:	0000aaaa 	.word	0x0000aaaa
10003b48:	e000ed00 	.word	0xe000ed00
10003b4c:	200051e3 	.word	0x200051e3
10003b50:	100001cd 	.word	0x100001cd
10003b54:	ffffbd01 	.word	0xffffbd01

10003b58 <user_irq_claim_unused>:
10003b58:	b510      	push	{r4, lr}
10003b5a:	4b08      	ldr	r3, [pc, #32]	@ (10003b7c <user_irq_claim_unused+0x24>)
10003b5c:	4c08      	ldr	r4, [pc, #32]	@ (10003b80 <user_irq_claim_unused+0x28>)
10003b5e:	b082      	sub	sp, #8
10003b60:	0001      	movs	r1, r0
10003b62:	9300      	str	r3, [sp, #0]
10003b64:	2200      	movs	r2, #0
10003b66:	2305      	movs	r3, #5
10003b68:	0020      	movs	r0, r4
10003b6a:	f7ff fdaf 	bl	100036cc <hw_claim_unused_from_range>
10003b6e:	2800      	cmp	r0, #0
10003b70:	db01      	blt.n	10003b76 <user_irq_claim_unused+0x1e>
10003b72:	231f      	movs	r3, #31
10003b74:	1a18      	subs	r0, r3, r0
10003b76:	b002      	add	sp, #8
10003b78:	bd10      	pop	{r4, pc}
10003b7a:	46c0      	nop			@ (mov r8, r8)
10003b7c:	10013d98 	.word	0x10013d98
10003b80:	200051e7 	.word	0x200051e7

10003b84 <lock_init>:
10003b84:	4b02      	ldr	r3, [pc, #8]	@ (10003b90 <lock_init+0xc>)
10003b86:	469c      	mov	ip, r3
10003b88:	4461      	add	r1, ip
10003b8a:	0089      	lsls	r1, r1, #2
10003b8c:	6001      	str	r1, [r0, #0]
10003b8e:	4770      	bx	lr
10003b90:	34000040 	.word	0x34000040

10003b94 <runtime_init_mutex>:
10003b94:	b570      	push	{r4, r5, r6, lr}
10003b96:	4c11      	ldr	r4, [pc, #68]	@ (10003bdc <runtime_init_mutex+0x48>)
10003b98:	4d11      	ldr	r5, [pc, #68]	@ (10003be0 <runtime_init_mutex+0x4c>)
10003b9a:	42ac      	cmp	r4, r5
10003b9c:	d20f      	bcs.n	10003bbe <runtime_init_mutex+0x2a>
10003b9e:	26ff      	movs	r6, #255	@ 0xff
10003ba0:	6823      	ldr	r3, [r4, #0]
10003ba2:	2b00      	cmp	r3, #0
10003ba4:	d00c      	beq.n	10003bc0 <runtime_init_mutex+0x2c>
10003ba6:	f7ff fddf 	bl	10003768 <next_striped_spin_lock_num>
10003baa:	0001      	movs	r1, r0
10003bac:	0020      	movs	r0, r4
10003bae:	f7ff ffe9 	bl	10003b84 <lock_init>
10003bb2:	80a6      	strh	r6, [r4, #4]
10003bb4:	f3bf 8f5f 	dmb	sy
10003bb8:	3408      	adds	r4, #8
10003bba:	42ac      	cmp	r4, r5
10003bbc:	d3f0      	bcc.n	10003ba0 <runtime_init_mutex+0xc>
10003bbe:	bd70      	pop	{r4, r5, r6, pc}
10003bc0:	f7ff fdd2 	bl	10003768 <next_striped_spin_lock_num>
10003bc4:	0001      	movs	r1, r0
10003bc6:	0020      	movs	r0, r4
10003bc8:	f7ff ffdc 	bl	10003b84 <lock_init>
10003bcc:	7126      	strb	r6, [r4, #4]
10003bce:	f3bf 8f5f 	dmb	sy
10003bd2:	3408      	adds	r4, #8
10003bd4:	42ac      	cmp	r4, r5
10003bd6:	d3e3      	bcc.n	10003ba0 <runtime_init_mutex+0xc>
10003bd8:	e7f1      	b.n	10003bbe <runtime_init_mutex+0x2a>
10003bda:	46c0      	nop			@ (mov r8, r8)
10003bdc:	200018b0 	.word	0x200018b0
10003be0:	200018c0 	.word	0x200018c0

10003be4 <mutex_init>:
10003be4:	b510      	push	{r4, lr}
10003be6:	0004      	movs	r4, r0
10003be8:	f7ff fdbe 	bl	10003768 <next_striped_spin_lock_num>
10003bec:	0001      	movs	r1, r0
10003bee:	0020      	movs	r0, r4
10003bf0:	f7ff ffc8 	bl	10003b84 <lock_init>
10003bf4:	23ff      	movs	r3, #255	@ 0xff
10003bf6:	7123      	strb	r3, [r4, #4]
10003bf8:	f3bf 8f5f 	dmb	sy
10003bfc:	bd10      	pop	{r4, pc}
10003bfe:	46c0      	nop			@ (mov r8, r8)

10003c00 <critical_section_init>:
10003c00:	b510      	push	{r4, lr}
10003c02:	0004      	movs	r4, r0
10003c04:	2001      	movs	r0, #1
10003c06:	f7ff fdbb 	bl	10003780 <spin_lock_claim_unused>
10003c0a:	4b03      	ldr	r3, [pc, #12]	@ (10003c18 <critical_section_init+0x18>)
10003c0c:	18c3      	adds	r3, r0, r3
10003c0e:	009b      	lsls	r3, r3, #2
10003c10:	6023      	str	r3, [r4, #0]
10003c12:	f3bf 8f5f 	dmb	sy
10003c16:	bd10      	pop	{r4, pc}
10003c18:	34000040 	.word	0x34000040

10003c1c <critical_section_init_with_lock_num>:
10003c1c:	4b03      	ldr	r3, [pc, #12]	@ (10003c2c <critical_section_init_with_lock_num+0x10>)
10003c1e:	469c      	mov	ip, r3
10003c20:	4461      	add	r1, ip
10003c22:	0089      	lsls	r1, r1, #2
10003c24:	6001      	str	r1, [r0, #0]
10003c26:	f3bf 8f5f 	dmb	sy
10003c2a:	4770      	bx	lr
10003c2c:	34000040 	.word	0x34000040

10003c30 <sleep_until_callback>:
10003c30:	4b0a      	ldr	r3, [pc, #40]	@ (10003c5c <sleep_until_callback+0x2c>)
10003c32:	6819      	ldr	r1, [r3, #0]
10003c34:	f3ef 8010 	mrs	r0, PRIMASK
10003c38:	b672      	cpsid	i
10003c3a:	680a      	ldr	r2, [r1, #0]
10003c3c:	2a00      	cmp	r2, #0
10003c3e:	d0fc      	beq.n	10003c3a <sleep_until_callback+0xa>
10003c40:	f3bf 8f5f 	dmb	sy
10003c44:	681b      	ldr	r3, [r3, #0]
10003c46:	f3bf 8f5f 	dmb	sy
10003c4a:	2200      	movs	r2, #0
10003c4c:	601a      	str	r2, [r3, #0]
10003c4e:	f380 8810 	msr	PRIMASK, r0
10003c52:	bf40      	sev
10003c54:	2000      	movs	r0, #0
10003c56:	2100      	movs	r1, #0
10003c58:	4770      	bx	lr
10003c5a:	46c0      	nop			@ (mov r8, r8)
10003c5c:	200051c0 	.word	0x200051c0

10003c60 <alarm_pool_irq_handler>:
10003c60:	b5f0      	push	{r4, r5, r6, r7, lr}
10003c62:	46de      	mov	lr, fp
10003c64:	4657      	mov	r7, sl
10003c66:	464e      	mov	r6, r9
10003c68:	4645      	mov	r5, r8
10003c6a:	b5e0      	push	{r5, r6, r7, lr}
10003c6c:	b083      	sub	sp, #12
10003c6e:	f3ef 8205 	mrs	r2, IPSR
10003c72:	2303      	movs	r3, #3
10003c74:	4013      	ands	r3, r2
10003c76:	4ab5      	ldr	r2, [pc, #724]	@ (10003f4c <alarm_pool_irq_handler+0x2ec>)
10003c78:	0099      	lsls	r1, r3, #2
10003c7a:	5852      	ldr	r2, [r2, r1]
10003c7c:	9100      	str	r1, [sp, #0]
10003c7e:	4690      	mov	r8, r2
10003c80:	2201      	movs	r2, #1
10003c82:	409a      	lsls	r2, r3
10003c84:	4bb2      	ldr	r3, [pc, #712]	@ (10003f50 <alarm_pool_irq_handler+0x2f0>)
10003c86:	4693      	mov	fp, r2
10003c88:	601a      	str	r2, [r3, #0]
10003c8a:	4bb2      	ldr	r3, [pc, #712]	@ (10003f54 <alarm_pool_irq_handler+0x2f4>)
10003c8c:	9301      	str	r3, [sp, #4]
10003c8e:	e02e      	b.n	10003cee <alarm_pool_irq_handler+0x8e>
10003c90:	4643      	mov	r3, r8
10003c92:	889b      	ldrh	r3, [r3, #4]
10003c94:	b21b      	sxth	r3, r3
10003c96:	2b00      	cmp	r3, #0
10003c98:	db00      	blt.n	10003c9c <alarm_pool_irq_handler+0x3c>
10003c9a:	e099      	b.n	10003dd0 <alarm_pool_irq_handler+0x170>
10003c9c:	4643      	mov	r3, r8
10003c9e:	799b      	ldrb	r3, [r3, #6]
10003ca0:	2b00      	cmp	r3, #0
10003ca2:	d000      	beq.n	10003ca6 <alarm_pool_irq_handler+0x46>
10003ca4:	e0dd      	b.n	10003e62 <alarm_pool_irq_handler+0x202>
10003ca6:	4643      	mov	r3, r8
10003ca8:	2408      	movs	r4, #8
10003caa:	5f1c      	ldrsh	r4, [r3, r4]
10003cac:	2c00      	cmp	r4, #0
10003cae:	da00      	bge.n	10003cb2 <alarm_pool_irq_handler+0x52>
10003cb0:	e106      	b.n	10003ec0 <alarm_pool_irq_handler+0x260>
10003cb2:	4643      	mov	r3, r8
10003cb4:	695a      	ldr	r2, [r3, #20]
10003cb6:	0063      	lsls	r3, r4, #1
10003cb8:	191b      	adds	r3, r3, r4
10003cba:	00db      	lsls	r3, r3, #3
10003cbc:	18d3      	adds	r3, r2, r3
10003cbe:	689d      	ldr	r5, [r3, #8]
10003cc0:	68dc      	ldr	r4, [r3, #12]
10003cc2:	1c6b      	adds	r3, r5, #1
10003cc4:	d100      	bne.n	10003cc8 <alarm_pool_irq_handler+0x68>
10003cc6:	e107      	b.n	10003ed8 <alarm_pool_irq_handler+0x278>
10003cc8:	4ba3      	ldr	r3, [pc, #652]	@ (10003f58 <alarm_pool_irq_handler+0x2f8>)
10003cca:	9900      	ldr	r1, [sp, #0]
10003ccc:	469c      	mov	ip, r3
10003cce:	4461      	add	r1, ip
10003cd0:	6a9a      	ldr	r2, [r3, #40]	@ 0x28
10003cd2:	690b      	ldr	r3, [r1, #16]
10003cd4:	1aa8      	subs	r0, r5, r2
10003cd6:	1a9b      	subs	r3, r3, r2
10003cd8:	4298      	cmp	r0, r3
10003cda:	d200      	bcs.n	10003cde <alarm_pool_irq_handler+0x7e>
10003cdc:	610d      	str	r5, [r1, #16]
10003cde:	489e      	ldr	r0, [pc, #632]	@ (10003f58 <alarm_pool_irq_handler+0x2f8>)
10003ce0:	f000 fb26 	bl	10004330 <timer_time_us_64>
10003ce4:	428c      	cmp	r4, r1
10003ce6:	dd00      	ble.n	10003cea <alarm_pool_irq_handler+0x8a>
10003ce8:	e0ea      	b.n	10003ec0 <alarm_pool_irq_handler+0x260>
10003cea:	d100      	bne.n	10003cee <alarm_pool_irq_handler+0x8e>
10003cec:	e126      	b.n	10003f3c <alarm_pool_irq_handler+0x2dc>
10003cee:	465b      	mov	r3, fp
10003cf0:	4899      	ldr	r0, [pc, #612]	@ (10003f58 <alarm_pool_irq_handler+0x2f8>)
10003cf2:	6343      	str	r3, [r0, #52]	@ 0x34
10003cf4:	4643      	mov	r3, r8
10003cf6:	2208      	movs	r2, #8
10003cf8:	5e9b      	ldrsh	r3, [r3, r2]
10003cfa:	4699      	mov	r9, r3
10003cfc:	2b00      	cmp	r3, #0
10003cfe:	dbc7      	blt.n	10003c90 <alarm_pool_irq_handler+0x30>
10003d00:	4642      	mov	r2, r8
10003d02:	6952      	ldr	r2, [r2, #20]
10003d04:	005b      	lsls	r3, r3, #1
10003d06:	4692      	mov	sl, r2
10003d08:	444b      	add	r3, r9
10003d0a:	00db      	lsls	r3, r3, #3
10003d0c:	449a      	add	sl, r3
10003d0e:	4653      	mov	r3, sl
10003d10:	689e      	ldr	r6, [r3, #8]
10003d12:	68df      	ldr	r7, [r3, #12]
10003d14:	f000 fb0c 	bl	10004330 <timer_time_us_64>
10003d18:	428f      	cmp	r7, r1
10003d1a:	dcb9      	bgt.n	10003c90 <alarm_pool_irq_handler+0x30>
10003d1c:	d100      	bne.n	10003d20 <alarm_pool_irq_handler+0xc0>
10003d1e:	e100      	b.n	10003f22 <alarm_pool_irq_handler+0x2c2>
10003d20:	2f00      	cmp	r7, #0
10003d22:	da00      	bge.n	10003d26 <alarm_pool_irq_handler+0xc6>
10003d24:	e0e1      	b.n	10003eea <alarm_pool_irq_handler+0x28a>
10003d26:	4652      	mov	r2, sl
10003d28:	4653      	mov	r3, sl
10003d2a:	6954      	ldr	r4, [r2, #20]
10003d2c:	691b      	ldr	r3, [r3, #16]
10003d2e:	9a01      	ldr	r2, [sp, #4]
10003d30:	4293      	cmp	r3, r2
10003d32:	d100      	bne.n	10003d36 <alarm_pool_irq_handler+0xd6>
10003d34:	e0d4      	b.n	10003ee0 <alarm_pool_irq_handler+0x280>
10003d36:	4641      	mov	r1, r8
10003d38:	4652      	mov	r2, sl
10003d3a:	2008      	movs	r0, #8
10003d3c:	5e08      	ldrsh	r0, [r1, r0]
10003d3e:	8852      	ldrh	r2, [r2, #2]
10003d40:	0400      	lsls	r0, r0, #16
10003d42:	0021      	movs	r1, r4
10003d44:	4310      	orrs	r0, r2
10003d46:	4798      	blx	r3
10003d48:	0004      	movs	r4, r0
10003d4a:	000d      	movs	r5, r1
10003d4c:	0023      	movs	r3, r4
10003d4e:	432b      	orrs	r3, r5
10003d50:	d100      	bne.n	10003d54 <alarm_pool_irq_handler+0xf4>
10003d52:	e0ca      	b.n	10003eea <alarm_pool_irq_handler+0x28a>
10003d54:	2d00      	cmp	r5, #0
10003d56:	db00      	blt.n	10003d5a <alarm_pool_irq_handler+0xfa>
10003d58:	e0e7      	b.n	10003f2a <alarm_pool_irq_handler+0x2ca>
10003d5a:	0030      	movs	r0, r6
10003d5c:	0039      	movs	r1, r7
10003d5e:	1b00      	subs	r0, r0, r4
10003d60:	41a9      	sbcs	r1, r5
10003d62:	4653      	mov	r3, sl
10003d64:	6098      	str	r0, [r3, #8]
10003d66:	60d9      	str	r1, [r3, #12]
10003d68:	2200      	movs	r2, #0
10003d6a:	5e9a      	ldrsh	r2, [r3, r2]
10003d6c:	2a00      	cmp	r2, #0
10003d6e:	db8f      	blt.n	10003c90 <alarm_pool_irq_handler+0x30>
10003d70:	4643      	mov	r3, r8
10003d72:	695d      	ldr	r5, [r3, #20]
10003d74:	0053      	lsls	r3, r2, #1
10003d76:	189c      	adds	r4, r3, r2
10003d78:	00e4      	lsls	r4, r4, #3
10003d7a:	192c      	adds	r4, r5, r4
10003d7c:	68a7      	ldr	r7, [r4, #8]
10003d7e:	68e4      	ldr	r4, [r4, #12]
10003d80:	428c      	cmp	r4, r1
10003d82:	dd00      	ble.n	10003d86 <alarm_pool_irq_handler+0x126>
10003d84:	e784      	b.n	10003c90 <alarm_pool_irq_handler+0x30>
10003d86:	d102      	bne.n	10003d8e <alarm_pool_irq_handler+0x12e>
10003d88:	4287      	cmp	r7, r0
10003d8a:	d900      	bls.n	10003d8e <alarm_pool_irq_handler+0x12e>
10003d8c:	e780      	b.n	10003c90 <alarm_pool_irq_handler+0x30>
10003d8e:	4646      	mov	r6, r8
10003d90:	8132      	strh	r2, [r6, #8]
10003d92:	3608      	adds	r6, #8
10003d94:	e00d      	b.n	10003db2 <alarm_pool_irq_handler+0x152>
10003d96:	428c      	cmp	r4, r1
10003d98:	d100      	bne.n	10003d9c <alarm_pool_irq_handler+0x13c>
10003d9a:	e0d3      	b.n	10003f44 <alarm_pool_irq_handler+0x2e4>
10003d9c:	001e      	movs	r6, r3
10003d9e:	2300      	movs	r3, #0
10003da0:	5ef2      	ldrsh	r2, [r6, r3]
10003da2:	2a00      	cmp	r2, #0
10003da4:	db0a      	blt.n	10003dbc <alarm_pool_irq_handler+0x15c>
10003da6:	0053      	lsls	r3, r2, #1
10003da8:	189c      	adds	r4, r3, r2
10003daa:	00e4      	lsls	r4, r4, #3
10003dac:	192c      	adds	r4, r5, r4
10003dae:	68a7      	ldr	r7, [r4, #8]
10003db0:	68e4      	ldr	r4, [r4, #12]
10003db2:	189b      	adds	r3, r3, r2
10003db4:	00db      	lsls	r3, r3, #3
10003db6:	18eb      	adds	r3, r5, r3
10003db8:	428c      	cmp	r4, r1
10003dba:	ddec      	ble.n	10003d96 <alarm_pool_irq_handler+0x136>
10003dbc:	4653      	mov	r3, sl
10003dbe:	801a      	strh	r2, [r3, #0]
10003dc0:	464b      	mov	r3, r9
10003dc2:	8033      	strh	r3, [r6, #0]
10003dc4:	4643      	mov	r3, r8
10003dc6:	889b      	ldrh	r3, [r3, #4]
10003dc8:	b21b      	sxth	r3, r3
10003dca:	2b00      	cmp	r3, #0
10003dcc:	da00      	bge.n	10003dd0 <alarm_pool_irq_handler+0x170>
10003dce:	e765      	b.n	10003c9c <alarm_pool_irq_handler+0x3c>
10003dd0:	4643      	mov	r3, r8
10003dd2:	691a      	ldr	r2, [r3, #16]
10003dd4:	f3ef 8110 	mrs	r1, PRIMASK
10003dd8:	b672      	cpsid	i
10003dda:	6813      	ldr	r3, [r2, #0]
10003ddc:	2b00      	cmp	r3, #0
10003dde:	d0fc      	beq.n	10003dda <alarm_pool_irq_handler+0x17a>
10003de0:	f3bf 8f5f 	dmb	sy
10003de4:	4643      	mov	r3, r8
10003de6:	889e      	ldrh	r6, [r3, #4]
10003de8:	2301      	movs	r3, #1
10003dea:	4642      	mov	r2, r8
10003dec:	425b      	negs	r3, r3
10003dee:	8093      	strh	r3, [r2, #4]
10003df0:	b236      	sxth	r6, r6
10003df2:	6913      	ldr	r3, [r2, #16]
10003df4:	f3bf 8f5f 	dmb	sy
10003df8:	2200      	movs	r2, #0
10003dfa:	601a      	str	r2, [r3, #0]
10003dfc:	f381 8810 	msr	PRIMASK, r1
10003e00:	2e00      	cmp	r6, #0
10003e02:	da00      	bge.n	10003e06 <alarm_pool_irq_handler+0x1a6>
10003e04:	e74a      	b.n	10003c9c <alarm_pool_irq_handler+0x3c>
10003e06:	4643      	mov	r3, r8
10003e08:	695d      	ldr	r5, [r3, #20]
10003e0a:	3308      	adds	r3, #8
10003e0c:	4642      	mov	r2, r8
10003e0e:	469c      	mov	ip, r3
10003e10:	0077      	lsls	r7, r6, #1
10003e12:	19bf      	adds	r7, r7, r6
10003e14:	00ff      	lsls	r7, r7, #3
10003e16:	19ef      	adds	r7, r5, r7
10003e18:	68bb      	ldr	r3, [r7, #8]
10003e1a:	4660      	mov	r0, ip
10003e1c:	4698      	mov	r8, r3
10003e1e:	2308      	movs	r3, #8
10003e20:	5ed1      	ldrsh	r1, [r2, r3]
10003e22:	4692      	mov	sl, r2
10003e24:	68fc      	ldr	r4, [r7, #12]
10003e26:	2900      	cmp	r1, #0
10003e28:	da07      	bge.n	10003e3a <alarm_pool_irq_handler+0x1da>
10003e2a:	e00e      	b.n	10003e4a <alarm_pool_irq_handler+0x1ea>
10003e2c:	42a2      	cmp	r2, r4
10003e2e:	d04f      	beq.n	10003ed0 <alarm_pool_irq_handler+0x270>
10003e30:	0018      	movs	r0, r3
10003e32:	2300      	movs	r3, #0
10003e34:	5ec1      	ldrsh	r1, [r0, r3]
10003e36:	2900      	cmp	r1, #0
10003e38:	db06      	blt.n	10003e48 <alarm_pool_irq_handler+0x1e8>
10003e3a:	004b      	lsls	r3, r1, #1
10003e3c:	185b      	adds	r3, r3, r1
10003e3e:	00db      	lsls	r3, r3, #3
10003e40:	18eb      	adds	r3, r5, r3
10003e42:	68da      	ldr	r2, [r3, #12]
10003e44:	42a2      	cmp	r2, r4
10003e46:	ddf1      	ble.n	10003e2c <alarm_pool_irq_handler+0x1cc>
10003e48:	4652      	mov	r2, sl
10003e4a:	8006      	strh	r6, [r0, #0]
10003e4c:	2300      	movs	r3, #0
10003e4e:	5efe      	ldrsh	r6, [r7, r3]
10003e50:	8039      	strh	r1, [r7, #0]
10003e52:	2e00      	cmp	r6, #0
10003e54:	dadc      	bge.n	10003e10 <alarm_pool_irq_handler+0x1b0>
10003e56:	4690      	mov	r8, r2
10003e58:	4643      	mov	r3, r8
10003e5a:	799b      	ldrb	r3, [r3, #6]
10003e5c:	2b00      	cmp	r3, #0
10003e5e:	d100      	bne.n	10003e62 <alarm_pool_irq_handler+0x202>
10003e60:	e721      	b.n	10003ca6 <alarm_pool_irq_handler+0x46>
10003e62:	2300      	movs	r3, #0
10003e64:	4642      	mov	r2, r8
10003e66:	7193      	strb	r3, [r2, #6]
10003e68:	4643      	mov	r3, r8
10003e6a:	4646      	mov	r6, r8
10003e6c:	2108      	movs	r1, #8
10003e6e:	5e59      	ldrsh	r1, [r3, r1]
10003e70:	3608      	adds	r6, #8
10003e72:	1c4b      	adds	r3, r1, #1
10003e74:	d024      	beq.n	10003ec0 <alarm_pool_irq_handler+0x260>
10003e76:	4647      	mov	r7, r8
10003e78:	4689      	mov	r9, r1
10003e7a:	6955      	ldr	r5, [r2, #20]
10003e7c:	e002      	b.n	10003e84 <alarm_pool_irq_handler+0x224>
10003e7e:	0006      	movs	r6, r0
10003e80:	1c4b      	adds	r3, r1, #1
10003e82:	d018      	beq.n	10003eb6 <alarm_pool_irq_handler+0x256>
10003e84:	004b      	lsls	r3, r1, #1
10003e86:	185b      	adds	r3, r3, r1
10003e88:	00db      	lsls	r3, r3, #3
10003e8a:	18e8      	adds	r0, r5, r3
10003e8c:	000a      	movs	r2, r1
10003e8e:	468c      	mov	ip, r1
10003e90:	5ee9      	ldrsh	r1, [r5, r3]
10003e92:	8843      	ldrh	r3, [r0, #2]
10003e94:	b21b      	sxth	r3, r3
10003e96:	2b00      	cmp	r3, #0
10003e98:	daf1      	bge.n	10003e7e <alarm_pool_irq_handler+0x21e>
10003e9a:	2301      	movs	r3, #1
10003e9c:	425b      	negs	r3, r3
10003e9e:	17dc      	asrs	r4, r3, #31
10003ea0:	6083      	str	r3, [r0, #8]
10003ea2:	60c4      	str	r4, [r0, #12]
10003ea4:	454a      	cmp	r2, r9
10003ea6:	d003      	beq.n	10003eb0 <alarm_pool_irq_handler+0x250>
10003ea8:	8031      	strh	r1, [r6, #0]
10003eaa:	893b      	ldrh	r3, [r7, #8]
10003eac:	8003      	strh	r3, [r0, #0]
10003eae:	813a      	strh	r2, [r7, #8]
10003eb0:	46e1      	mov	r9, ip
10003eb2:	1c4b      	adds	r3, r1, #1
10003eb4:	d1e6      	bne.n	10003e84 <alarm_pool_irq_handler+0x224>
10003eb6:	464c      	mov	r4, r9
10003eb8:	46b8      	mov	r8, r7
10003eba:	2c00      	cmp	r4, #0
10003ebc:	db00      	blt.n	10003ec0 <alarm_pool_irq_handler+0x260>
10003ebe:	e6f8      	b.n	10003cb2 <alarm_pool_irq_handler+0x52>
10003ec0:	bf40      	sev
10003ec2:	b003      	add	sp, #12
10003ec4:	bcf0      	pop	{r4, r5, r6, r7}
10003ec6:	46bb      	mov	fp, r7
10003ec8:	46b2      	mov	sl, r6
10003eca:	46a9      	mov	r9, r5
10003ecc:	46a0      	mov	r8, r4
10003ece:	bdf0      	pop	{r4, r5, r6, r7, pc}
10003ed0:	689a      	ldr	r2, [r3, #8]
10003ed2:	4542      	cmp	r2, r8
10003ed4:	d9ac      	bls.n	10003e30 <alarm_pool_irq_handler+0x1d0>
10003ed6:	e7b7      	b.n	10003e48 <alarm_pool_irq_handler+0x1e8>
10003ed8:	1c63      	adds	r3, r4, #1
10003eda:	d000      	beq.n	10003ede <alarm_pool_irq_handler+0x27e>
10003edc:	e6f4      	b.n	10003cc8 <alarm_pool_irq_handler+0x68>
10003ede:	e6fe      	b.n	10003cde <alarm_pool_irq_handler+0x7e>
10003ee0:	0020      	movs	r0, r4
10003ee2:	6923      	ldr	r3, [r4, #16]
10003ee4:	4798      	blx	r3
10003ee6:	2800      	cmp	r0, #0
10003ee8:	d125      	bne.n	10003f36 <alarm_pool_irq_handler+0x2d6>
10003eea:	4653      	mov	r3, sl
10003eec:	4642      	mov	r2, r8
10003eee:	881b      	ldrh	r3, [r3, #0]
10003ef0:	8113      	strh	r3, [r2, #8]
10003ef2:	6912      	ldr	r2, [r2, #16]
10003ef4:	f3ef 8310 	mrs	r3, PRIMASK
10003ef8:	b672      	cpsid	i
10003efa:	6811      	ldr	r1, [r2, #0]
10003efc:	2900      	cmp	r1, #0
10003efe:	d0fc      	beq.n	10003efa <alarm_pool_irq_handler+0x29a>
10003f00:	f3bf 8f5f 	dmb	sy
10003f04:	4642      	mov	r2, r8
10003f06:	4651      	mov	r1, sl
10003f08:	8852      	ldrh	r2, [r2, #2]
10003f0a:	800a      	strh	r2, [r1, #0]
10003f0c:	4642      	mov	r2, r8
10003f0e:	4649      	mov	r1, r9
10003f10:	8051      	strh	r1, [r2, #2]
10003f12:	6912      	ldr	r2, [r2, #16]
10003f14:	f3bf 8f5f 	dmb	sy
10003f18:	2100      	movs	r1, #0
10003f1a:	6011      	str	r1, [r2, #0]
10003f1c:	f383 8810 	msr	PRIMASK, r3
10003f20:	e6b6      	b.n	10003c90 <alarm_pool_irq_handler+0x30>
10003f22:	4286      	cmp	r6, r0
10003f24:	d800      	bhi.n	10003f28 <alarm_pool_irq_handler+0x2c8>
10003f26:	e6fb      	b.n	10003d20 <alarm_pool_irq_handler+0xc0>
10003f28:	e6b2      	b.n	10003c90 <alarm_pool_irq_handler+0x30>
10003f2a:	480b      	ldr	r0, [pc, #44]	@ (10003f58 <alarm_pool_irq_handler+0x2f8>)
10003f2c:	f000 fa00 	bl	10004330 <timer_time_us_64>
10003f30:	1900      	adds	r0, r0, r4
10003f32:	4169      	adcs	r1, r5
10003f34:	e715      	b.n	10003d62 <alarm_pool_irq_handler+0x102>
10003f36:	6865      	ldr	r5, [r4, #4]
10003f38:	6824      	ldr	r4, [r4, #0]
10003f3a:	e707      	b.n	10003d4c <alarm_pool_irq_handler+0xec>
10003f3c:	4285      	cmp	r5, r0
10003f3e:	d800      	bhi.n	10003f42 <alarm_pool_irq_handler+0x2e2>
10003f40:	e6d5      	b.n	10003cee <alarm_pool_irq_handler+0x8e>
10003f42:	e7bd      	b.n	10003ec0 <alarm_pool_irq_handler+0x260>
10003f44:	4287      	cmp	r7, r0
10003f46:	d800      	bhi.n	10003f4a <alarm_pool_irq_handler+0x2ea>
10003f48:	e728      	b.n	10003d9c <alarm_pool_irq_handler+0x13c>
10003f4a:	e737      	b.n	10003dbc <alarm_pool_irq_handler+0x15c>
10003f4c:	200051a4 	.word	0x200051a4
10003f50:	4005703c 	.word	0x4005703c
10003f54:	10003c61 	.word	0x10003c61
10003f58:	40054000 	.word	0x40054000

10003f5c <runtime_init_default_alarm_pool>:
10003f5c:	b570      	push	{r4, r5, r6, lr}
10003f5e:	4c2e      	ldr	r4, [pc, #184]	@ (10004018 <runtime_init_default_alarm_pool+0xbc>)
10003f60:	6925      	ldr	r5, [r4, #16]
10003f62:	2d00      	cmp	r5, #0
10003f64:	d004      	beq.n	10003f70 <runtime_init_default_alarm_pool+0x14>
10003f66:	210a      	movs	r1, #10
10003f68:	482c      	ldr	r0, [pc, #176]	@ (1000401c <runtime_init_default_alarm_pool+0xc0>)
10003f6a:	f7ff fe0b 	bl	10003b84 <lock_init>
10003f6e:	bd70      	pop	{r4, r5, r6, pc}
10003f70:	4e2b      	ldr	r6, [pc, #172]	@ (10004020 <runtime_init_default_alarm_pool+0xc4>)
10003f72:	2103      	movs	r1, #3
10003f74:	0030      	movs	r0, r6
10003f76:	f000 f9d1 	bl	1000431c <timer_hardware_alarm_claim>
10003f7a:	60e6      	str	r6, [r4, #12]
10003f7c:	f7ff fbf4 	bl	10003768 <next_striped_spin_lock_num>
10003f80:	4b28      	ldr	r3, [pc, #160]	@ (10004024 <runtime_init_default_alarm_pool+0xc8>)
10003f82:	2203      	movs	r2, #3
10003f84:	469c      	mov	ip, r3
10003f86:	23d0      	movs	r3, #208	@ 0xd0
10003f88:	7022      	strb	r2, [r4, #0]
10003f8a:	061b      	lsls	r3, r3, #24
10003f8c:	681b      	ldr	r3, [r3, #0]
10003f8e:	2101      	movs	r1, #1
10003f90:	7063      	strb	r3, [r4, #1]
10003f92:	4b25      	ldr	r3, [pc, #148]	@ (10004028 <runtime_init_default_alarm_pool+0xcc>)
10003f94:	4460      	add	r0, ip
10003f96:	60a3      	str	r3, [r4, #8]
10003f98:	230f      	movs	r3, #15
10003f9a:	0080      	lsls	r0, r0, #2
10003f9c:	6120      	str	r0, [r4, #16]
10003f9e:	2002      	movs	r0, #2
10003fa0:	8063      	strh	r3, [r4, #2]
10003fa2:	6963      	ldr	r3, [r4, #20]
10003fa4:	4249      	negs	r1, r1
10003fa6:	80a1      	strh	r1, [r4, #4]
10003fa8:	8019      	strh	r1, [r3, #0]
10003faa:	3102      	adds	r1, #2
10003fac:	8619      	strh	r1, [r3, #48]	@ 0x30
10003fae:	3147      	adds	r1, #71	@ 0x47
10003fb0:	831d      	strh	r5, [r3, #24]
10003fb2:	5258      	strh	r0, [r3, r1]
10003fb4:	3118      	adds	r1, #24
10003fb6:	525a      	strh	r2, [r3, r1]
10003fb8:	3275      	adds	r2, #117	@ 0x75
10003fba:	395c      	subs	r1, #92	@ 0x5c
10003fbc:	5299      	strh	r1, [r3, r2]
10003fbe:	3218      	adds	r2, #24
10003fc0:	3101      	adds	r1, #1
10003fc2:	5299      	strh	r1, [r3, r2]
10003fc4:	3218      	adds	r2, #24
10003fc6:	3101      	adds	r1, #1
10003fc8:	5299      	strh	r1, [r3, r2]
10003fca:	3218      	adds	r2, #24
10003fcc:	3101      	adds	r1, #1
10003fce:	5299      	strh	r1, [r3, r2]
10003fd0:	3508      	adds	r5, #8
10003fd2:	3218      	adds	r2, #24
10003fd4:	529d      	strh	r5, [r3, r2]
10003fd6:	3102      	adds	r1, #2
10003fd8:	3218      	adds	r2, #24
10003fda:	5299      	strh	r1, [r3, r2]
10003fdc:	3218      	adds	r2, #24
10003fde:	3101      	adds	r1, #1
10003fe0:	5299      	strh	r1, [r3, r2]
10003fe2:	3218      	adds	r2, #24
10003fe4:	3101      	adds	r1, #1
10003fe6:	5299      	strh	r1, [r3, r2]
10003fe8:	3218      	adds	r2, #24
10003fea:	3101      	adds	r1, #1
10003fec:	5299      	strh	r1, [r3, r2]
10003fee:	3218      	adds	r2, #24
10003ff0:	3101      	adds	r1, #1
10003ff2:	5299      	strh	r1, [r3, r2]
10003ff4:	3218      	adds	r2, #24
10003ff6:	3101      	adds	r1, #1
10003ff8:	5299      	strh	r1, [r3, r2]
10003ffa:	4b0c      	ldr	r3, [pc, #48]	@ (1000402c <runtime_init_default_alarm_pool+0xd0>)
10003ffc:	490c      	ldr	r1, [pc, #48]	@ (10004030 <runtime_init_default_alarm_pool+0xd4>)
10003ffe:	60dc      	str	r4, [r3, #12]
10004000:	3001      	adds	r0, #1
10004002:	6235      	str	r5, [r6, #32]
10004004:	f7ff fc2a 	bl	1000385c <irq_set_exclusive_handler>
10004008:	2101      	movs	r1, #1
1000400a:	2003      	movs	r0, #3
1000400c:	f7ff fbea 	bl	100037e4 <irq_set_enabled>
10004010:	4b08      	ldr	r3, [pc, #32]	@ (10004034 <runtime_init_default_alarm_pool+0xd8>)
10004012:	601d      	str	r5, [r3, #0]
10004014:	e7a7      	b.n	10003f66 <runtime_init_default_alarm_pool+0xa>
10004016:	46c0      	nop			@ (mov r8, r8)
10004018:	2000115c 	.word	0x2000115c
1000401c:	200051c0 	.word	0x200051c0
10004020:	40054000 	.word	0x40054000
10004024:	34000040 	.word	0x34000040
10004028:	0010ffff 	.word	0x0010ffff
1000402c:	200051a4 	.word	0x200051a4
10004030:	10003c61 	.word	0x10003c61
10004034:	40056038 	.word	0x40056038

10004038 <alarm_pool_get_default>:
10004038:	4800      	ldr	r0, [pc, #0]	@ (1000403c <alarm_pool_get_default+0x4>)
1000403a:	4770      	bx	lr
1000403c:	2000115c 	.word	0x2000115c

10004040 <alarm_pool_add_alarm_at>:
10004040:	b5f8      	push	{r3, r4, r5, r6, r7, lr}
10004042:	001f      	movs	r7, r3
10004044:	ab08      	add	r3, sp, #32
10004046:	781b      	ldrb	r3, [r3, #0]
10004048:	0004      	movs	r4, r0
1000404a:	0016      	movs	r6, r2
1000404c:	2b00      	cmp	r3, #0
1000404e:	d108      	bne.n	10004062 <alarm_pool_add_alarm_at+0x22>
10004050:	f000 f976 	bl	10004340 <time_us_64>
10004054:	0032      	movs	r2, r6
10004056:	003b      	movs	r3, r7
10004058:	1a12      	subs	r2, r2, r0
1000405a:	418b      	sbcs	r3, r1
1000405c:	2b00      	cmp	r3, #0
1000405e:	da00      	bge.n	10004062 <alarm_pool_add_alarm_at+0x22>
10004060:	e053      	b.n	1000410a <alarm_pool_add_alarm_at+0xca>
10004062:	6922      	ldr	r2, [r4, #16]
10004064:	f3ef 8010 	mrs	r0, PRIMASK
10004068:	b672      	cpsid	i
1000406a:	6813      	ldr	r3, [r2, #0]
1000406c:	2b00      	cmp	r3, #0
1000406e:	d0fc      	beq.n	1000406a <alarm_pool_add_alarm_at+0x2a>
10004070:	f3bf 8f5f 	dmb	sy
10004074:	2302      	movs	r3, #2
10004076:	5ee1      	ldrsh	r1, [r4, r3]
10004078:	6963      	ldr	r3, [r4, #20]
1000407a:	004a      	lsls	r2, r1, #1
1000407c:	1852      	adds	r2, r2, r1
1000407e:	00d2      	lsls	r2, r2, #3
10004080:	189b      	adds	r3, r3, r2
10004082:	2900      	cmp	r1, #0
10004084:	db37      	blt.n	100040f6 <alarm_pool_add_alarm_at+0xb6>
10004086:	881a      	ldrh	r2, [r3, #0]
10004088:	8062      	strh	r2, [r4, #2]
1000408a:	6922      	ldr	r2, [r4, #16]
1000408c:	f3bf 8f5f 	dmb	sy
10004090:	2500      	movs	r5, #0
10004092:	6015      	str	r5, [r2, #0]
10004094:	f380 8810 	msr	PRIMASK, r0
10004098:	9a06      	ldr	r2, [sp, #24]
1000409a:	609e      	str	r6, [r3, #8]
1000409c:	60df      	str	r7, [r3, #12]
1000409e:	611a      	str	r2, [r3, #16]
100040a0:	9a07      	ldr	r2, [sp, #28]
100040a2:	615a      	str	r2, [r3, #20]
100040a4:	885a      	ldrh	r2, [r3, #2]
100040a6:	3201      	adds	r2, #1
100040a8:	0452      	lsls	r2, r2, #17
100040aa:	0c52      	lsrs	r2, r2, #17
100040ac:	1c10      	adds	r0, r2, #0
100040ae:	2a00      	cmp	r2, #0
100040b0:	d01f      	beq.n	100040f2 <alarm_pool_add_alarm_at+0xb2>
100040b2:	b282      	uxth	r2, r0
100040b4:	8058      	strh	r0, [r3, #2]
100040b6:	0408      	lsls	r0, r1, #16
100040b8:	4310      	orrs	r0, r2
100040ba:	6926      	ldr	r6, [r4, #16]
100040bc:	f3ef 8710 	mrs	r7, PRIMASK
100040c0:	b672      	cpsid	i
100040c2:	6832      	ldr	r2, [r6, #0]
100040c4:	2a00      	cmp	r2, #0
100040c6:	d0fc      	beq.n	100040c2 <alarm_pool_add_alarm_at+0x82>
100040c8:	f3bf 8f5f 	dmb	sy
100040cc:	88a2      	ldrh	r2, [r4, #4]
100040ce:	801a      	strh	r2, [r3, #0]
100040d0:	80a1      	strh	r1, [r4, #4]
100040d2:	6923      	ldr	r3, [r4, #16]
100040d4:	f3bf 8f5f 	dmb	sy
100040d8:	2200      	movs	r2, #0
100040da:	601a      	str	r2, [r3, #0]
100040dc:	f387 8810 	msr	PRIMASK, r7
100040e0:	490b      	ldr	r1, [pc, #44]	@ (10004110 <alarm_pool_add_alarm_at+0xd0>)
100040e2:	7823      	ldrb	r3, [r4, #0]
100040e4:	468c      	mov	ip, r1
100040e6:	3201      	adds	r2, #1
100040e8:	409a      	lsls	r2, r3
100040ea:	68e3      	ldr	r3, [r4, #12]
100040ec:	4463      	add	r3, ip
100040ee:	601a      	str	r2, [r3, #0]
100040f0:	bdf8      	pop	{r3, r4, r5, r6, r7, pc}
100040f2:	2001      	movs	r0, #1
100040f4:	e7dd      	b.n	100040b2 <alarm_pool_add_alarm_at+0x72>
100040f6:	6923      	ldr	r3, [r4, #16]
100040f8:	f3bf 8f5f 	dmb	sy
100040fc:	2200      	movs	r2, #0
100040fe:	601a      	str	r2, [r3, #0]
10004100:	f380 8810 	msr	PRIMASK, r0
10004104:	2001      	movs	r0, #1
10004106:	4240      	negs	r0, r0
10004108:	e7f2      	b.n	100040f0 <alarm_pool_add_alarm_at+0xb0>
1000410a:	2000      	movs	r0, #0
1000410c:	e7f0      	b.n	100040f0 <alarm_pool_add_alarm_at+0xb0>
1000410e:	46c0      	nop			@ (mov r8, r8)
10004110:	0000203c 	.word	0x0000203c

10004114 <alarm_pool_add_alarm_at_force_in_context>:
10004114:	b570      	push	{r4, r5, r6, lr}
10004116:	0001      	movs	r1, r0
10004118:	6904      	ldr	r4, [r0, #16]
1000411a:	f3ef 8c10 	mrs	ip, PRIMASK
1000411e:	b672      	cpsid	i
10004120:	6820      	ldr	r0, [r4, #0]
10004122:	2800      	cmp	r0, #0
10004124:	d0fc      	beq.n	10004120 <alarm_pool_add_alarm_at_force_in_context+0xc>
10004126:	f3bf 8f5f 	dmb	sy
1000412a:	2002      	movs	r0, #2
1000412c:	5e0d      	ldrsh	r5, [r1, r0]
1000412e:	694c      	ldr	r4, [r1, #20]
10004130:	0068      	lsls	r0, r5, #1
10004132:	1940      	adds	r0, r0, r5
10004134:	00c0      	lsls	r0, r0, #3
10004136:	1824      	adds	r4, r4, r0
10004138:	2d00      	cmp	r5, #0
1000413a:	db37      	blt.n	100041ac <alarm_pool_add_alarm_at_force_in_context+0x98>
1000413c:	8820      	ldrh	r0, [r4, #0]
1000413e:	8048      	strh	r0, [r1, #2]
10004140:	6908      	ldr	r0, [r1, #16]
10004142:	f3bf 8f5f 	dmb	sy
10004146:	2600      	movs	r6, #0
10004148:	6006      	str	r6, [r0, #0]
1000414a:	f38c 8810 	msr	PRIMASK, ip
1000414e:	60e3      	str	r3, [r4, #12]
10004150:	8863      	ldrh	r3, [r4, #2]
10004152:	9804      	ldr	r0, [sp, #16]
10004154:	3301      	adds	r3, #1
10004156:	6120      	str	r0, [r4, #16]
10004158:	045b      	lsls	r3, r3, #17
1000415a:	9805      	ldr	r0, [sp, #20]
1000415c:	0c5b      	lsrs	r3, r3, #17
1000415e:	60a2      	str	r2, [r4, #8]
10004160:	6160      	str	r0, [r4, #20]
10004162:	1c1a      	adds	r2, r3, #0
10004164:	2b00      	cmp	r3, #0
10004166:	d01f      	beq.n	100041a8 <alarm_pool_add_alarm_at_force_in_context+0x94>
10004168:	b293      	uxth	r3, r2
1000416a:	0428      	lsls	r0, r5, #16
1000416c:	8062      	strh	r2, [r4, #2]
1000416e:	4318      	orrs	r0, r3
10004170:	690a      	ldr	r2, [r1, #16]
10004172:	f3ef 8c10 	mrs	ip, PRIMASK
10004176:	b672      	cpsid	i
10004178:	6813      	ldr	r3, [r2, #0]
1000417a:	2b00      	cmp	r3, #0
1000417c:	d0fc      	beq.n	10004178 <alarm_pool_add_alarm_at_force_in_context+0x64>
1000417e:	f3bf 8f5f 	dmb	sy
10004182:	888b      	ldrh	r3, [r1, #4]
10004184:	8023      	strh	r3, [r4, #0]
10004186:	808d      	strh	r5, [r1, #4]
10004188:	690b      	ldr	r3, [r1, #16]
1000418a:	f3bf 8f5f 	dmb	sy
1000418e:	2200      	movs	r2, #0
10004190:	601a      	str	r2, [r3, #0]
10004192:	f38c 8810 	msr	PRIMASK, ip
10004196:	780b      	ldrb	r3, [r1, #0]
10004198:	3201      	adds	r2, #1
1000419a:	409a      	lsls	r2, r3
1000419c:	68cb      	ldr	r3, [r1, #12]
1000419e:	4908      	ldr	r1, [pc, #32]	@ (100041c0 <alarm_pool_add_alarm_at_force_in_context+0xac>)
100041a0:	468c      	mov	ip, r1
100041a2:	4463      	add	r3, ip
100041a4:	601a      	str	r2, [r3, #0]
100041a6:	bd70      	pop	{r4, r5, r6, pc}
100041a8:	2201      	movs	r2, #1
100041aa:	e7dd      	b.n	10004168 <alarm_pool_add_alarm_at_force_in_context+0x54>
100041ac:	690b      	ldr	r3, [r1, #16]
100041ae:	f3bf 8f5f 	dmb	sy
100041b2:	2200      	movs	r2, #0
100041b4:	601a      	str	r2, [r3, #0]
100041b6:	f38c 8810 	msr	PRIMASK, ip
100041ba:	2001      	movs	r0, #1
100041bc:	4240      	negs	r0, r0
100041be:	e7f2      	b.n	100041a6 <alarm_pool_add_alarm_at_force_in_context+0x92>
100041c0:	0000203c 	.word	0x0000203c

100041c4 <alarm_pool_cancel_alarm>:
100041c4:	b510      	push	{r4, lr}
100041c6:	8943      	ldrh	r3, [r0, #10]
100041c8:	140a      	asrs	r2, r1, #16
100041ca:	4293      	cmp	r3, r2
100041cc:	dd1a      	ble.n	10004204 <alarm_pool_cancel_alarm+0x40>
100041ce:	0053      	lsls	r3, r2, #1
100041d0:	189b      	adds	r3, r3, r2
100041d2:	6942      	ldr	r2, [r0, #20]
100041d4:	00db      	lsls	r3, r3, #3
100041d6:	18d3      	adds	r3, r2, r3
100041d8:	6904      	ldr	r4, [r0, #16]
100041da:	f3ef 8c10 	mrs	ip, PRIMASK
100041de:	b672      	cpsid	i
100041e0:	6822      	ldr	r2, [r4, #0]
100041e2:	2a00      	cmp	r2, #0
100041e4:	d0fc      	beq.n	100041e0 <alarm_pool_cancel_alarm+0x1c>
100041e6:	f3bf 8f5f 	dmb	sy
100041ea:	885a      	ldrh	r2, [r3, #2]
100041ec:	0409      	lsls	r1, r1, #16
100041ee:	b294      	uxth	r4, r2
100041f0:	0c09      	lsrs	r1, r1, #16
100041f2:	428a      	cmp	r2, r1
100041f4:	d008      	beq.n	10004208 <alarm_pool_cancel_alarm+0x44>
100041f6:	6903      	ldr	r3, [r0, #16]
100041f8:	f3bf 8f5f 	dmb	sy
100041fc:	2200      	movs	r2, #0
100041fe:	601a      	str	r2, [r3, #0]
10004200:	f38c 8810 	msr	PRIMASK, ip
10004204:	2000      	movs	r0, #0
10004206:	bd10      	pop	{r4, pc}
10004208:	2280      	movs	r2, #128	@ 0x80
1000420a:	0212      	lsls	r2, r2, #8
1000420c:	4314      	orrs	r4, r2
1000420e:	805c      	strh	r4, [r3, #2]
10004210:	2301      	movs	r3, #1
10004212:	6902      	ldr	r2, [r0, #16]
10004214:	7183      	strb	r3, [r0, #6]
10004216:	f3bf 8f5f 	dmb	sy
1000421a:	2100      	movs	r1, #0
1000421c:	6011      	str	r1, [r2, #0]
1000421e:	f38c 8810 	msr	PRIMASK, ip
10004222:	4904      	ldr	r1, [pc, #16]	@ (10004234 <alarm_pool_cancel_alarm+0x70>)
10004224:	7802      	ldrb	r2, [r0, #0]
10004226:	468c      	mov	ip, r1
10004228:	4093      	lsls	r3, r2
1000422a:	68c2      	ldr	r2, [r0, #12]
1000422c:	2001      	movs	r0, #1
1000422e:	4462      	add	r2, ip
10004230:	6013      	str	r3, [r2, #0]
10004232:	e7e8      	b.n	10004206 <alarm_pool_cancel_alarm+0x42>
10004234:	0000203c 	.word	0x0000203c

10004238 <alarm_pool_core_num>:
10004238:	7840      	ldrb	r0, [r0, #1]
1000423a:	4770      	bx	lr

1000423c <best_effort_wfe_or_timeout>:
1000423c:	b5f0      	push	{r4, r5, r6, r7, lr}
1000423e:	46ce      	mov	lr, r9
10004240:	4647      	mov	r7, r8
10004242:	b580      	push	{r7, lr}
10004244:	0004      	movs	r4, r0
10004246:	000d      	movs	r5, r1
10004248:	b083      	sub	sp, #12
1000424a:	f3ef 8705 	mrs	r7, IPSR
1000424e:	4688      	mov	r8, r1
10004250:	2f00      	cmp	r7, #0
10004252:	d13e      	bne.n	100042d2 <best_effort_wfe_or_timeout+0x96>
10004254:	4e2e      	ldr	r6, [pc, #184]	@ (10004310 <best_effort_wfe_or_timeout+0xd4>)
10004256:	46a1      	mov	r9, r4
10004258:	7833      	ldrb	r3, [r6, #0]
1000425a:	68f0      	ldr	r0, [r6, #12]
1000425c:	3304      	adds	r3, #4
1000425e:	009b      	lsls	r3, r3, #2
10004260:	6a81      	ldr	r1, [r0, #40]	@ 0x28
10004262:	581b      	ldr	r3, [r3, r0]
10004264:	1a60      	subs	r0, r4, r1
10004266:	1a5b      	subs	r3, r3, r1
10004268:	4298      	cmp	r0, r3
1000426a:	d30e      	bcc.n	1000428a <best_effort_wfe_or_timeout+0x4e>
1000426c:	bf20      	wfe
1000426e:	4929      	ldr	r1, [pc, #164]	@ (10004314 <best_effort_wfe_or_timeout+0xd8>)
10004270:	2000      	movs	r0, #0
10004272:	6a4b      	ldr	r3, [r1, #36]	@ 0x24
10004274:	42ab      	cmp	r3, r5
10004276:	d303      	bcc.n	10004280 <best_effort_wfe_or_timeout+0x44>
10004278:	6a8a      	ldr	r2, [r1, #40]	@ 0x28
1000427a:	3001      	adds	r0, #1
1000427c:	4294      	cmp	r4, r2
1000427e:	d831      	bhi.n	100042e4 <best_effort_wfe_or_timeout+0xa8>
10004280:	b003      	add	sp, #12
10004282:	bcc0      	pop	{r6, r7}
10004284:	46b9      	mov	r9, r7
10004286:	46b0      	mov	r8, r6
10004288:	bdf0      	pop	{r4, r5, r6, r7, pc}
1000428a:	f000 f859 	bl	10004340 <time_us_64>
1000428e:	0022      	movs	r2, r4
10004290:	002b      	movs	r3, r5
10004292:	1a12      	subs	r2, r2, r0
10004294:	418b      	sbcs	r3, r1
10004296:	2b00      	cmp	r3, #0
10004298:	db2f      	blt.n	100042fa <best_effort_wfe_or_timeout+0xbe>
1000429a:	4b1f      	ldr	r3, [pc, #124]	@ (10004318 <best_effort_wfe_or_timeout+0xdc>)
1000429c:	0022      	movs	r2, r4
1000429e:	9300      	str	r3, [sp, #0]
100042a0:	0030      	movs	r0, r6
100042a2:	002b      	movs	r3, r5
100042a4:	9701      	str	r7, [sp, #4]
100042a6:	f7ff ff35 	bl	10004114 <alarm_pool_add_alarm_at_force_in_context>
100042aa:	1e01      	subs	r1, r0, #0
100042ac:	dd25      	ble.n	100042fa <best_effort_wfe_or_timeout+0xbe>
100042ae:	4b19      	ldr	r3, [pc, #100]	@ (10004314 <best_effort_wfe_or_timeout+0xd8>)
100042b0:	6a5a      	ldr	r2, [r3, #36]	@ 0x24
100042b2:	42aa      	cmp	r2, r5
100042b4:	d21b      	bcs.n	100042ee <best_effort_wfe_or_timeout+0xb2>
100042b6:	bf20      	wfe
100042b8:	0030      	movs	r0, r6
100042ba:	f7ff ff83 	bl	100041c4 <alarm_pool_cancel_alarm>
100042be:	4a15      	ldr	r2, [pc, #84]	@ (10004314 <best_effort_wfe_or_timeout+0xd8>)
100042c0:	2000      	movs	r0, #0
100042c2:	6a53      	ldr	r3, [r2, #36]	@ 0x24
100042c4:	4543      	cmp	r3, r8
100042c6:	d3db      	bcc.n	10004280 <best_effort_wfe_or_timeout+0x44>
100042c8:	6a92      	ldr	r2, [r2, #40]	@ 0x28
100042ca:	3001      	adds	r0, #1
100042cc:	4591      	cmp	r9, r2
100042ce:	d9d7      	bls.n	10004280 <best_effort_wfe_or_timeout+0x44>
100042d0:	e008      	b.n	100042e4 <best_effort_wfe_or_timeout+0xa8>
100042d2:	4910      	ldr	r1, [pc, #64]	@ (10004314 <best_effort_wfe_or_timeout+0xd8>)
100042d4:	2000      	movs	r0, #0
100042d6:	6a4b      	ldr	r3, [r1, #36]	@ 0x24
100042d8:	42ab      	cmp	r3, r5
100042da:	d3d1      	bcc.n	10004280 <best_effort_wfe_or_timeout+0x44>
100042dc:	6a8a      	ldr	r2, [r1, #40]	@ 0x28
100042de:	3001      	adds	r0, #1
100042e0:	42a2      	cmp	r2, r4
100042e2:	d2cd      	bcs.n	10004280 <best_effort_wfe_or_timeout+0x44>
100042e4:	1b5b      	subs	r3, r3, r5
100042e6:	1e5a      	subs	r2, r3, #1
100042e8:	4193      	sbcs	r3, r2
100042ea:	b2d8      	uxtb	r0, r3
100042ec:	e7c8      	b.n	10004280 <best_effort_wfe_or_timeout+0x44>
100042ee:	6a9b      	ldr	r3, [r3, #40]	@ 0x28
100042f0:	429c      	cmp	r4, r3
100042f2:	d9e1      	bls.n	100042b8 <best_effort_wfe_or_timeout+0x7c>
100042f4:	42aa      	cmp	r2, r5
100042f6:	d1df      	bne.n	100042b8 <best_effort_wfe_or_timeout+0x7c>
100042f8:	e7dd      	b.n	100042b6 <best_effort_wfe_or_timeout+0x7a>
100042fa:	4a06      	ldr	r2, [pc, #24]	@ (10004314 <best_effort_wfe_or_timeout+0xd8>)
100042fc:	2000      	movs	r0, #0
100042fe:	6a53      	ldr	r3, [r2, #36]	@ 0x24
10004300:	4543      	cmp	r3, r8
10004302:	d3bd      	bcc.n	10004280 <best_effort_wfe_or_timeout+0x44>
10004304:	6a92      	ldr	r2, [r2, #40]	@ 0x28
10004306:	2001      	movs	r0, #1
10004308:	4591      	cmp	r9, r2
1000430a:	d9b9      	bls.n	10004280 <best_effort_wfe_or_timeout+0x44>
1000430c:	e7ea      	b.n	100042e4 <best_effort_wfe_or_timeout+0xa8>
1000430e:	46c0      	nop			@ (mov r8, r8)
10004310:	2000115c 	.word	0x2000115c
10004314:	40054000 	.word	0x40054000
10004318:	10003c31 	.word	0x10003c31

1000431c <timer_hardware_alarm_claim>:
1000431c:	b510      	push	{r4, lr}
1000431e:	4a02      	ldr	r2, [pc, #8]	@ (10004328 <timer_hardware_alarm_claim+0xc>)
10004320:	4802      	ldr	r0, [pc, #8]	@ (1000432c <timer_hardware_alarm_claim+0x10>)
10004322:	f7ff f9b1 	bl	10003688 <hw_claim_or_assert>
10004326:	bd10      	pop	{r4, pc}
10004328:	10013db4 	.word	0x10013db4
1000432c:	20004d0c 	.word	0x20004d0c

10004330 <timer_time_us_64>:
10004330:	0003      	movs	r3, r0
10004332:	6a41      	ldr	r1, [r0, #36]	@ 0x24
10004334:	000a      	movs	r2, r1
10004336:	6a98      	ldr	r0, [r3, #40]	@ 0x28
10004338:	6a59      	ldr	r1, [r3, #36]	@ 0x24
1000433a:	428a      	cmp	r2, r1
1000433c:	d1fa      	bne.n	10004334 <timer_time_us_64+0x4>
1000433e:	4770      	bx	lr

10004340 <time_us_64>:
10004340:	4b03      	ldr	r3, [pc, #12]	@ (10004350 <time_us_64+0x10>)
10004342:	6a59      	ldr	r1, [r3, #36]	@ 0x24
10004344:	000a      	movs	r2, r1
10004346:	6a98      	ldr	r0, [r3, #40]	@ 0x28
10004348:	6a59      	ldr	r1, [r3, #36]	@ 0x24
1000434a:	4291      	cmp	r1, r2
1000434c:	d1fa      	bne.n	10004344 <time_us_64+0x4>
1000434e:	4770      	bx	lr
10004350:	40054000 	.word	0x40054000

10004354 <busy_wait_us>:
10004354:	b570      	push	{r4, r5, r6, lr}
10004356:	0004      	movs	r4, r0
10004358:	000d      	movs	r5, r1
1000435a:	4a17      	ldr	r2, [pc, #92]	@ (100043b8 <busy_wait_us+0x64>)
1000435c:	6a53      	ldr	r3, [r2, #36]	@ 0x24
1000435e:	0019      	movs	r1, r3
10004360:	6a96      	ldr	r6, [r2, #40]	@ 0x28
10004362:	6a53      	ldr	r3, [r2, #36]	@ 0x24
10004364:	428b      	cmp	r3, r1
10004366:	d1fa      	bne.n	1000435e <busy_wait_us+0xa>
10004368:	0030      	movs	r0, r6
1000436a:	0019      	movs	r1, r3
1000436c:	1824      	adds	r4, r4, r0
1000436e:	414d      	adcs	r5, r1
10004370:	42ab      	cmp	r3, r5
10004372:	d816      	bhi.n	100043a2 <busy_wait_us+0x4e>
10004374:	d013      	beq.n	1000439e <busy_wait_us+0x4a>
10004376:	4a10      	ldr	r2, [pc, #64]	@ (100043b8 <busy_wait_us+0x64>)
10004378:	002b      	movs	r3, r5
1000437a:	6a52      	ldr	r2, [r2, #36]	@ 0x24
1000437c:	4295      	cmp	r5, r2
1000437e:	d903      	bls.n	10004388 <busy_wait_us+0x34>
10004380:	490d      	ldr	r1, [pc, #52]	@ (100043b8 <busy_wait_us+0x64>)
10004382:	6a4a      	ldr	r2, [r1, #36]	@ 0x24
10004384:	429a      	cmp	r2, r3
10004386:	d3fc      	bcc.n	10004382 <busy_wait_us+0x2e>
10004388:	429a      	cmp	r2, r3
1000438a:	d107      	bne.n	1000439c <busy_wait_us+0x48>
1000438c:	4a0a      	ldr	r2, [pc, #40]	@ (100043b8 <busy_wait_us+0x64>)
1000438e:	e002      	b.n	10004396 <busy_wait_us+0x42>
10004390:	6a51      	ldr	r1, [r2, #36]	@ 0x24
10004392:	4299      	cmp	r1, r3
10004394:	d102      	bne.n	1000439c <busy_wait_us+0x48>
10004396:	6a91      	ldr	r1, [r2, #40]	@ 0x28
10004398:	42a1      	cmp	r1, r4
1000439a:	d3f9      	bcc.n	10004390 <busy_wait_us+0x3c>
1000439c:	bd70      	pop	{r4, r5, r6, pc}
1000439e:	42a6      	cmp	r6, r4
100043a0:	d9e9      	bls.n	10004376 <busy_wait_us+0x22>
100043a2:	4b05      	ldr	r3, [pc, #20]	@ (100043b8 <busy_wait_us+0x64>)
100043a4:	6a5b      	ldr	r3, [r3, #36]	@ 0x24
100043a6:	001c      	movs	r4, r3
100043a8:	1c5a      	adds	r2, r3, #1
100043aa:	d0ef      	beq.n	1000438c <busy_wait_us+0x38>
100043ac:	2301      	movs	r3, #1
100043ae:	2401      	movs	r4, #1
100043b0:	4264      	negs	r4, r4
100043b2:	17e5      	asrs	r5, r4, #31
100043b4:	425b      	negs	r3, r3
100043b6:	e7e3      	b.n	10004380 <busy_wait_us+0x2c>
100043b8:	40054000 	.word	0x40054000

100043bc <clock_configure_int_divider>:
100043bc:	b5f8      	push	{r3, r4, r5, r6, r7, lr}
100043be:	46de      	mov	lr, fp
100043c0:	464e      	mov	r6, r9
100043c2:	4657      	mov	r7, sl
100043c4:	4645      	mov	r5, r8
100043c6:	b5e0      	push	{r5, r6, r7, lr}
100043c8:	468b      	mov	fp, r1
100043ca:	0005      	movs	r5, r0
100043cc:	990a      	ldr	r1, [sp, #40]	@ 0x28
100043ce:	0018      	movs	r0, r3
100043d0:	0016      	movs	r6, r2
100043d2:	f000 faf1 	bl	100049b8 <__wrap___aeabi_uidiv>
100043d6:	9b0a      	ldr	r3, [sp, #40]	@ 0x28
100043d8:	006c      	lsls	r4, r5, #1
100043da:	021f      	lsls	r7, r3, #8
100043dc:	4b32      	ldr	r3, [pc, #200]	@ (100044a8 <clock_configure_int_divider+0xec>)
100043de:	1964      	adds	r4, r4, r5
100043e0:	469c      	mov	ip, r3
100043e2:	00a4      	lsls	r4, r4, #2
100043e4:	4464      	add	r4, ip
100043e6:	6863      	ldr	r3, [r4, #4]
100043e8:	4681      	mov	r9, r0
100043ea:	429f      	cmp	r7, r3
100043ec:	d900      	bls.n	100043f0 <clock_configure_int_divider+0x34>
100043ee:	6067      	str	r7, [r4, #4]
100043f0:	1f2b      	subs	r3, r5, #4
100043f2:	b2db      	uxtb	r3, r3
100043f4:	4698      	mov	r8, r3
100043f6:	2b01      	cmp	r3, #1
100043f8:	d930      	bls.n	1000445c <clock_configure_int_divider+0xa0>
100043fa:	23c0      	movs	r3, #192	@ 0xc0
100043fc:	2280      	movs	r2, #128	@ 0x80
100043fe:	019b      	lsls	r3, r3, #6
10004400:	18e3      	adds	r3, r4, r3
10004402:	0112      	lsls	r2, r2, #4
10004404:	601a      	str	r2, [r3, #0]
10004406:	4b29      	ldr	r3, [pc, #164]	@ (100044ac <clock_configure_int_divider+0xf0>)
10004408:	00ad      	lsls	r5, r5, #2
1000440a:	5959      	ldr	r1, [r3, r5]
1000440c:	469a      	mov	sl, r3
1000440e:	2900      	cmp	r1, #0
10004410:	d11b      	bne.n	1000444a <clock_configure_int_divider+0x8e>
10004412:	0173      	lsls	r3, r6, #5
10004414:	26e0      	movs	r6, #224	@ 0xe0
10004416:	6822      	ldr	r2, [r4, #0]
10004418:	4053      	eors	r3, r2
1000441a:	401e      	ands	r6, r3
1000441c:	2380      	movs	r3, #128	@ 0x80
1000441e:	4642      	mov	r2, r8
10004420:	015b      	lsls	r3, r3, #5
10004422:	18e3      	adds	r3, r4, r3
10004424:	601e      	str	r6, [r3, #0]
10004426:	2a01      	cmp	r2, #1
10004428:	d930      	bls.n	1000448c <clock_configure_int_divider+0xd0>
1000442a:	2380      	movs	r3, #128	@ 0x80
1000442c:	2280      	movs	r2, #128	@ 0x80
1000442e:	019b      	lsls	r3, r3, #6
10004430:	18e3      	adds	r3, r4, r3
10004432:	0112      	lsls	r2, r2, #4
10004434:	601a      	str	r2, [r3, #0]
10004436:	4653      	mov	r3, sl
10004438:	464a      	mov	r2, r9
1000443a:	6067      	str	r7, [r4, #4]
1000443c:	515a      	str	r2, [r3, r5]
1000443e:	bcf0      	pop	{r4, r5, r6, r7}
10004440:	46bb      	mov	fp, r7
10004442:	46b2      	mov	sl, r6
10004444:	46a9      	mov	r9, r5
10004446:	46a0      	mov	r8, r4
10004448:	bdf8      	pop	{r3, r4, r5, r6, r7, pc}
1000444a:	6958      	ldr	r0, [r3, #20]
1000444c:	f000 fab4 	bl	100049b8 <__wrap___aeabi_uidiv>
10004450:	3001      	adds	r0, #1
10004452:	0043      	lsls	r3, r0, #1
10004454:	181b      	adds	r3, r3, r0
10004456:	3b03      	subs	r3, #3
10004458:	d2fd      	bcs.n	10004456 <clock_configure_int_divider+0x9a>
1000445a:	e7da      	b.n	10004412 <clock_configure_int_divider+0x56>
1000445c:	465b      	mov	r3, fp
1000445e:	2b01      	cmp	r3, #1
10004460:	d1cb      	bne.n	100043fa <clock_configure_int_divider+0x3e>
10004462:	23c0      	movs	r3, #192	@ 0xc0
10004464:	2203      	movs	r2, #3
10004466:	019b      	lsls	r3, r3, #6
10004468:	18e3      	adds	r3, r4, r3
1000446a:	601a      	str	r2, [r3, #0]
1000446c:	3a02      	subs	r2, #2
1000446e:	68a3      	ldr	r3, [r4, #8]
10004470:	421a      	tst	r2, r3
10004472:	d0fc      	beq.n	1000446e <clock_configure_int_divider+0xb2>
10004474:	0173      	lsls	r3, r6, #5
10004476:	26e0      	movs	r6, #224	@ 0xe0
10004478:	6822      	ldr	r2, [r4, #0]
1000447a:	00ad      	lsls	r5, r5, #2
1000447c:	4053      	eors	r3, r2
1000447e:	401e      	ands	r6, r3
10004480:	2380      	movs	r3, #128	@ 0x80
10004482:	4a0a      	ldr	r2, [pc, #40]	@ (100044ac <clock_configure_int_divider+0xf0>)
10004484:	015b      	lsls	r3, r3, #5
10004486:	4692      	mov	sl, r2
10004488:	18e3      	adds	r3, r4, r3
1000448a:	601e      	str	r6, [r3, #0]
1000448c:	465a      	mov	r2, fp
1000448e:	6821      	ldr	r1, [r4, #0]
10004490:	4051      	eors	r1, r2
10004492:	2203      	movs	r2, #3
10004494:	400a      	ands	r2, r1
10004496:	601a      	str	r2, [r3, #0]
10004498:	2201      	movs	r2, #1
1000449a:	465b      	mov	r3, fp
1000449c:	409a      	lsls	r2, r3
1000449e:	68a3      	ldr	r3, [r4, #8]
100044a0:	421a      	tst	r2, r3
100044a2:	d0fc      	beq.n	1000449e <clock_configure_int_divider+0xe2>
100044a4:	e7c1      	b.n	1000442a <clock_configure_int_divider+0x6e>
100044a6:	46c0      	nop			@ (mov r8, r8)
100044a8:	40008000 	.word	0x40008000
100044ac:	20004d10 	.word	0x20004d10

100044b0 <clock_configure_undivided>:
100044b0:	b5f0      	push	{r4, r5, r6, r7, lr}
100044b2:	4646      	mov	r6, r8
100044b4:	464f      	mov	r7, r9
100044b6:	46d6      	mov	lr, sl
100044b8:	b5c0      	push	{r6, r7, lr}
100044ba:	001f      	movs	r7, r3
100044bc:	4b34      	ldr	r3, [pc, #208]	@ (10004590 <clock_configure_undivided+0xe0>)
100044be:	0044      	lsls	r4, r0, #1
100044c0:	469c      	mov	ip, r3
100044c2:	1824      	adds	r4, r4, r0
100044c4:	00a4      	lsls	r4, r4, #2
100044c6:	4464      	add	r4, ip
100044c8:	6863      	ldr	r3, [r4, #4]
100044ca:	4688      	mov	r8, r1
100044cc:	0016      	movs	r6, r2
100044ce:	2bff      	cmp	r3, #255	@ 0xff
100044d0:	d802      	bhi.n	100044d8 <clock_configure_undivided+0x28>
100044d2:	2380      	movs	r3, #128	@ 0x80
100044d4:	005b      	lsls	r3, r3, #1
100044d6:	6063      	str	r3, [r4, #4]
100044d8:	1f03      	subs	r3, r0, #4
100044da:	b2db      	uxtb	r3, r3
100044dc:	469a      	mov	sl, r3
100044de:	2b01      	cmp	r3, #1
100044e0:	d930      	bls.n	10004544 <clock_configure_undivided+0x94>
100044e2:	23c0      	movs	r3, #192	@ 0xc0
100044e4:	2280      	movs	r2, #128	@ 0x80
100044e6:	019b      	lsls	r3, r3, #6
100044e8:	18e3      	adds	r3, r4, r3
100044ea:	0112      	lsls	r2, r2, #4
100044ec:	601a      	str	r2, [r3, #0]
100044ee:	4b29      	ldr	r3, [pc, #164]	@ (10004594 <clock_configure_undivided+0xe4>)
100044f0:	0085      	lsls	r5, r0, #2
100044f2:	5959      	ldr	r1, [r3, r5]
100044f4:	4699      	mov	r9, r3
100044f6:	2900      	cmp	r1, #0
100044f8:	d11b      	bne.n	10004532 <clock_configure_undivided+0x82>
100044fa:	0173      	lsls	r3, r6, #5
100044fc:	26e0      	movs	r6, #224	@ 0xe0
100044fe:	6822      	ldr	r2, [r4, #0]
10004500:	4053      	eors	r3, r2
10004502:	401e      	ands	r6, r3
10004504:	2380      	movs	r3, #128	@ 0x80
10004506:	4652      	mov	r2, sl
10004508:	015b      	lsls	r3, r3, #5
1000450a:	18e3      	adds	r3, r4, r3
1000450c:	601e      	str	r6, [r3, #0]
1000450e:	2a01      	cmp	r2, #1
10004510:	d930      	bls.n	10004574 <clock_configure_undivided+0xc4>
10004512:	2380      	movs	r3, #128	@ 0x80
10004514:	2280      	movs	r2, #128	@ 0x80
10004516:	019b      	lsls	r3, r3, #6
10004518:	18e3      	adds	r3, r4, r3
1000451a:	0112      	lsls	r2, r2, #4
1000451c:	601a      	str	r2, [r3, #0]
1000451e:	2380      	movs	r3, #128	@ 0x80
10004520:	005b      	lsls	r3, r3, #1
10004522:	6063      	str	r3, [r4, #4]
10004524:	464b      	mov	r3, r9
10004526:	515f      	str	r7, [r3, r5]
10004528:	bce0      	pop	{r5, r6, r7}
1000452a:	46ba      	mov	sl, r7
1000452c:	46b1      	mov	r9, r6
1000452e:	46a8      	mov	r8, r5
10004530:	bdf0      	pop	{r4, r5, r6, r7, pc}
10004532:	6958      	ldr	r0, [r3, #20]
10004534:	f000 fa40 	bl	100049b8 <__wrap___aeabi_uidiv>
10004538:	3001      	adds	r0, #1
1000453a:	0043      	lsls	r3, r0, #1
1000453c:	181b      	adds	r3, r3, r0
1000453e:	3b03      	subs	r3, #3
10004540:	d2fd      	bcs.n	1000453e <clock_configure_undivided+0x8e>
10004542:	e7da      	b.n	100044fa <clock_configure_undivided+0x4a>
10004544:	4643      	mov	r3, r8
10004546:	2b01      	cmp	r3, #1
10004548:	d1cb      	bne.n	100044e2 <clock_configure_undivided+0x32>
1000454a:	23c0      	movs	r3, #192	@ 0xc0
1000454c:	2203      	movs	r2, #3
1000454e:	019b      	lsls	r3, r3, #6
10004550:	18e3      	adds	r3, r4, r3
10004552:	601a      	str	r2, [r3, #0]
10004554:	3a02      	subs	r2, #2
10004556:	68a3      	ldr	r3, [r4, #8]
10004558:	421a      	tst	r2, r3
1000455a:	d0fc      	beq.n	10004556 <clock_configure_undivided+0xa6>
1000455c:	0173      	lsls	r3, r6, #5
1000455e:	26e0      	movs	r6, #224	@ 0xe0
10004560:	6822      	ldr	r2, [r4, #0]
10004562:	0085      	lsls	r5, r0, #2
10004564:	4053      	eors	r3, r2
10004566:	401e      	ands	r6, r3
10004568:	2380      	movs	r3, #128	@ 0x80
1000456a:	4a0a      	ldr	r2, [pc, #40]	@ (10004594 <clock_configure_undivided+0xe4>)
1000456c:	015b      	lsls	r3, r3, #5
1000456e:	4691      	mov	r9, r2
10004570:	18e3      	adds	r3, r4, r3
10004572:	601e      	str	r6, [r3, #0]
10004574:	4642      	mov	r2, r8
10004576:	6821      	ldr	r1, [r4, #0]
10004578:	4051      	eors	r1, r2
1000457a:	2203      	movs	r2, #3
1000457c:	400a      	ands	r2, r1
1000457e:	601a      	str	r2, [r3, #0]
10004580:	2301      	movs	r3, #1
10004582:	4642      	mov	r2, r8
10004584:	4093      	lsls	r3, r2
10004586:	68a2      	ldr	r2, [r4, #8]
10004588:	4213      	tst	r3, r2
1000458a:	d0fc      	beq.n	10004586 <clock_configure_undivided+0xd6>
1000458c:	e7c1      	b.n	10004512 <clock_configure_undivided+0x62>
1000458e:	46c0      	nop			@ (mov r8, r8)
10004590:	40008000 	.word	0x40008000
10004594:	20004d10 	.word	0x20004d10

10004598 <clock_get_hz>:
10004598:	4b01      	ldr	r3, [pc, #4]	@ (100045a0 <clock_get_hz+0x8>)
1000459a:	0080      	lsls	r0, r0, #2
1000459c:	58c0      	ldr	r0, [r0, r3]
1000459e:	4770      	bx	lr
100045a0:	20004d10 	.word	0x20004d10

100045a4 <pll_init>:
100045a4:	b5f8      	push	{r3, r4, r5, r6, r7, lr}
100045a6:	0004      	movs	r4, r0
100045a8:	4821      	ldr	r0, [pc, #132]	@ (10004630 <pll_init+0x8c>)
100045aa:	001e      	movs	r6, r3
100045ac:	0017      	movs	r7, r2
100045ae:	000d      	movs	r5, r1
100045b0:	f000 fa02 	bl	100049b8 <__wrap___aeabi_uidiv>
100045b4:	0001      	movs	r1, r0
100045b6:	0038      	movs	r0, r7
100045b8:	f000 f9fe 	bl	100049b8 <__wrap___aeabi_uidiv>
100045bc:	9b06      	ldr	r3, [sp, #24]
100045be:	0436      	lsls	r6, r6, #16
100045c0:	031b      	lsls	r3, r3, #12
100045c2:	431e      	orrs	r6, r3
100045c4:	6823      	ldr	r3, [r4, #0]
100045c6:	2b00      	cmp	r3, #0
100045c8:	db20      	blt.n	1000460c <pll_init+0x68>
100045ca:	4b1a      	ldr	r3, [pc, #104]	@ (10004634 <pll_init+0x90>)
100045cc:	491a      	ldr	r1, [pc, #104]	@ (10004638 <pll_init+0x94>)
100045ce:	18e3      	adds	r3, r4, r3
100045d0:	1e5a      	subs	r2, r3, #1
100045d2:	4193      	sbcs	r3, r2
100045d4:	2280      	movs	r2, #128	@ 0x80
100045d6:	0192      	lsls	r2, r2, #6
100045d8:	4694      	mov	ip, r2
100045da:	425b      	negs	r3, r3
100045dc:	0b1b      	lsrs	r3, r3, #12
100045de:	4a17      	ldr	r2, [pc, #92]	@ (1000463c <pll_init+0x98>)
100045e0:	031b      	lsls	r3, r3, #12
100045e2:	4463      	add	r3, ip
100045e4:	6013      	str	r3, [r2, #0]
100045e6:	4a16      	ldr	r2, [pc, #88]	@ (10004640 <pll_init+0x9c>)
100045e8:	6013      	str	r3, [r2, #0]
100045ea:	001f      	movs	r7, r3
100045ec:	680a      	ldr	r2, [r1, #0]
100045ee:	4397      	bics	r7, r2
100045f0:	d1fb      	bne.n	100045ea <pll_init+0x46>
100045f2:	4b14      	ldr	r3, [pc, #80]	@ (10004644 <pll_init+0xa0>)
100045f4:	6025      	str	r5, [r4, #0]
100045f6:	18e2      	adds	r2, r4, r3
100045f8:	2321      	movs	r3, #33	@ 0x21
100045fa:	60a0      	str	r0, [r4, #8]
100045fc:	6013      	str	r3, [r2, #0]
100045fe:	6823      	ldr	r3, [r4, #0]
10004600:	2b00      	cmp	r3, #0
10004602:	dafc      	bge.n	100045fe <pll_init+0x5a>
10004604:	2308      	movs	r3, #8
10004606:	60e6      	str	r6, [r4, #12]
10004608:	6013      	str	r3, [r2, #0]
1000460a:	bdf8      	pop	{r3, r4, r5, r6, r7, pc}
1000460c:	233f      	movs	r3, #63	@ 0x3f
1000460e:	6822      	ldr	r2, [r4, #0]
10004610:	4013      	ands	r3, r2
10004612:	42ab      	cmp	r3, r5
10004614:	d1d9      	bne.n	100045ca <pll_init+0x26>
10004616:	68a3      	ldr	r3, [r4, #8]
10004618:	051b      	lsls	r3, r3, #20
1000461a:	0d1b      	lsrs	r3, r3, #20
1000461c:	4283      	cmp	r3, r0
1000461e:	d1d4      	bne.n	100045ca <pll_init+0x26>
10004620:	22ee      	movs	r2, #238	@ 0xee
10004622:	68e3      	ldr	r3, [r4, #12]
10004624:	02d2      	lsls	r2, r2, #11
10004626:	4013      	ands	r3, r2
10004628:	42b3      	cmp	r3, r6
1000462a:	d1ce      	bne.n	100045ca <pll_init+0x26>
1000462c:	e7ed      	b.n	1000460a <pll_init+0x66>
1000462e:	46c0      	nop			@ (mov r8, r8)
10004630:	00b71b00 	.word	0x00b71b00
10004634:	bffd4000 	.word	0xbffd4000
10004638:	4000c008 	.word	0x4000c008
1000463c:	4000e000 	.word	0x4000e000
10004640:	4000f000 	.word	0x4000f000
10004644:	00003004 	.word	0x00003004

10004648 <watchdog_reboot>:
10004648:	b510      	push	{r4, lr}
1000464a:	2480      	movs	r4, #128	@ 0x80
1000464c:	4b1c      	ldr	r3, [pc, #112]	@ (100046c0 <watchdog_reboot+0x78>)
1000464e:	05e4      	lsls	r4, r4, #23
10004650:	601c      	str	r4, [r3, #0]
10004652:	2800      	cmp	r0, #0
10004654:	d01a      	beq.n	1000468c <watchdog_reboot+0x44>
10004656:	2301      	movs	r3, #1
10004658:	4c1a      	ldr	r4, [pc, #104]	@ (100046c4 <watchdog_reboot+0x7c>)
1000465a:	4318      	orrs	r0, r3
1000465c:	4b1a      	ldr	r3, [pc, #104]	@ (100046c8 <watchdog_reboot+0x80>)
1000465e:	61dc      	str	r4, [r3, #28]
10004660:	4c1a      	ldr	r4, [pc, #104]	@ (100046cc <watchdog_reboot+0x84>)
10004662:	4044      	eors	r4, r0
10004664:	621c      	str	r4, [r3, #32]
10004666:	6259      	str	r1, [r3, #36]	@ 0x24
10004668:	6298      	str	r0, [r3, #40]	@ 0x28
1000466a:	2180      	movs	r1, #128	@ 0x80
1000466c:	4b14      	ldr	r3, [pc, #80]	@ (100046c0 <watchdog_reboot+0x78>)
1000466e:	05c9      	lsls	r1, r1, #23
10004670:	6019      	str	r1, [r3, #0]
10004672:	4817      	ldr	r0, [pc, #92]	@ (100046d0 <watchdog_reboot+0x88>)
10004674:	4917      	ldr	r1, [pc, #92]	@ (100046d4 <watchdog_reboot+0x8c>)
10004676:	6008      	str	r0, [r1, #0]
10004678:	21e0      	movs	r1, #224	@ 0xe0
1000467a:	04c9      	lsls	r1, r1, #19
1000467c:	6019      	str	r1, [r3, #0]
1000467e:	2a00      	cmp	r2, #0
10004680:	d107      	bne.n	10004692 <watchdog_reboot+0x4a>
10004682:	2280      	movs	r2, #128	@ 0x80
10004684:	4b14      	ldr	r3, [pc, #80]	@ (100046d8 <watchdog_reboot+0x90>)
10004686:	0612      	lsls	r2, r2, #24
10004688:	601a      	str	r2, [r3, #0]
1000468a:	bd10      	pop	{r4, pc}
1000468c:	4b0e      	ldr	r3, [pc, #56]	@ (100046c8 <watchdog_reboot+0x80>)
1000468e:	61d8      	str	r0, [r3, #28]
10004690:	e7eb      	b.n	1000466a <watchdog_reboot+0x22>
10004692:	0153      	lsls	r3, r2, #5
10004694:	1a9b      	subs	r3, r3, r2
10004696:	009b      	lsls	r3, r3, #2
10004698:	189a      	adds	r2, r3, r2
1000469a:	2380      	movs	r3, #128	@ 0x80
1000469c:	0112      	lsls	r2, r2, #4
1000469e:	045b      	lsls	r3, r3, #17
100046a0:	429a      	cmp	r2, r3
100046a2:	d209      	bcs.n	100046b8 <watchdog_reboot+0x70>
100046a4:	0013      	movs	r3, r2
100046a6:	490d      	ldr	r1, [pc, #52]	@ (100046dc <watchdog_reboot+0x94>)
100046a8:	600b      	str	r3, [r1, #0]
100046aa:	4b07      	ldr	r3, [pc, #28]	@ (100046c8 <watchdog_reboot+0x80>)
100046ac:	605a      	str	r2, [r3, #4]
100046ae:	2280      	movs	r2, #128	@ 0x80
100046b0:	4b09      	ldr	r3, [pc, #36]	@ (100046d8 <watchdog_reboot+0x90>)
100046b2:	05d2      	lsls	r2, r2, #23
100046b4:	601a      	str	r2, [r3, #0]
100046b6:	e7e8      	b.n	1000468a <watchdog_reboot+0x42>
100046b8:	4b09      	ldr	r3, [pc, #36]	@ (100046e0 <watchdog_reboot+0x98>)
100046ba:	001a      	movs	r2, r3
100046bc:	e7f3      	b.n	100046a6 <watchdog_reboot+0x5e>
100046be:	46c0      	nop			@ (mov r8, r8)
100046c0:	4005b000 	.word	0x4005b000
100046c4:	b007c0d3 	.word	0xb007c0d3
100046c8:	40058000 	.word	0x40058000
100046cc:	4ff83f2d 	.word	0x4ff83f2d
100046d0:	0001fffc 	.word	0x0001fffc
100046d4:	40012008 	.word	0x40012008
100046d8:	4005a000 	.word	0x4005a000
100046dc:	2000517c 	.word	0x2000517c
100046e0:	00ffffff 	.word	0x00ffffff

100046e4 <tick_start>:
100046e4:	2380      	movs	r3, #128	@ 0x80
100046e6:	4a02      	ldr	r2, [pc, #8]	@ (100046f0 <tick_start+0xc>)
100046e8:	009b      	lsls	r3, r3, #2
100046ea:	430b      	orrs	r3, r1
100046ec:	62d3      	str	r3, [r2, #44]	@ 0x2c
100046ee:	4770      	bx	lr
100046f0:	40058000 	.word	0x40058000

100046f4 <rom_func_lookup>:
100046f4:	2314      	movs	r3, #20
100046f6:	b510      	push	{r4, lr}
100046f8:	0001      	movs	r1, r0
100046fa:	8818      	ldrh	r0, [r3, #0]
100046fc:	3304      	adds	r3, #4
100046fe:	881b      	ldrh	r3, [r3, #0]
10004700:	4798      	blx	r3
10004702:	bd10      	pop	{r4, pc}

10004704 <rom_data_lookup>:
10004704:	2316      	movs	r3, #22
10004706:	b510      	push	{r4, lr}
10004708:	0001      	movs	r1, r0
1000470a:	8818      	ldrh	r0, [r3, #0]
1000470c:	3302      	adds	r3, #2
1000470e:	881b      	ldrh	r3, [r3, #0]
10004710:	4798      	blx	r3
10004712:	bd10      	pop	{r4, pc}

10004714 <rom_funcs_lookup>:
10004714:	b5f8      	push	{r3, r4, r5, r6, r7, lr}
10004716:	4647      	mov	r7, r8
10004718:	46ce      	mov	lr, r9
1000471a:	b580      	push	{r7, lr}
1000471c:	1e0f      	subs	r7, r1, #0
1000471e:	d019      	beq.n	10004754 <rom_funcs_lookup+0x40>
10004720:	2314      	movs	r3, #20
10004722:	4699      	mov	r9, r3
10004724:	3304      	adds	r3, #4
10004726:	0004      	movs	r4, r0
10004728:	2500      	movs	r5, #0
1000472a:	2601      	movs	r6, #1
1000472c:	4698      	mov	r8, r3
1000472e:	464b      	mov	r3, r9
10004730:	8818      	ldrh	r0, [r3, #0]
10004732:	4643      	mov	r3, r8
10004734:	6821      	ldr	r1, [r4, #0]
10004736:	881b      	ldrh	r3, [r3, #0]
10004738:	4798      	blx	r3
1000473a:	c401      	stmia	r4!, {r0}
1000473c:	1e43      	subs	r3, r0, #1
1000473e:	4198      	sbcs	r0, r3
10004740:	3501      	adds	r5, #1
10004742:	4240      	negs	r0, r0
10004744:	4006      	ands	r6, r0
10004746:	42af      	cmp	r7, r5
10004748:	d1f1      	bne.n	1000472e <rom_funcs_lookup+0x1a>
1000474a:	0030      	movs	r0, r6
1000474c:	bcc0      	pop	{r6, r7}
1000474e:	46b9      	mov	r9, r7
10004750:	46b0      	mov	r8, r6
10004752:	bdf8      	pop	{r3, r4, r5, r6, r7, pc}
10004754:	2601      	movs	r6, #1
10004756:	e7f8      	b.n	1000474a <rom_funcs_lookup+0x36>

10004758 <rom_reset_usb_boot_extra>:
10004758:	2314      	movs	r3, #20
1000475a:	b570      	push	{r4, r5, r6, lr}
1000475c:	0004      	movs	r4, r0
1000475e:	8818      	ldrh	r0, [r3, #0]
10004760:	3304      	adds	r3, #4
10004762:	881b      	ldrh	r3, [r3, #0]
10004764:	000d      	movs	r5, r1
10004766:	4905      	ldr	r1, [pc, #20]	@ (1000477c <rom_reset_usb_boot_extra+0x24>)
10004768:	4798      	blx	r3
1000476a:	0003      	movs	r3, r0
1000476c:	2000      	movs	r0, #0
1000476e:	2c00      	cmp	r4, #0
10004770:	db01      	blt.n	10004776 <rom_reset_usb_boot_extra+0x1e>
10004772:	3001      	adds	r0, #1
10004774:	40a0      	lsls	r0, r4
10004776:	0029      	movs	r1, r5
10004778:	4798      	blx	r3
1000477a:	46c0      	nop			@ (mov r8, r8)
1000477c:	00004255 	.word	0x00004255

10004780 <xosc_init>:
10004780:	23aa      	movs	r3, #170	@ 0xaa
10004782:	4a06      	ldr	r2, [pc, #24]	@ (1000479c <xosc_init+0x1c>)
10004784:	011b      	lsls	r3, r3, #4
10004786:	6013      	str	r3, [r2, #0]
10004788:	232f      	movs	r3, #47	@ 0x2f
1000478a:	4905      	ldr	r1, [pc, #20]	@ (100047a0 <xosc_init+0x20>)
1000478c:	60d3      	str	r3, [r2, #12]
1000478e:	4b05      	ldr	r3, [pc, #20]	@ (100047a4 <xosc_init+0x24>)
10004790:	6019      	str	r1, [r3, #0]
10004792:	6853      	ldr	r3, [r2, #4]
10004794:	2b00      	cmp	r3, #0
10004796:	dafc      	bge.n	10004792 <xosc_init+0x12>
10004798:	4770      	bx	lr
1000479a:	46c0      	nop			@ (mov r8, r8)
1000479c:	40024000 	.word	0x40024000
100047a0:	00fab000 	.word	0x00fab000
100047a4:	40026000 	.word	0x40026000

100047a8 <first_per_core_initializer>:
100047a8:	4770      	bx	lr
100047aa:	46c0      	nop			@ (mov r8, r8)

100047ac <hard_assertion_failure>:
100047ac:	b510      	push	{r4, lr}
100047ae:	4801      	ldr	r0, [pc, #4]	@ (100047b4 <hard_assertion_failure+0x8>)
100047b0:	f7fe ff52 	bl	10003658 <panic>
100047b4:	10013dd8 	.word	0x10013dd8

100047b8 <runtime_run_initializers>:
100047b8:	b570      	push	{r4, r5, r6, lr}
100047ba:	4d07      	ldr	r5, [pc, #28]	@ (100047d8 <runtime_run_initializers+0x20>)
100047bc:	4e07      	ldr	r6, [pc, #28]	@ (100047dc <runtime_run_initializers+0x24>)
100047be:	42b5      	cmp	r5, r6
100047c0:	d209      	bcs.n	100047d6 <runtime_run_initializers+0x1e>
100047c2:	2400      	movs	r4, #0
100047c4:	3e01      	subs	r6, #1
100047c6:	1b76      	subs	r6, r6, r5
100047c8:	08b6      	lsrs	r6, r6, #2
100047ca:	cd08      	ldmia	r5!, {r3}
100047cc:	4798      	blx	r3
100047ce:	0023      	movs	r3, r4
100047d0:	3401      	adds	r4, #1
100047d2:	42b3      	cmp	r3, r6
100047d4:	d1f9      	bne.n	100047ca <runtime_run_initializers+0x12>
100047d6:	bd70      	pop	{r4, r5, r6, pc}
100047d8:	100136e8 	.word	0x100136e8
100047dc:	10013724 	.word	0x10013724

100047e0 <runtime_init_early_resets>:
100047e0:	4b05      	ldr	r3, [pc, #20]	@ (100047f8 <runtime_init_early_resets+0x18>)
100047e2:	4a06      	ldr	r2, [pc, #24]	@ (100047fc <runtime_init_early_resets+0x1c>)
100047e4:	4906      	ldr	r1, [pc, #24]	@ (10004800 <runtime_init_early_resets+0x20>)
100047e6:	601a      	str	r2, [r3, #0]
100047e8:	4a06      	ldr	r2, [pc, #24]	@ (10004804 <runtime_init_early_resets+0x24>)
100047ea:	4b07      	ldr	r3, [pc, #28]	@ (10004808 <runtime_init_early_resets+0x28>)
100047ec:	601a      	str	r2, [r3, #0]
100047ee:	0010      	movs	r0, r2
100047f0:	680b      	ldr	r3, [r1, #0]
100047f2:	4398      	bics	r0, r3
100047f4:	d1fb      	bne.n	100047ee <runtime_init_early_resets+0xe>
100047f6:	4770      	bx	lr
100047f8:	4000e000 	.word	0x4000e000
100047fc:	fefbcdbf 	.word	0xfefbcdbf
10004800:	4000c008 	.word	0x4000c008
10004804:	003c7ffe 	.word	0x003c7ffe
10004808:	4000f000 	.word	0x4000f000

1000480c <runtime_init_usb_power_down>:
1000480c:	4b04      	ldr	r3, [pc, #16]	@ (10004820 <runtime_init_usb_power_down+0x14>)
1000480e:	6cdb      	ldr	r3, [r3, #76]	@ 0x4c
10004810:	2b00      	cmp	r3, #0
10004812:	d103      	bne.n	1000481c <runtime_init_usb_power_down+0x10>
10004814:	2280      	movs	r2, #128	@ 0x80
10004816:	4b03      	ldr	r3, [pc, #12]	@ (10004824 <runtime_init_usb_power_down+0x18>)
10004818:	02d2      	lsls	r2, r2, #11
1000481a:	601a      	str	r2, [r3, #0]
1000481c:	4770      	bx	lr
1000481e:	46c0      	nop			@ (mov r8, r8)
10004820:	50110000 	.word	0x50110000
10004824:	5011204c 	.word	0x5011204c

10004828 <runtime_init_post_clock_resets>:
10004828:	4a04      	ldr	r2, [pc, #16]	@ (1000483c <runtime_init_post_clock_resets+0x14>)
1000482a:	4b05      	ldr	r3, [pc, #20]	@ (10004840 <runtime_init_post_clock_resets+0x18>)
1000482c:	601a      	str	r2, [r3, #0]
1000482e:	4a05      	ldr	r2, [pc, #20]	@ (10004844 <runtime_init_post_clock_resets+0x1c>)
10004830:	6813      	ldr	r3, [r2, #0]
10004832:	01db      	lsls	r3, r3, #7
10004834:	3380      	adds	r3, #128	@ 0x80
10004836:	d1fb      	bne.n	10004830 <runtime_init_post_clock_resets+0x8>
10004838:	4770      	bx	lr
1000483a:	46c0      	nop			@ (mov r8, r8)
1000483c:	01ffffff 	.word	0x01ffffff
10004840:	4000f000 	.word	0x4000f000
10004844:	4000c008 	.word	0x4000c008

10004848 <runtime_init_rp2040_gpio_ie_disable>:
10004848:	2240      	movs	r2, #64	@ 0x40
1000484a:	4b03      	ldr	r3, [pc, #12]	@ (10004858 <runtime_init_rp2040_gpio_ie_disable+0x10>)
1000484c:	679a      	str	r2, [r3, #120]	@ 0x78
1000484e:	675a      	str	r2, [r3, #116]	@ 0x74
10004850:	671a      	str	r2, [r3, #112]	@ 0x70
10004852:	66da      	str	r2, [r3, #108]	@ 0x6c
10004854:	4770      	bx	lr
10004856:	46c0      	nop			@ (mov r8, r8)
10004858:	4001f000 	.word	0x4001f000

1000485c <runtime_init_spin_locks_reset>:
1000485c:	b510      	push	{r4, lr}
1000485e:	f7fe ffa1 	bl	100037a4 <spin_locks_reset>
10004862:	bd10      	pop	{r4, pc}

10004864 <runtime_init_install_ram_vector_table>:
10004864:	b570      	push	{r4, r5, r6, lr}
10004866:	4d04      	ldr	r5, [pc, #16]	@ (10004878 <runtime_init_install_ram_vector_table+0x14>)
10004868:	4c04      	ldr	r4, [pc, #16]	@ (1000487c <runtime_init_install_ram_vector_table+0x18>)
1000486a:	68a9      	ldr	r1, [r5, #8]
1000486c:	22c0      	movs	r2, #192	@ 0xc0
1000486e:	0020      	movs	r0, r4
10004870:	f001 f916 	bl	10005aa0 <__wrap___aeabi_memcpy>
10004874:	60ac      	str	r4, [r5, #8]
10004876:	bd70      	pop	{r4, r5, r6, pc}
10004878:	e000ed00 	.word	0xe000ed00
1000487c:	20000000 	.word	0x20000000

10004880 <runtime_init_clocks>:
10004880:	2300      	movs	r3, #0
10004882:	b510      	push	{r4, lr}
10004884:	4c29      	ldr	r4, [pc, #164]	@ (1000492c <runtime_init_clocks+0xac>)
10004886:	b082      	sub	sp, #8
10004888:	67a3      	str	r3, [r4, #120]	@ 0x78
1000488a:	f7ff ff79 	bl	10004780 <xosc_init>
1000488e:	2201      	movs	r2, #1
10004890:	4b27      	ldr	r3, [pc, #156]	@ (10004930 <runtime_init_clocks+0xb0>)
10004892:	601a      	str	r2, [r3, #0]
10004894:	6c63      	ldr	r3, [r4, #68]	@ 0x44
10004896:	2b01      	cmp	r3, #1
10004898:	d1fc      	bne.n	10004894 <runtime_init_clocks+0x14>
1000489a:	2203      	movs	r2, #3
1000489c:	4b25      	ldr	r3, [pc, #148]	@ (10004934 <runtime_init_clocks+0xb4>)
1000489e:	601a      	str	r2, [r3, #0]
100048a0:	4a22      	ldr	r2, [pc, #136]	@ (1000492c <runtime_init_clocks+0xac>)
100048a2:	6b93      	ldr	r3, [r2, #56]	@ 0x38
100048a4:	2b01      	cmp	r3, #1
100048a6:	d1fc      	bne.n	100048a2 <runtime_init_clocks+0x22>
100048a8:	3301      	adds	r3, #1
100048aa:	9300      	str	r3, [sp, #0]
100048ac:	2101      	movs	r1, #1
100048ae:	4a22      	ldr	r2, [pc, #136]	@ (10004938 <runtime_init_clocks+0xb8>)
100048b0:	4822      	ldr	r0, [pc, #136]	@ (1000493c <runtime_init_clocks+0xbc>)
100048b2:	3304      	adds	r3, #4
100048b4:	f7ff fe76 	bl	100045a4 <pll_init>
100048b8:	2305      	movs	r3, #5
100048ba:	2101      	movs	r1, #1
100048bc:	9300      	str	r3, [sp, #0]
100048be:	4a20      	ldr	r2, [pc, #128]	@ (10004940 <runtime_init_clocks+0xc0>)
100048c0:	4820      	ldr	r0, [pc, #128]	@ (10004944 <runtime_init_clocks+0xc4>)
100048c2:	f7ff fe6f 	bl	100045a4 <pll_init>
100048c6:	2200      	movs	r2, #0
100048c8:	2102      	movs	r1, #2
100048ca:	2004      	movs	r0, #4
100048cc:	4b1e      	ldr	r3, [pc, #120]	@ (10004948 <runtime_init_clocks+0xc8>)
100048ce:	f7ff fdef 	bl	100044b0 <clock_configure_undivided>
100048d2:	2200      	movs	r2, #0
100048d4:	2101      	movs	r1, #1
100048d6:	2005      	movs	r0, #5
100048d8:	4b1c      	ldr	r3, [pc, #112]	@ (1000494c <runtime_init_clocks+0xcc>)
100048da:	f7ff fde9 	bl	100044b0 <clock_configure_undivided>
100048de:	2200      	movs	r2, #0
100048e0:	2100      	movs	r1, #0
100048e2:	2007      	movs	r0, #7
100048e4:	4b1a      	ldr	r3, [pc, #104]	@ (10004950 <runtime_init_clocks+0xd0>)
100048e6:	f7ff fde3 	bl	100044b0 <clock_configure_undivided>
100048ea:	2200      	movs	r2, #0
100048ec:	2100      	movs	r1, #0
100048ee:	2008      	movs	r0, #8
100048f0:	4b17      	ldr	r3, [pc, #92]	@ (10004950 <runtime_init_clocks+0xd0>)
100048f2:	f7ff fddd 	bl	100044b0 <clock_configure_undivided>
100048f6:	2380      	movs	r3, #128	@ 0x80
100048f8:	00db      	lsls	r3, r3, #3
100048fa:	9300      	str	r3, [sp, #0]
100048fc:	2200      	movs	r2, #0
100048fe:	2100      	movs	r1, #0
10004900:	2009      	movs	r0, #9
10004902:	4b13      	ldr	r3, [pc, #76]	@ (10004950 <runtime_init_clocks+0xd0>)
10004904:	f7ff fd5a 	bl	100043bc <clock_configure_int_divider>
10004908:	2200      	movs	r2, #0
1000490a:	4b10      	ldr	r3, [pc, #64]	@ (1000494c <runtime_init_clocks+0xcc>)
1000490c:	2100      	movs	r1, #0
1000490e:	2006      	movs	r0, #6
10004910:	f7ff fdce 	bl	100044b0 <clock_configure_undivided>
10004914:	2004      	movs	r0, #4
10004916:	f7ff fe3f 	bl	10004598 <clock_get_hz>
1000491a:	490e      	ldr	r1, [pc, #56]	@ (10004954 <runtime_init_clocks+0xd4>)
1000491c:	f000 f84c 	bl	100049b8 <__wrap___aeabi_uidiv>
10004920:	0001      	movs	r1, r0
10004922:	2000      	movs	r0, #0
10004924:	f7ff fede 	bl	100046e4 <tick_start>
10004928:	b002      	add	sp, #8
1000492a:	bd10      	pop	{r4, pc}
1000492c:	40008000 	.word	0x40008000
10004930:	4000b03c 	.word	0x4000b03c
10004934:	4000b030 	.word	0x4000b030
10004938:	59682f00 	.word	0x59682f00
1000493c:	40028000 	.word	0x40028000
10004940:	47868c00 	.word	0x47868c00
10004944:	4002c000 	.word	0x4002c000
10004948:	00b71b00 	.word	0x00b71b00
1000494c:	07735940 	.word	0x07735940
10004950:	02dc6c00 	.word	0x02dc6c00
10004954:	000f4240 	.word	0x000f4240

10004958 <__aeabi_bits_init>:
10004958:	4801      	ldr	r0, [pc, #4]	@ (10004960 <__aeabi_bits_init+0x8>)
1000495a:	2104      	movs	r1, #4
1000495c:	4b01      	ldr	r3, [pc, #4]	@ (10004964 <__aeabi_bits_init+0xc>)
1000495e:	4718      	bx	r3
10004960:	20001180 	.word	0x20001180
10004964:	10004715 	.word	0x10004715

10004968 <__wrap___aeabi_idiv>:
10004968:	4a12      	ldr	r2, [pc, #72]	@ (100049b4 <divmod_s32s32_savestate+0x18>)
1000496a:	6f93      	ldr	r3, [r2, #120]	@ 0x78
1000496c:	089b      	lsrs	r3, r3, #2
1000496e:	d215      	bcs.n	1000499c <divmod_s32s32_savestate>

10004970 <divmod_s32s32_unsafe>:
10004970:	6690      	str	r0, [r2, #104]	@ 0x68
10004972:	66d1      	str	r1, [r2, #108]	@ 0x6c
10004974:	2900      	cmp	r1, #0
10004976:	d005      	beq.n	10004984 <divmod_s32s32_unsafe+0x14>
10004978:	e7ff      	b.n	1000497a <divmod_s32s32_unsafe+0xa>
1000497a:	e7ff      	b.n	1000497c <divmod_s32s32_unsafe+0xc>
1000497c:	e7ff      	b.n	1000497e <divmod_s32s32_unsafe+0xe>
1000497e:	6f51      	ldr	r1, [r2, #116]	@ 0x74
10004980:	6f10      	ldr	r0, [r2, #112]	@ 0x70
10004982:	4770      	bx	lr
10004984:	b504      	push	{r2, lr}
10004986:	2180      	movs	r1, #128	@ 0x80
10004988:	0609      	lsls	r1, r1, #24
1000498a:	17c2      	asrs	r2, r0, #31
1000498c:	4051      	eors	r1, r2
1000498e:	2800      	cmp	r0, #0
10004990:	d000      	beq.n	10004994 <divmod_s32s32_unsafe+0x24>
10004992:	43c8      	mvns	r0, r1
10004994:	f00e fe50 	bl	10013638 <____aeabi_idiv0_veneer>
10004998:	2100      	movs	r1, #0
1000499a:	bd04      	pop	{r2, pc}

1000499c <divmod_s32s32_savestate>:
1000499c:	b5f0      	push	{r4, r5, r6, r7, lr}
1000499e:	6e14      	ldr	r4, [r2, #96]	@ 0x60
100049a0:	6e55      	ldr	r5, [r2, #100]	@ 0x64
100049a2:	6f57      	ldr	r7, [r2, #116]	@ 0x74
100049a4:	6f16      	ldr	r6, [r2, #112]	@ 0x70
100049a6:	f7ff ffe3 	bl	10004970 <divmod_s32s32_unsafe>
100049aa:	6614      	str	r4, [r2, #96]	@ 0x60
100049ac:	6655      	str	r5, [r2, #100]	@ 0x64
100049ae:	6757      	str	r7, [r2, #116]	@ 0x74
100049b0:	6716      	str	r6, [r2, #112]	@ 0x70
100049b2:	bdf0      	pop	{r4, r5, r6, r7, pc}
100049b4:	d0000000 	.word	0xd0000000

100049b8 <__wrap___aeabi_uidiv>:
100049b8:	4a11      	ldr	r2, [pc, #68]	@ (10004a00 <divmod_u32u32_savestate+0x18>)
100049ba:	6f93      	ldr	r3, [r2, #120]	@ 0x78
100049bc:	089b      	lsrs	r3, r3, #2
100049be:	d213      	bcs.n	100049e8 <divmod_u32u32_savestate>

100049c0 <divmod_u32u32_unsafe>:
100049c0:	6610      	str	r0, [r2, #96]	@ 0x60
100049c2:	6651      	str	r1, [r2, #100]	@ 0x64
100049c4:	2900      	cmp	r1, #0
100049c6:	d005      	beq.n	100049d4 <divmod_u32u32_unsafe+0x14>
100049c8:	e7ff      	b.n	100049ca <divmod_u32u32_unsafe+0xa>
100049ca:	e7ff      	b.n	100049cc <divmod_u32u32_unsafe+0xc>
100049cc:	e7ff      	b.n	100049ce <divmod_u32u32_unsafe+0xe>
100049ce:	6f51      	ldr	r1, [r2, #116]	@ 0x74
100049d0:	6f10      	ldr	r0, [r2, #112]	@ 0x70
100049d2:	4770      	bx	lr
100049d4:	b504      	push	{r2, lr}
100049d6:	2800      	cmp	r0, #0
100049d8:	d001      	beq.n	100049de <divmod_u32u32_unsafe+0x1e>
100049da:	2000      	movs	r0, #0
100049dc:	43c0      	mvns	r0, r0
100049de:	f00e fe2b 	bl	10013638 <____aeabi_idiv0_veneer>
100049e2:	2100      	movs	r1, #0
100049e4:	bd04      	pop	{r2, pc}
100049e6:	46c0      	nop			@ (mov r8, r8)

100049e8 <divmod_u32u32_savestate>:
100049e8:	b5f0      	push	{r4, r5, r6, r7, lr}
100049ea:	6e14      	ldr	r4, [r2, #96]	@ 0x60
100049ec:	6e55      	ldr	r5, [r2, #100]	@ 0x64
100049ee:	6f57      	ldr	r7, [r2, #116]	@ 0x74
100049f0:	6f16      	ldr	r6, [r2, #112]	@ 0x70
100049f2:	f7ff ffe5 	bl	100049c0 <divmod_u32u32_unsafe>
100049f6:	6614      	str	r4, [r2, #96]	@ 0x60
100049f8:	6655      	str	r5, [r2, #100]	@ 0x64
100049fa:	6757      	str	r7, [r2, #116]	@ 0x74
100049fc:	6716      	str	r6, [r2, #112]	@ 0x70
100049fe:	bdf0      	pop	{r4, r5, r6, r7, pc}
10004a00:	d0000000 	.word	0xd0000000

10004a04 <__wrap___aeabi_ldivmod>:
10004a04:	4694      	mov	ip, r2
10004a06:	4a4a      	ldr	r2, [pc, #296]	@ (10004b30 <udiv0+0x1a>)
10004a08:	6f92      	ldr	r2, [r2, #120]	@ 0x78
10004a0a:	0892      	lsrs	r2, r2, #2
10004a0c:	4662      	mov	r2, ip
10004a0e:	d201      	bcs.n	10004a14 <divmod_s64s64_savestate>
10004a10:	e028      	b.n	10004a64 <divmod_s64s64_unsafe>
10004a12:	46c0      	nop			@ (mov r8, r8)

10004a14 <divmod_s64s64_savestate>:
10004a14:	b5f0      	push	{r4, r5, r6, r7, lr}
10004a16:	4e46      	ldr	r6, [pc, #280]	@ (10004b30 <udiv0+0x1a>)
10004a18:	6e34      	ldr	r4, [r6, #96]	@ 0x60
10004a1a:	6e75      	ldr	r5, [r6, #100]	@ 0x64
10004a1c:	6f77      	ldr	r7, [r6, #116]	@ 0x74
10004a1e:	6f36      	ldr	r6, [r6, #112]	@ 0x70
10004a20:	f000 f820 	bl	10004a64 <divmod_s64s64_unsafe>
10004a24:	4694      	mov	ip, r2
10004a26:	4a42      	ldr	r2, [pc, #264]	@ (10004b30 <udiv0+0x1a>)
10004a28:	6614      	str	r4, [r2, #96]	@ 0x60
10004a2a:	6655      	str	r5, [r2, #100]	@ 0x64
10004a2c:	6757      	str	r7, [r2, #116]	@ 0x74
10004a2e:	6716      	str	r6, [r2, #112]	@ 0x70
10004a30:	4662      	mov	r2, ip
10004a32:	bdf0      	pop	{r4, r5, r6, r7, pc}

10004a34 <__wrap___aeabi_uldivmod>:
10004a34:	4694      	mov	ip, r2
10004a36:	4a3e      	ldr	r2, [pc, #248]	@ (10004b30 <udiv0+0x1a>)
10004a38:	6f92      	ldr	r2, [r2, #120]	@ 0x78
10004a3a:	0892      	lsrs	r2, r2, #2
10004a3c:	4662      	mov	r2, ip
10004a3e:	d201      	bcs.n	10004a44 <divmod_u64u64_savestate>
10004a40:	e054      	b.n	10004aec <divmod_u64u64_unsafe>
10004a42:	46c0      	nop			@ (mov r8, r8)

10004a44 <divmod_u64u64_savestate>:
10004a44:	b5f0      	push	{r4, r5, r6, r7, lr}
10004a46:	4e3a      	ldr	r6, [pc, #232]	@ (10004b30 <udiv0+0x1a>)
10004a48:	6e34      	ldr	r4, [r6, #96]	@ 0x60
10004a4a:	6e75      	ldr	r5, [r6, #100]	@ 0x64
10004a4c:	6f77      	ldr	r7, [r6, #116]	@ 0x74
10004a4e:	6f36      	ldr	r6, [r6, #112]	@ 0x70
10004a50:	f000 f84c 	bl	10004aec <divmod_u64u64_unsafe>
10004a54:	4694      	mov	ip, r2
10004a56:	4a36      	ldr	r2, [pc, #216]	@ (10004b30 <udiv0+0x1a>)
10004a58:	6614      	str	r4, [r2, #96]	@ 0x60
10004a5a:	6655      	str	r5, [r2, #100]	@ 0x64
10004a5c:	6757      	str	r7, [r2, #116]	@ 0x74
10004a5e:	6716      	str	r6, [r2, #112]	@ 0x70
10004a60:	4662      	mov	r2, ip
10004a62:	bdf0      	pop	{r4, r5, r6, r7, pc}

10004a64 <divmod_s64s64_unsafe>:
10004a64:	2b00      	cmp	r3, #0
10004a66:	db24      	blt.n	10004ab2 <l42_1+0x26>
10004a68:	d011      	beq.n	10004a8e <l42_1+0x2>
10004a6a:	2900      	cmp	r1, #0
10004a6c:	da3e      	bge.n	10004aec <divmod_u64u64_unsafe>
10004a6e:	b500      	push	{lr}
10004a70:	43c9      	mvns	r1, r1
10004a72:	4240      	negs	r0, r0
10004a74:	d100      	bne.n	10004a78 <l40_1>
10004a76:	3101      	adds	r1, #1

10004a78 <l40_1>:
10004a78:	f000 f838 	bl	10004aec <divmod_u64u64_unsafe>
10004a7c:	43c9      	mvns	r1, r1
10004a7e:	4240      	negs	r0, r0
10004a80:	d100      	bne.n	10004a84 <l41_1>
10004a82:	3101      	adds	r1, #1

10004a84 <l41_1>:
10004a84:	43db      	mvns	r3, r3
10004a86:	4252      	negs	r2, r2
10004a88:	d100      	bne.n	10004a8c <l42_1>
10004a8a:	3301      	adds	r3, #1

10004a8c <l42_1>:
10004a8c:	bd00      	pop	{pc}
10004a8e:	2a00      	cmp	r2, #0
10004a90:	d1eb      	bne.n	10004a6a <divmod_s64s64_unsafe+0x6>
10004a92:	2800      	cmp	r0, #0
10004a94:	d101      	bne.n	10004a9a <l42_1+0xe>
10004a96:	2900      	cmp	r1, #0
10004a98:	d005      	beq.n	10004aa6 <l42_1+0x1a>
10004a9a:	2000      	movs	r0, #0
10004a9c:	0fc9      	lsrs	r1, r1, #31
10004a9e:	07c9      	lsls	r1, r1, #31
10004aa0:	d101      	bne.n	10004aa6 <l42_1+0x1a>
10004aa2:	43c0      	mvns	r0, r0
10004aa4:	0841      	lsrs	r1, r0, #1
10004aa6:	b500      	push	{lr}
10004aa8:	f00e fdae 	bl	10013608 <____aeabi_ldiv0_veneer>
10004aac:	2200      	movs	r2, #0
10004aae:	2300      	movs	r3, #0
10004ab0:	bd00      	pop	{pc}
10004ab2:	b500      	push	{lr}
10004ab4:	2900      	cmp	r1, #0
10004ab6:	db0a      	blt.n	10004ace <l44_1+0x2>
10004ab8:	43db      	mvns	r3, r3
10004aba:	4252      	negs	r2, r2
10004abc:	d100      	bne.n	10004ac0 <l43_1>
10004abe:	3301      	adds	r3, #1

10004ac0 <l43_1>:
10004ac0:	f000 f814 	bl	10004aec <divmod_u64u64_unsafe>
10004ac4:	43c9      	mvns	r1, r1
10004ac6:	4240      	negs	r0, r0
10004ac8:	d100      	bne.n	10004acc <l44_1>
10004aca:	3101      	adds	r1, #1

10004acc <l44_1>:
10004acc:	bd00      	pop	{pc}
10004ace:	43c9      	mvns	r1, r1
10004ad0:	4240      	negs	r0, r0
10004ad2:	d100      	bne.n	10004ad6 <l45_1>
10004ad4:	3101      	adds	r1, #1

10004ad6 <l45_1>:
10004ad6:	43db      	mvns	r3, r3
10004ad8:	4252      	negs	r2, r2
10004ada:	d100      	bne.n	10004ade <l46_1>
10004adc:	3301      	adds	r3, #1

10004ade <l46_1>:
10004ade:	f000 f805 	bl	10004aec <divmod_u64u64_unsafe>
10004ae2:	43db      	mvns	r3, r3
10004ae4:	4252      	negs	r2, r2
10004ae6:	d100      	bne.n	10004aea <l47_1>
10004ae8:	3301      	adds	r3, #1

10004aea <l47_1>:
10004aea:	bd00      	pop	{pc}

10004aec <divmod_u64u64_unsafe>:
10004aec:	2900      	cmp	r1, #0
10004aee:	d123      	bne.n	10004b38 <y64>
10004af0:	2b00      	cmp	r3, #0
10004af2:	d118      	bne.n	10004b26 <udiv0+0x10>
10004af4:	2a00      	cmp	r2, #0
10004af6:	d00c      	beq.n	10004b12 <divmod_u64u64_unsafe+0x26>
10004af8:	46bc      	mov	ip, r7
10004afa:	4f0d      	ldr	r7, [pc, #52]	@ (10004b30 <udiv0+0x1a>)
10004afc:	6638      	str	r0, [r7, #96]	@ 0x60
10004afe:	667a      	str	r2, [r7, #100]	@ 0x64
10004b00:	2100      	movs	r1, #0
10004b02:	2300      	movs	r3, #0
10004b04:	e7ff      	b.n	10004b06 <divmod_u64u64_unsafe+0x1a>
10004b06:	e7ff      	b.n	10004b08 <divmod_u64u64_unsafe+0x1c>
10004b08:	e7ff      	b.n	10004b0a <divmod_u64u64_unsafe+0x1e>
10004b0a:	6f7a      	ldr	r2, [r7, #116]	@ 0x74
10004b0c:	6f38      	ldr	r0, [r7, #112]	@ 0x70
10004b0e:	4667      	mov	r7, ip
10004b10:	4770      	bx	lr
10004b12:	2800      	cmp	r0, #0
10004b14:	d001      	beq.n	10004b1a <udiv0+0x4>

10004b16 <udiv0>:
10004b16:	4807      	ldr	r0, [pc, #28]	@ (10004b34 <udiv0+0x1e>)
10004b18:	0001      	movs	r1, r0
10004b1a:	b500      	push	{lr}
10004b1c:	f00e fd74 	bl	10013608 <____aeabi_ldiv0_veneer>
10004b20:	2200      	movs	r2, #0
10004b22:	2300      	movs	r3, #0
10004b24:	bd00      	pop	{pc}
10004b26:	0002      	movs	r2, r0
10004b28:	000b      	movs	r3, r1
10004b2a:	2000      	movs	r0, #0
10004b2c:	2100      	movs	r1, #0
10004b2e:	4770      	bx	lr
10004b30:	d0000000 	.word	0xd0000000
10004b34:	ffffffff 	.word	0xffffffff

10004b38 <y64>:
10004b38:	2b00      	cmp	r3, #0
10004b3a:	d000      	beq.n	10004b3e <y64+0x6>
10004b3c:	e0bf      	b.n	10004cbe <y64_x48>
10004b3e:	0c13      	lsrs	r3, r2, #16
10004b40:	d128      	bne.n	10004b94 <y64_x32>
10004b42:	2a00      	cmp	r2, #0
10004b44:	d0e7      	beq.n	10004b16 <udiv0>
10004b46:	b480      	push	{r7}
10004b48:	4f11      	ldr	r7, [pc, #68]	@ (10004b90 <y64+0x58>)
10004b4a:	6639      	str	r1, [r7, #96]	@ 0x60
10004b4c:	667a      	str	r2, [r7, #100]	@ 0x64
10004b4e:	e7ff      	b.n	10004b50 <y64+0x18>
10004b50:	e7ff      	b.n	10004b52 <y64+0x1a>
10004b52:	b430      	push	{r4, r5}
10004b54:	0c04      	lsrs	r4, r0, #16
10004b56:	6f7b      	ldr	r3, [r7, #116]	@ 0x74
10004b58:	6f39      	ldr	r1, [r7, #112]	@ 0x70
10004b5a:	041b      	lsls	r3, r3, #16
10004b5c:	4323      	orrs	r3, r4
10004b5e:	663b      	str	r3, [r7, #96]	@ 0x60
10004b60:	667a      	str	r2, [r7, #100]	@ 0x64
10004b62:	e7ff      	b.n	10004b64 <y64+0x2c>
10004b64:	e7ff      	b.n	10004b66 <y64+0x2e>
10004b66:	e7ff      	b.n	10004b68 <y64+0x30>
10004b68:	46c0      	nop			@ (mov r8, r8)
10004b6a:	b284      	uxth	r4, r0
10004b6c:	6f7b      	ldr	r3, [r7, #116]	@ 0x74
10004b6e:	6f3d      	ldr	r5, [r7, #112]	@ 0x70
10004b70:	041b      	lsls	r3, r3, #16
10004b72:	4323      	orrs	r3, r4
10004b74:	663b      	str	r3, [r7, #96]	@ 0x60
10004b76:	667a      	str	r2, [r7, #100]	@ 0x64
10004b78:	e7ff      	b.n	10004b7a <y64+0x42>
10004b7a:	e7ff      	b.n	10004b7c <y64+0x44>
10004b7c:	46c0      	nop			@ (mov r8, r8)
10004b7e:	2300      	movs	r3, #0
10004b80:	042c      	lsls	r4, r5, #16
10004b82:	0c2d      	lsrs	r5, r5, #16
10004b84:	6f7a      	ldr	r2, [r7, #116]	@ 0x74
10004b86:	6f38      	ldr	r0, [r7, #112]	@ 0x70
10004b88:	1900      	adds	r0, r0, r4
10004b8a:	4169      	adcs	r1, r5
10004b8c:	bcb0      	pop	{r4, r5, r7}
10004b8e:	4770      	bx	lr
10004b90:	d0000000 	.word	0xd0000000

10004b94 <y64_x32>:
10004b94:	b5f0      	push	{r4, r5, r6, r7, lr}
10004b96:	4694      	mov	ip, r2
10004b98:	2500      	movs	r5, #0
10004b9a:	0e14      	lsrs	r4, r2, #24
10004b9c:	d101      	bne.n	10004ba2 <y64_x32+0xe>
10004b9e:	0212      	lsls	r2, r2, #8
10004ba0:	3508      	adds	r5, #8
10004ba2:	0f14      	lsrs	r4, r2, #28
10004ba4:	d101      	bne.n	10004baa <y64_x32+0x16>
10004ba6:	0112      	lsls	r2, r2, #4
10004ba8:	3504      	adds	r5, #4
10004baa:	0f94      	lsrs	r4, r2, #30
10004bac:	d101      	bne.n	10004bb2 <y64_x32+0x1e>
10004bae:	0092      	lsls	r2, r2, #2
10004bb0:	3502      	adds	r5, #2
10004bb2:	0fd4      	lsrs	r4, r2, #31
10004bb4:	d101      	bne.n	10004bba <y64_x32+0x26>
10004bb6:	0052      	lsls	r2, r2, #1
10004bb8:	3501      	adds	r5, #1
10004bba:	0bd4      	lsrs	r4, r2, #15
10004bbc:	3401      	adds	r4, #1
10004bbe:	4f25      	ldr	r7, [pc, #148]	@ (10004c54 <y64_x32+0xc0>)
10004bc0:	667c      	str	r4, [r7, #100]	@ 0x64
10004bc2:	4c25      	ldr	r4, [pc, #148]	@ (10004c58 <y64_x32+0xc4>)
10004bc4:	663c      	str	r4, [r7, #96]	@ 0x60
10004bc6:	0c0e      	lsrs	r6, r1, #16
10004bc8:	b293      	uxth	r3, r2
10004bca:	e7ff      	b.n	10004bcc <y64_x32+0x38>
10004bcc:	e7ff      	b.n	10004bce <y64_x32+0x3a>
10004bce:	e7ff      	b.n	10004bd0 <y64_x32+0x3c>
10004bd0:	6f3c      	ldr	r4, [r7, #112]	@ 0x70
10004bd2:	4366      	muls	r6, r4
10004bd4:	0c36      	lsrs	r6, r6, #16
10004bd6:	0377      	lsls	r7, r6, #13
10004bd8:	46be      	mov	lr, r7
10004bda:	4373      	muls	r3, r6
10004bdc:	0bdf      	lsrs	r7, r3, #15
10004bde:	045b      	lsls	r3, r3, #17
10004be0:	1ac0      	subs	r0, r0, r3
10004be2:	41b9      	sbcs	r1, r7
10004be4:	0c13      	lsrs	r3, r2, #16
10004be6:	4373      	muls	r3, r6
10004be8:	18db      	adds	r3, r3, r3
10004bea:	1ac9      	subs	r1, r1, r3
10004bec:	08ce      	lsrs	r6, r1, #3
10004bee:	4366      	muls	r6, r4
10004bf0:	0c36      	lsrs	r6, r6, #16
10004bf2:	44b6      	add	lr, r6
10004bf4:	b293      	uxth	r3, r2
10004bf6:	4373      	muls	r3, r6
10004bf8:	0f1f      	lsrs	r7, r3, #28
10004bfa:	011b      	lsls	r3, r3, #4
10004bfc:	1ac0      	subs	r0, r0, r3
10004bfe:	41b9      	sbcs	r1, r7
10004c00:	0c13      	lsrs	r3, r2, #16
10004c02:	4373      	muls	r3, r6
10004c04:	0b1f      	lsrs	r7, r3, #12
10004c06:	051b      	lsls	r3, r3, #20
10004c08:	1ac0      	subs	r0, r0, r3
10004c0a:	41b9      	sbcs	r1, r7
10004c0c:	0d86      	lsrs	r6, r0, #22
10004c0e:	028f      	lsls	r7, r1, #10
10004c10:	433e      	orrs	r6, r7
10004c12:	4366      	muls	r6, r4
10004c14:	0c36      	lsrs	r6, r6, #16
10004c16:	2d09      	cmp	r5, #9
10004c18:	db24      	blt.n	10004c64 <last0>
10004c1a:	0a52      	lsrs	r2, r2, #9
10004c1c:	4372      	muls	r2, r6
10004c1e:	1a80      	subs	r0, r0, r2
10004c20:	0377      	lsls	r7, r6, #13
10004c22:	0a46      	lsrs	r6, r0, #9
10004c24:	4366      	muls	r6, r4
10004c26:	0c36      	lsrs	r6, r6, #16
10004c28:	2316      	movs	r3, #22
10004c2a:	1b5b      	subs	r3, r3, r5
10004c2c:	40de      	lsrs	r6, r3
10004c2e:	40df      	lsrs	r7, r3
10004c30:	19bf      	adds	r7, r7, r6
10004c32:	4664      	mov	r4, ip
10004c34:	4366      	muls	r6, r4
10004c36:	1b82      	subs	r2, r0, r6
10004c38:	4670      	mov	r0, lr
10004c3a:	3504      	adds	r5, #4
10004c3c:	3306      	adds	r3, #6
10004c3e:	0001      	movs	r1, r0
10004c40:	40d9      	lsrs	r1, r3
10004c42:	40a8      	lsls	r0, r5
10004c44:	19c0      	adds	r0, r0, r7
10004c46:	d300      	bcc.n	10004c4a <y64_x32+0xb6>
10004c48:	3101      	adds	r1, #1
10004c4a:	42a2      	cmp	r2, r4
10004c4c:	d206      	bcs.n	10004c5c <y64_x32+0xc8>
10004c4e:	2300      	movs	r3, #0
10004c50:	bdf0      	pop	{r4, r5, r6, r7, pc}
10004c52:	0000      	.short	0x0000
10004c54:	d0000000 	.word	0xd0000000
10004c58:	ffffffff 	.word	0xffffffff
10004c5c:	1b12      	subs	r2, r2, r4
10004c5e:	3001      	adds	r0, #1
10004c60:	d3f3      	bcc.n	10004c4a <y64_x32+0xb6>
10004c62:	e7f1      	b.n	10004c48 <y64_x32+0xb4>

10004c64 <last0>:
10004c64:	2709      	movs	r7, #9
10004c66:	1b7f      	subs	r7, r7, r5
10004c68:	40fe      	lsrs	r6, r7
10004c6a:	4664      	mov	r4, ip
10004c6c:	b2a2      	uxth	r2, r4
10004c6e:	4372      	muls	r2, r6
10004c70:	1a80      	subs	r0, r0, r2
10004c72:	d200      	bcs.n	10004c76 <last0+0x12>
10004c74:	3901      	subs	r1, #1
10004c76:	0c22      	lsrs	r2, r4, #16
10004c78:	4372      	muls	r2, r6
10004c7a:	0c13      	lsrs	r3, r2, #16
10004c7c:	0412      	lsls	r2, r2, #16
10004c7e:	1a82      	subs	r2, r0, r2
10004c80:	4199      	sbcs	r1, r3
10004c82:	000b      	movs	r3, r1
10004c84:	4670      	mov	r0, lr
10004c86:	3504      	adds	r5, #4
10004c88:	3713      	adds	r7, #19
10004c8a:	0001      	movs	r1, r0
10004c8c:	40f9      	lsrs	r1, r7
10004c8e:	40a8      	lsls	r0, r5
10004c90:	1980      	adds	r0, r0, r6
10004c92:	d300      	bcc.n	10004c96 <last0+0x32>
10004c94:	3101      	adds	r1, #1
10004c96:	2b00      	cmp	r3, #0
10004c98:	d102      	bne.n	10004ca0 <last0+0x3c>
10004c9a:	42a2      	cmp	r2, r4
10004c9c:	d20a      	bcs.n	10004cb4 <last0+0x50>
10004c9e:	bdf0      	pop	{r4, r5, r6, r7, pc}
10004ca0:	3001      	adds	r0, #1
10004ca2:	d300      	bcc.n	10004ca6 <last0+0x42>
10004ca4:	3101      	adds	r1, #1
10004ca6:	1b12      	subs	r2, r2, r4
10004ca8:	d2fa      	bcs.n	10004ca0 <last0+0x3c>
10004caa:	3b01      	subs	r3, #1
10004cac:	d1f8      	bne.n	10004ca0 <last0+0x3c>
10004cae:	42a2      	cmp	r2, r4
10004cb0:	d200      	bcs.n	10004cb4 <last0+0x50>
10004cb2:	bdf0      	pop	{r4, r5, r6, r7, pc}
10004cb4:	3001      	adds	r0, #1
10004cb6:	d300      	bcc.n	10004cba <last0+0x56>
10004cb8:	3101      	adds	r1, #1
10004cba:	1b12      	subs	r2, r2, r4
10004cbc:	e7f7      	b.n	10004cae <last0+0x4a>

10004cbe <y64_x48>:
10004cbe:	b5f0      	push	{r4, r5, r6, r7, lr}
10004cc0:	0c1c      	lsrs	r4, r3, #16
10004cc2:	d000      	beq.n	10004cc6 <y64_x48+0x8>
10004cc4:	e080      	b.n	10004dc8 <y64_x64>
10004cc6:	b40c      	push	{r2, r3}
10004cc8:	2500      	movs	r5, #0
10004cca:	0a1c      	lsrs	r4, r3, #8
10004ccc:	d104      	bne.n	10004cd8 <y64_x48+0x1a>
10004cce:	021b      	lsls	r3, r3, #8
10004cd0:	0e16      	lsrs	r6, r2, #24
10004cd2:	4333      	orrs	r3, r6
10004cd4:	0212      	lsls	r2, r2, #8
10004cd6:	3508      	adds	r5, #8
10004cd8:	0b1c      	lsrs	r4, r3, #12
10004cda:	d104      	bne.n	10004ce6 <y64_x48+0x28>
10004cdc:	011b      	lsls	r3, r3, #4
10004cde:	0f16      	lsrs	r6, r2, #28
10004ce0:	4333      	orrs	r3, r6
10004ce2:	0112      	lsls	r2, r2, #4
10004ce4:	3504      	adds	r5, #4
10004ce6:	0b9c      	lsrs	r4, r3, #14
10004ce8:	d104      	bne.n	10004cf4 <y64_x48+0x36>
10004cea:	009b      	lsls	r3, r3, #2
10004cec:	0f96      	lsrs	r6, r2, #30
10004cee:	4333      	orrs	r3, r6
10004cf0:	0092      	lsls	r2, r2, #2
10004cf2:	3502      	adds	r5, #2
10004cf4:	0bdc      	lsrs	r4, r3, #15
10004cf6:	d102      	bne.n	10004cfe <y64_x48+0x40>
10004cf8:	1892      	adds	r2, r2, r2
10004cfa:	415b      	adcs	r3, r3
10004cfc:	3501      	adds	r5, #1
10004cfe:	001c      	movs	r4, r3
10004d00:	1897      	adds	r7, r2, r2
10004d02:	4164      	adcs	r4, r4
10004d04:	3401      	adds	r4, #1
10004d06:	4f46      	ldr	r7, [pc, #280]	@ (10004e20 <y64_x64+0x58>)
10004d08:	667c      	str	r4, [r7, #100]	@ 0x64
10004d0a:	4c46      	ldr	r4, [pc, #280]	@ (10004e24 <y64_x64+0x5c>)
10004d0c:	663c      	str	r4, [r7, #96]	@ 0x60
10004d0e:	0c0e      	lsrs	r6, r1, #16
10004d10:	e7ff      	b.n	10004d12 <y64_x48+0x54>
10004d12:	e7ff      	b.n	10004d14 <y64_x48+0x56>
10004d14:	e7ff      	b.n	10004d16 <y64_x48+0x58>
10004d16:	46c0      	nop			@ (mov r8, r8)
10004d18:	6f3c      	ldr	r4, [r7, #112]	@ 0x70
10004d1a:	4366      	muls	r6, r4
10004d1c:	0c36      	lsrs	r6, r6, #16
10004d1e:	0377      	lsls	r7, r6, #13
10004d20:	46be      	mov	lr, r7
10004d22:	b297      	uxth	r7, r2
10004d24:	4377      	muls	r7, r6
10004d26:	1bc0      	subs	r0, r0, r7
10004d28:	d200      	bcs.n	10004d2c <y64_x48+0x6e>
10004d2a:	3901      	subs	r1, #1
10004d2c:	1bc0      	subs	r0, r0, r7
10004d2e:	d200      	bcs.n	10004d32 <y64_x48+0x74>
10004d30:	3901      	subs	r1, #1
10004d32:	b29f      	uxth	r7, r3
10004d34:	4377      	muls	r7, r6
10004d36:	1bc9      	subs	r1, r1, r7
10004d38:	1bc9      	subs	r1, r1, r7
10004d3a:	0c17      	lsrs	r7, r2, #16
10004d3c:	4377      	muls	r7, r6
10004d3e:	047e      	lsls	r6, r7, #17
10004d40:	0bff      	lsrs	r7, r7, #15
10004d42:	1b80      	subs	r0, r0, r6
10004d44:	41b9      	sbcs	r1, r7
10004d46:	08ce      	lsrs	r6, r1, #3
10004d48:	4366      	muls	r6, r4
10004d4a:	0c36      	lsrs	r6, r6, #16
10004d4c:	2d0c      	cmp	r5, #12
10004d4e:	db33      	blt.n	10004db8 <last1>
10004d50:	44b6      	add	lr, r6
10004d52:	0b12      	lsrs	r2, r2, #12
10004d54:	051f      	lsls	r7, r3, #20
10004d56:	433a      	orrs	r2, r7
10004d58:	0b1b      	lsrs	r3, r3, #12
10004d5a:	b297      	uxth	r7, r2
10004d5c:	4377      	muls	r7, r6
10004d5e:	1bc0      	subs	r0, r0, r7
10004d60:	d200      	bcs.n	10004d64 <y64_x48+0xa6>
10004d62:	3901      	subs	r1, #1
10004d64:	b29f      	uxth	r7, r3
10004d66:	4377      	muls	r7, r6
10004d68:	1bc9      	subs	r1, r1, r7
10004d6a:	0c17      	lsrs	r7, r2, #16
10004d6c:	4377      	muls	r7, r6
10004d6e:	043e      	lsls	r6, r7, #16
10004d70:	0c3f      	lsrs	r7, r7, #16
10004d72:	1b80      	subs	r0, r0, r6
10004d74:	41b9      	sbcs	r1, r7
10004d76:	0d86      	lsrs	r6, r0, #22
10004d78:	028f      	lsls	r7, r1, #10
10004d7a:	433e      	orrs	r6, r7
10004d7c:	4366      	muls	r6, r4
10004d7e:	2729      	movs	r7, #41	@ 0x29
10004d80:	1b7f      	subs	r7, r7, r5
10004d82:	40fe      	lsrs	r6, r7
10004d84:	3d0c      	subs	r5, #12
10004d86:	4677      	mov	r7, lr
10004d88:	40af      	lsls	r7, r5
10004d8a:	19bf      	adds	r7, r7, r6
10004d8c:	bc30      	pop	{r4, r5}
10004d8e:	b2a2      	uxth	r2, r4
10004d90:	b2ab      	uxth	r3, r5
10004d92:	4372      	muls	r2, r6
10004d94:	4373      	muls	r3, r6
10004d96:	1a80      	subs	r0, r0, r2
10004d98:	4199      	sbcs	r1, r3
10004d9a:	0c22      	lsrs	r2, r4, #16
10004d9c:	4372      	muls	r2, r6
10004d9e:	0c13      	lsrs	r3, r2, #16
10004da0:	0412      	lsls	r2, r2, #16
10004da2:	1a80      	subs	r0, r0, r2
10004da4:	4199      	sbcs	r1, r3
10004da6:	0002      	movs	r2, r0
10004da8:	000b      	movs	r3, r1
10004daa:	3701      	adds	r7, #1
10004dac:	1b00      	subs	r0, r0, r4
10004dae:	41a9      	sbcs	r1, r5
10004db0:	d2f9      	bcs.n	10004da6 <y64_x48+0xe8>
10004db2:	1e78      	subs	r0, r7, #1
10004db4:	2100      	movs	r1, #0
10004db6:	bdf0      	pop	{r4, r5, r6, r7, pc}

10004db8 <last1>:
10004db8:	270c      	movs	r7, #12
10004dba:	1b7f      	subs	r7, r7, r5
10004dbc:	40fe      	lsrs	r6, r7
10004dbe:	4677      	mov	r7, lr
10004dc0:	0b7f      	lsrs	r7, r7, #13
10004dc2:	40af      	lsls	r7, r5
10004dc4:	19ff      	adds	r7, r7, r7
10004dc6:	e7e0      	b.n	10004d8a <y64_x48+0xcc>

10004dc8 <y64_x64>:
10004dc8:	2400      	movs	r4, #0
10004dca:	1c5d      	adds	r5, r3, #1
10004dcc:	d007      	beq.n	10004dde <y64_x64+0x16>
10004dce:	4f14      	ldr	r7, [pc, #80]	@ (10004e20 <y64_x64+0x58>)
10004dd0:	667d      	str	r5, [r7, #100]	@ 0x64
10004dd2:	6639      	str	r1, [r7, #96]	@ 0x60
10004dd4:	e7ff      	b.n	10004dd6 <y64_x64+0xe>
10004dd6:	e7ff      	b.n	10004dd8 <y64_x64+0x10>
10004dd8:	e7ff      	b.n	10004dda <y64_x64+0x12>
10004dda:	e7ff      	b.n	10004ddc <y64_x64+0x14>
10004ddc:	6f3c      	ldr	r4, [r7, #112]	@ 0x70
10004dde:	b295      	uxth	r5, r2
10004de0:	b29e      	uxth	r6, r3
10004de2:	4365      	muls	r5, r4
10004de4:	4366      	muls	r6, r4
10004de6:	1b40      	subs	r0, r0, r5
10004de8:	41b1      	sbcs	r1, r6
10004dea:	0c15      	lsrs	r5, r2, #16
10004dec:	0c1e      	lsrs	r6, r3, #16
10004dee:	4365      	muls	r5, r4
10004df0:	4366      	muls	r6, r4
10004df2:	0436      	lsls	r6, r6, #16
10004df4:	0c2f      	lsrs	r7, r5, #16
10004df6:	433e      	orrs	r6, r7
10004df8:	042d      	lsls	r5, r5, #16
10004dfa:	1b40      	subs	r0, r0, r5
10004dfc:	41b1      	sbcs	r1, r6
10004dfe:	4299      	cmp	r1, r3
10004e00:	d204      	bcs.n	10004e0c <y64_x64+0x44>
10004e02:	0002      	movs	r2, r0
10004e04:	000b      	movs	r3, r1
10004e06:	0020      	movs	r0, r4
10004e08:	2100      	movs	r1, #0
10004e0a:	bdf0      	pop	{r4, r5, r6, r7, pc}
10004e0c:	d101      	bne.n	10004e12 <y64_x64+0x4a>
10004e0e:	4290      	cmp	r0, r2
10004e10:	d3f7      	bcc.n	10004e02 <y64_x64+0x3a>
10004e12:	1a80      	subs	r0, r0, r2
10004e14:	4199      	sbcs	r1, r3
10004e16:	3401      	adds	r4, #1
10004e18:	4299      	cmp	r1, r3
10004e1a:	d3f2      	bcc.n	10004e02 <y64_x64+0x3a>
10004e1c:	e7f6      	b.n	10004e0c <y64_x64+0x44>
10004e1e:	0000      	.short	0x0000
10004e20:	d0000000 	.word	0xd0000000
10004e24:	ffffffff 	.word	0xffffffff

10004e28 <__wrap___aeabi_drsub>:
10004e28:	4048      	eors	r0, r1
10004e2a:	4041      	eors	r1, r0
10004e2c:	4048      	eors	r0, r1

10004e2e <__wrap___aeabi_dsub>:
10004e2e:	b418      	push	{r3, r4}
10004e30:	4b1b      	ldr	r3, [pc, #108]	@ (10004ea0 <__wrap___aeabi_dmul+0x12>)
10004e32:	685b      	ldr	r3, [r3, #4]
10004e34:	46fc      	mov	ip, pc
10004e36:	9301      	str	r3, [sp, #4]
10004e38:	bd08      	pop	{r3, pc}
10004e3a:	df04      	.short	0xdf04
10004e3c:	100051c7 	.word	0x100051c7

10004e40 <__wrap___aeabi_dadd>:
10004e40:	b418      	push	{r3, r4}
10004e42:	4b17      	ldr	r3, [pc, #92]	@ (10004ea0 <__wrap___aeabi_dmul+0x12>)
10004e44:	681b      	ldr	r3, [r3, #0]
10004e46:	46fc      	mov	ip, pc
10004e48:	9301      	str	r3, [sp, #4]
10004e4a:	bd08      	pop	{r3, pc}
10004e4c:	51d1df00 	.word	0x51d1df00
10004e50:	1000      	.short	0x1000

10004e52 <__wrap___aeabi_ddiv>:
10004e52:	4694      	mov	ip, r2
10004e54:	4a13      	ldr	r2, [pc, #76]	@ (10004ea4 <__wrap___aeabi_dmul+0x16>)
10004e56:	6f92      	ldr	r2, [r2, #120]	@ 0x78
10004e58:	0892      	lsrs	r2, r2, #2
10004e5a:	d209      	bcs.n	10004e70 <ddiv_save_state>
10004e5c:	4662      	mov	r2, ip

10004e5e <ddiv_shim_call>:
10004e5e:	b418      	push	{r3, r4}
10004e60:	4b0f      	ldr	r3, [pc, #60]	@ (10004ea0 <__wrap___aeabi_dmul+0x12>)
10004e62:	68db      	ldr	r3, [r3, #12]
10004e64:	46fc      	mov	ip, pc
10004e66:	9301      	str	r3, [sp, #4]
10004e68:	bd08      	pop	{r3, pc}
10004e6a:	df0c      	.short	0xdf0c
10004e6c:	10005489 	.word	0x10005489

10004e70 <ddiv_save_state>:
10004e70:	4a0c      	ldr	r2, [pc, #48]	@ (10004ea4 <__wrap___aeabi_dmul+0x16>)
10004e72:	b5f0      	push	{r4, r5, r6, r7, lr}
10004e74:	6e14      	ldr	r4, [r2, #96]	@ 0x60
10004e76:	6e55      	ldr	r5, [r2, #100]	@ 0x64
10004e78:	6f57      	ldr	r7, [r2, #116]	@ 0x74
10004e7a:	6f16      	ldr	r6, [r2, #112]	@ 0x70
10004e7c:	4662      	mov	r2, ip
10004e7e:	f7ff ffee 	bl	10004e5e <ddiv_shim_call>
10004e82:	4a08      	ldr	r2, [pc, #32]	@ (10004ea4 <__wrap___aeabi_dmul+0x16>)
10004e84:	6614      	str	r4, [r2, #96]	@ 0x60
10004e86:	6655      	str	r5, [r2, #100]	@ 0x64
10004e88:	6757      	str	r7, [r2, #116]	@ 0x74
10004e8a:	6716      	str	r6, [r2, #112]	@ 0x70
10004e8c:	bdf0      	pop	{r4, r5, r6, r7, pc}

10004e8e <__wrap___aeabi_dmul>:
10004e8e:	b418      	push	{r3, r4}
10004e90:	4b03      	ldr	r3, [pc, #12]	@ (10004ea0 <__wrap___aeabi_dmul+0x12>)
10004e92:	689b      	ldr	r3, [r3, #8]
10004e94:	46fc      	mov	ip, pc
10004e96:	9301      	str	r3, [sp, #4]
10004e98:	bd08      	pop	{r3, pc}
10004e9a:	df08      	.short	0xdf08
10004e9c:	1000532d 	.word	0x1000532d
10004ea0:	20001a48 	.word	0x20001a48
10004ea4:	d0000000 	.word	0xd0000000

10004ea8 <__wrap___aeabi_cdrcmple>:
10004ea8:	b5ff      	push	{r0, r1, r2, r3, r4, r5, r6, r7, lr}
10004eaa:	4050      	eors	r0, r2
10004eac:	4042      	eors	r2, r0
10004eae:	4050      	eors	r0, r2
10004eb0:	4059      	eors	r1, r3
10004eb2:	404b      	eors	r3, r1
10004eb4:	4059      	eors	r1, r3
10004eb6:	e000      	b.n	10004eba <__aeabi_dfcmple_guts>

10004eb8 <__wrap___aeabi_cdcmpeq>:
10004eb8:	b5ff      	push	{r0, r1, r2, r3, r4, r5, r6, r7, lr}

10004eba <__aeabi_dfcmple_guts>:
10004eba:	4f15      	ldr	r7, [pc, #84]	@ (10004f10 <__aeabi_dfcmple_guts+0x56>)
10004ebc:	004c      	lsls	r4, r1, #1
10004ebe:	0d64      	lsrs	r4, r4, #21
10004ec0:	d003      	beq.n	10004eca <__aeabi_dfcmple_guts+0x10>
10004ec2:	42bc      	cmp	r4, r7
10004ec4:	d104      	bne.n	10004ed0 <__aeabi_dfcmple_guts+0x16>
10004ec6:	030c      	lsls	r4, r1, #12
10004ec8:	d814      	bhi.n	10004ef4 <__aeabi_dfcmple_guts+0x3a>
10004eca:	2000      	movs	r0, #0
10004ecc:	0d09      	lsrs	r1, r1, #20
10004ece:	0509      	lsls	r1, r1, #20
10004ed0:	005c      	lsls	r4, r3, #1
10004ed2:	0d64      	lsrs	r4, r4, #21
10004ed4:	d003      	beq.n	10004ede <__aeabi_dfcmple_guts+0x24>
10004ed6:	42bc      	cmp	r4, r7
10004ed8:	d104      	bne.n	10004ee4 <__aeabi_dfcmple_guts+0x2a>
10004eda:	031c      	lsls	r4, r3, #12
10004edc:	d80a      	bhi.n	10004ef4 <__aeabi_dfcmple_guts+0x3a>
10004ede:	2200      	movs	r2, #0
10004ee0:	0d1b      	lsrs	r3, r3, #20
10004ee2:	051b      	lsls	r3, r3, #20
10004ee4:	2601      	movs	r6, #1
10004ee6:	404b      	eors	r3, r1
10004ee8:	d409      	bmi.n	10004efe <__aeabi_dfcmple_guts+0x44>
10004eea:	404b      	eors	r3, r1
10004eec:	d503      	bpl.n	10004ef6 <__aeabi_dfcmple_guts+0x3c>
10004eee:	428b      	cmp	r3, r1
10004ef0:	d100      	bne.n	10004ef4 <__aeabi_dfcmple_guts+0x3a>
10004ef2:	4282      	cmp	r2, r0
10004ef4:	bdff      	pop	{r0, r1, r2, r3, r4, r5, r6, r7, pc}
10004ef6:	4299      	cmp	r1, r3
10004ef8:	d1fc      	bne.n	10004ef4 <__aeabi_dfcmple_guts+0x3a>
10004efa:	4290      	cmp	r0, r2
10004efc:	bdff      	pop	{r0, r1, r2, r3, r4, r5, r6, r7, pc}
10004efe:	430b      	orrs	r3, r1
10004f00:	18db      	adds	r3, r3, r3
10004f02:	4303      	orrs	r3, r0
10004f04:	4313      	orrs	r3, r2
10004f06:	d0f5      	beq.n	10004ef4 <__aeabi_dfcmple_guts+0x3a>
10004f08:	43c9      	mvns	r1, r1
10004f0a:	1849      	adds	r1, r1, r1
10004f0c:	bdff      	pop	{r0, r1, r2, r3, r4, r5, r6, r7, pc}
10004f0e:	0000      	.short	0x0000
10004f10:	000007ff 	.word	0x000007ff

10004f14 <__wrap___aeabi_dcmpeq>:
10004f14:	b500      	push	{lr}
10004f16:	f7ff ffcf 	bl	10004eb8 <__wrap___aeabi_cdcmpeq>
10004f1a:	d001      	beq.n	10004f20 <__wrap___aeabi_dcmpeq+0xc>
10004f1c:	2000      	movs	r0, #0
10004f1e:	bd00      	pop	{pc}
10004f20:	2001      	movs	r0, #1
10004f22:	bd00      	pop	{pc}

10004f24 <__wrap___aeabi_dcmplt>:
10004f24:	b500      	push	{lr}
10004f26:	f7ff ffc7 	bl	10004eb8 <__wrap___aeabi_cdcmpeq>
10004f2a:	4180      	sbcs	r0, r0
10004f2c:	bd00      	pop	{pc}
10004f2e:	46c0      	nop			@ (mov r8, r8)

10004f30 <__wrap___aeabi_dcmple>:
10004f30:	b500      	push	{lr}
10004f32:	f7ff ffc1 	bl	10004eb8 <__wrap___aeabi_cdcmpeq>
10004f36:	d901      	bls.n	10004f3c <__wrap___aeabi_dcmple+0xc>
10004f38:	2000      	movs	r0, #0
10004f3a:	bd00      	pop	{pc}
10004f3c:	2001      	movs	r0, #1
10004f3e:	bd00      	pop	{pc}

10004f40 <__wrap___aeabi_dcmpgt>:
10004f40:	b500      	push	{lr}
10004f42:	f7ff ffb1 	bl	10004ea8 <__wrap___aeabi_cdrcmple>
10004f46:	4180      	sbcs	r0, r0
10004f48:	bd00      	pop	{pc}

10004f4a <__wrap___aeabi_dcmpun>:
10004f4a:	2001      	movs	r0, #1
10004f4c:	0540      	lsls	r0, r0, #21
10004f4e:	004a      	lsls	r2, r1, #1
10004f50:	1812      	adds	r2, r2, r0
10004f52:	d804      	bhi.n	10004f5e <__wrap___aeabi_dcmpun+0x14>
10004f54:	005a      	lsls	r2, r3, #1
10004f56:	1812      	adds	r2, r2, r0
10004f58:	d801      	bhi.n	10004f5e <__wrap___aeabi_dcmpun+0x14>
10004f5a:	2000      	movs	r0, #0
10004f5c:	4770      	bx	lr
10004f5e:	2001      	movs	r0, #1
10004f60:	4770      	bx	lr
	...

10004f64 <__wrap___aeabi_ui2d>:
10004f64:	2100      	movs	r1, #0
10004f66:	2800      	cmp	r0, #0
10004f68:	d105      	bne.n	10004f76 <__wrap___aeabi_i2d+0xa>
10004f6a:	4770      	bx	lr

10004f6c <__wrap___aeabi_i2d>:
10004f6c:	17c1      	asrs	r1, r0, #31
10004f6e:	4048      	eors	r0, r1
10004f70:	1a40      	subs	r0, r0, r1
10004f72:	d0fa      	beq.n	10004f6a <__wrap___aeabi_ui2d+0x6>
10004f74:	07c9      	lsls	r1, r1, #31
10004f76:	b513      	push	{r0, r1, r4, lr}
10004f78:	4b06      	ldr	r3, [pc, #24]	@ (10004f94 <__wrap___aeabi_i2d+0x28>)
10004f7a:	681b      	ldr	r3, [r3, #0]
10004f7c:	4798      	blx	r3
10004f7e:	bc0c      	pop	{r2, r3}
10004f80:	1c44      	adds	r4, r0, #1
10004f82:	40a2      	lsls	r2, r4
10004f84:	0510      	lsls	r0, r2, #20
10004f86:	0b12      	lsrs	r2, r2, #12
10004f88:	4903      	ldr	r1, [pc, #12]	@ (10004f98 <__wrap___aeabi_i2d+0x2c>)
10004f8a:	1b09      	subs	r1, r1, r4
10004f8c:	0509      	lsls	r1, r1, #20
10004f8e:	4319      	orrs	r1, r3
10004f90:	4311      	orrs	r1, r2
10004f92:	bd10      	pop	{r4, pc}
10004f94:	200051bc 	.word	0x200051bc
10004f98:	0000041f 	.word	0x0000041f

10004f9c <__wrap___aeabi_d2iz>:
10004f9c:	b510      	push	{r4, lr}
10004f9e:	004c      	lsls	r4, r1, #1
10004fa0:	0d62      	lsrs	r2, r4, #21
10004fa2:	2380      	movs	r3, #128	@ 0x80
10004fa4:	18d2      	adds	r2, r2, r3
10004fa6:	00db      	lsls	r3, r3, #3
10004fa8:	1ad2      	subs	r2, r2, r3
10004faa:	055b      	lsls	r3, r3, #21
10004fac:	2a7e      	cmp	r2, #126	@ 0x7e
10004fae:	dd10      	ble.n	10004fd2 <__wrap___aeabi_d2iz+0x36>
10004fb0:	3a9e      	subs	r2, #158	@ 0x9e
10004fb2:	da13      	bge.n	10004fdc <__wrap___aeabi_d2iz+0x40>
10004fb4:	17cc      	asrs	r4, r1, #31
10004fb6:	0309      	lsls	r1, r1, #12
10004fb8:	0849      	lsrs	r1, r1, #1
10004fba:	4319      	orrs	r1, r3
10004fbc:	4252      	negs	r2, r2
10004fbe:	40d1      	lsrs	r1, r2
10004fc0:	0064      	lsls	r4, r4, #1
10004fc2:	3401      	adds	r4, #1
10004fc4:	3215      	adds	r2, #21
10004fc6:	2a20      	cmp	r2, #32
10004fc8:	da05      	bge.n	10004fd6 <__wrap___aeabi_d2iz+0x3a>
10004fca:	40d0      	lsrs	r0, r2
10004fcc:	4308      	orrs	r0, r1
10004fce:	4360      	muls	r0, r4
10004fd0:	bd10      	pop	{r4, pc}
10004fd2:	2000      	movs	r0, #0
10004fd4:	bd10      	pop	{r4, pc}
10004fd6:	4608      	mov	r0, r1
10004fd8:	4360      	muls	r0, r4
10004fda:	bd10      	pop	{r4, pc}
10004fdc:	0fc8      	lsrs	r0, r1, #31
10004fde:	18c0      	adds	r0, r0, r3
10004fe0:	3801      	subs	r0, #1
10004fe2:	bd10      	pop	{r4, pc}

10004fe4 <__wrap___aeabi_d2lz>:
10004fe4:	42c9      	cmn	r1, r1
10004fe6:	d311      	bcc.n	1000500c <double2int64>
10004fe8:	b500      	push	{lr}
10004fea:	0049      	lsls	r1, r1, #1
10004fec:	0849      	lsrs	r1, r1, #1
10004fee:	2200      	movs	r2, #0
10004ff0:	f000 f818 	bl	10005024 <double2ufix64>
10004ff4:	2900      	cmp	r1, #0
10004ff6:	d404      	bmi.n	10005002 <__wrap___aeabi_d2lz+0x1e>
10004ff8:	2200      	movs	r2, #0
10004ffa:	4240      	negs	r0, r0
10004ffc:	418a      	sbcs	r2, r1
10004ffe:	4611      	mov	r1, r2
10005000:	bd00      	pop	{pc}
10005002:	2180      	movs	r1, #128	@ 0x80
10005004:	0609      	lsls	r1, r1, #24
10005006:	2000      	movs	r0, #0
10005008:	bd00      	pop	{pc}
	...

1000500c <double2int64>:
1000500c:	b418      	push	{r3, r4}
1000500e:	4b04      	ldr	r3, [pc, #16]	@ (10005020 <double2int64+0x14>)
10005010:	6edb      	ldr	r3, [r3, #108]	@ 0x6c
10005012:	46fc      	mov	ip, pc
10005014:	9301      	str	r3, [sp, #4]
10005016:	bd08      	pop	{r3, pc}
10005018:	5639df6c 	.word	0x5639df6c
1000501c:	00001000 	.word	0x00001000
10005020:	20001a48 	.word	0x20001a48

10005024 <double2ufix64>:
10005024:	b418      	push	{r3, r4}
10005026:	4b04      	ldr	r3, [pc, #16]	@ (10005038 <double2ufix64+0x14>)
10005028:	6f9b      	ldr	r3, [r3, #120]	@ 0x78
1000502a:	46fc      	mov	ip, pc
1000502c:	9301      	str	r3, [sp, #4]
1000502e:	bd08      	pop	{r3, pc}
10005030:	5657df78 	.word	0x5657df78
10005034:	00001000 	.word	0x00001000
10005038:	20001a48 	.word	0x20001a48

1000503c <__wrap___aeabi_d2f>:
1000503c:	b418      	push	{r3, r4}
1000503e:	4b04      	ldr	r3, [pc, #16]	@ (10005050 <__wrap___aeabi_d2f+0x14>)
10005040:	6fdb      	ldr	r3, [r3, #124]	@ 0x7c
10005042:	46fc      	mov	ip, pc
10005044:	9301      	str	r3, [sp, #4]
10005046:	bd08      	pop	{r3, pc}
10005048:	56c5df7c 	.word	0x56c5df7c
1000504c:	00001000 	.word	0x00001000
10005050:	20001a48 	.word	0x20001a48

10005054 <__aeabi_double_init>:
10005054:	2313      	movs	r3, #19
10005056:	b570      	push	{r4, r5, r6, lr}
10005058:	781d      	ldrb	r5, [r3, #0]
1000505a:	2d01      	cmp	r5, #1
1000505c:	d019      	beq.n	10005092 <__aeabi_double_init+0x3e>
1000505e:	dd14      	ble.n	1000508a <__aeabi_double_init+0x36>
10005060:	481f      	ldr	r0, [pc, #124]	@ (100050e0 <__aeabi_double_init+0x8c>)
10005062:	f7ff fb4f 	bl	10004704 <rom_data_lookup>
10005066:	0006      	movs	r6, r0
10005068:	481e      	ldr	r0, [pc, #120]	@ (100050e4 <__aeabi_double_init+0x90>)
1000506a:	f7ff fb4b 	bl	10004704 <rom_data_lookup>
1000506e:	4c1e      	ldr	r4, [pc, #120]	@ (100050e8 <__aeabi_double_init+0x94>)
10005070:	2280      	movs	r2, #128	@ 0x80
10005072:	0031      	movs	r1, r6
10005074:	0020      	movs	r0, r4
10005076:	f000 fd13 	bl	10005aa0 <__wrap___aeabi_memcpy>
1000507a:	2d02      	cmp	r5, #2
1000507c:	d02d      	beq.n	100050da <__aeabi_double_init+0x86>
1000507e:	481b      	ldr	r0, [pc, #108]	@ (100050ec <__aeabi_double_init+0x98>)
10005080:	f7ff fb38 	bl	100046f4 <rom_func_lookup>
10005084:	4b1a      	ldr	r3, [pc, #104]	@ (100050f0 <__aeabi_double_init+0x9c>)
10005086:	6018      	str	r0, [r3, #0]
10005088:	bd70      	pop	{r4, r5, r6, pc}
1000508a:	4b1a      	ldr	r3, [pc, #104]	@ (100050f4 <__aeabi_double_init+0xa0>)
1000508c:	4c16      	ldr	r4, [pc, #88]	@ (100050e8 <__aeabi_double_init+0x94>)
1000508e:	64a3      	str	r3, [r4, #72]	@ 0x48
10005090:	e7f5      	b.n	1000507e <__aeabi_double_init+0x2a>
10005092:	4b18      	ldr	r3, [pc, #96]	@ (100050f4 <__aeabi_double_init+0xa0>)
10005094:	4c14      	ldr	r4, [pc, #80]	@ (100050e8 <__aeabi_double_init+0x94>)
10005096:	6023      	str	r3, [r4, #0]
10005098:	6063      	str	r3, [r4, #4]
1000509a:	60a3      	str	r3, [r4, #8]
1000509c:	60e3      	str	r3, [r4, #12]
1000509e:	6123      	str	r3, [r4, #16]
100050a0:	6163      	str	r3, [r4, #20]
100050a2:	61a3      	str	r3, [r4, #24]
100050a4:	61e3      	str	r3, [r4, #28]
100050a6:	6223      	str	r3, [r4, #32]
100050a8:	6263      	str	r3, [r4, #36]	@ 0x24
100050aa:	62a3      	str	r3, [r4, #40]	@ 0x28
100050ac:	62e3      	str	r3, [r4, #44]	@ 0x2c
100050ae:	6323      	str	r3, [r4, #48]	@ 0x30
100050b0:	6363      	str	r3, [r4, #52]	@ 0x34
100050b2:	63a3      	str	r3, [r4, #56]	@ 0x38
100050b4:	63e3      	str	r3, [r4, #60]	@ 0x3c
100050b6:	6423      	str	r3, [r4, #64]	@ 0x40
100050b8:	6463      	str	r3, [r4, #68]	@ 0x44
100050ba:	64a3      	str	r3, [r4, #72]	@ 0x48
100050bc:	64e3      	str	r3, [r4, #76]	@ 0x4c
100050be:	6523      	str	r3, [r4, #80]	@ 0x50
100050c0:	6563      	str	r3, [r4, #84]	@ 0x54
100050c2:	65a3      	str	r3, [r4, #88]	@ 0x58
100050c4:	65e3      	str	r3, [r4, #92]	@ 0x5c
100050c6:	6623      	str	r3, [r4, #96]	@ 0x60
100050c8:	6663      	str	r3, [r4, #100]	@ 0x64
100050ca:	66a3      	str	r3, [r4, #104]	@ 0x68
100050cc:	66e3      	str	r3, [r4, #108]	@ 0x6c
100050ce:	6723      	str	r3, [r4, #112]	@ 0x70
100050d0:	6763      	str	r3, [r4, #116]	@ 0x74
100050d2:	67a3      	str	r3, [r4, #120]	@ 0x78
100050d4:	67e3      	str	r3, [r4, #124]	@ 0x7c
100050d6:	64a3      	str	r3, [r4, #72]	@ 0x48
100050d8:	e7d1      	b.n	1000507e <__aeabi_double_init+0x2a>
100050da:	4b06      	ldr	r3, [pc, #24]	@ (100050f4 <__aeabi_double_init+0xa0>)
100050dc:	64a3      	str	r3, [r4, #72]	@ 0x48
100050de:	e7ce      	b.n	1000507e <__aeabi_double_init+0x2a>
100050e0:	00004453 	.word	0x00004453
100050e4:	00004653 	.word	0x00004653
100050e8:	20001a48 	.word	0x20001a48
100050ec:	0000334c 	.word	0x0000334c
100050f0:	200051bc 	.word	0x200051bc
100050f4:	10005195 	.word	0x10005195

100050f8 <__wrap_round>:
100050f8:	4a24      	ldr	r2, [pc, #144]	@ (1000518c <__wrap_round+0x94>)
100050fa:	004b      	lsls	r3, r1, #1
100050fc:	4694      	mov	ip, r2
100050fe:	0d5b      	lsrs	r3, r3, #21
10005100:	4463      	add	r3, ip
10005102:	b5f0      	push	{r4, r5, r6, r7, lr}
10005104:	0004      	movs	r4, r0
10005106:	000d      	movs	r5, r1
10005108:	1c5a      	adds	r2, r3, #1
1000510a:	db21      	blt.n	10005150 <__wrap_round+0x58>
1000510c:	1c5a      	adds	r2, r3, #1
1000510e:	d035      	beq.n	1000517c <__wrap_round+0x84>
10005110:	2b34      	cmp	r3, #52	@ 0x34
10005112:	da1c      	bge.n	1000514e <__wrap_round+0x56>
10005114:	2633      	movs	r6, #51	@ 0x33
10005116:	1af6      	subs	r6, r6, r3
10005118:	0037      	movs	r7, r6
1000511a:	3f20      	subs	r7, #32
1000511c:	d41c      	bmi.n	10005158 <__wrap_round+0x60>
1000511e:	2101      	movs	r1, #1
10005120:	40b9      	lsls	r1, r7
10005122:	000b      	movs	r3, r1
10005124:	2101      	movs	r1, #1
10005126:	40b1      	lsls	r1, r6
10005128:	000a      	movs	r2, r1
1000512a:	1912      	adds	r2, r2, r4
1000512c:	416b      	adcs	r3, r5
1000512e:	2f00      	cmp	r7, #0
10005130:	db1e      	blt.n	10005170 <__wrap_round+0x78>
10005132:	2402      	movs	r4, #2
10005134:	40bc      	lsls	r4, r7
10005136:	0021      	movs	r1, r4
10005138:	2402      	movs	r4, #2
1000513a:	40b4      	lsls	r4, r6
1000513c:	0020      	movs	r0, r4
1000513e:	0016      	movs	r6, r2
10005140:	2500      	movs	r5, #0
10005142:	4244      	negs	r4, r0
10005144:	418d      	sbcs	r5, r1
10005146:	4026      	ands	r6, r4
10005148:	402b      	ands	r3, r5
1000514a:	0030      	movs	r0, r6
1000514c:	0019      	movs	r1, r3
1000514e:	bdf0      	pop	{r4, r5, r6, r7, pc}
10005150:	0fcb      	lsrs	r3, r1, #31
10005152:	2000      	movs	r0, #0
10005154:	07d9      	lsls	r1, r3, #31
10005156:	e7fa      	b.n	1000514e <__wrap_round+0x56>
10005158:	2120      	movs	r1, #32
1000515a:	2001      	movs	r0, #1
1000515c:	1b89      	subs	r1, r1, r6
1000515e:	40c8      	lsrs	r0, r1
10005160:	2101      	movs	r1, #1
10005162:	40b1      	lsls	r1, r6
10005164:	0003      	movs	r3, r0
10005166:	000a      	movs	r2, r1
10005168:	1912      	adds	r2, r2, r4
1000516a:	416b      	adcs	r3, r5
1000516c:	2f00      	cmp	r7, #0
1000516e:	dae0      	bge.n	10005132 <__wrap_round+0x3a>
10005170:	2420      	movs	r4, #32
10005172:	2502      	movs	r5, #2
10005174:	1ba4      	subs	r4, r4, r6
10005176:	40e5      	lsrs	r5, r4
10005178:	0029      	movs	r1, r5
1000517a:	e7dd      	b.n	10005138 <__wrap_round+0x40>
1000517c:	0fcb      	lsrs	r3, r1, #31
1000517e:	4a04      	ldr	r2, [pc, #16]	@ (10005190 <__wrap_round+0x98>)
10005180:	07db      	lsls	r3, r3, #31
10005182:	431a      	orrs	r2, r3
10005184:	2000      	movs	r0, #0
10005186:	0011      	movs	r1, r2
10005188:	e7e1      	b.n	1000514e <__wrap_round+0x56>
1000518a:	46c0      	nop			@ (mov r8, r8)
1000518c:	fffffc01 	.word	0xfffffc01
10005190:	3ff00000 	.word	0x3ff00000

10005194 <double_table_shim_on_use_helper>:
10005194:	b507      	push	{r0, r1, r2, lr}
10005196:	4660      	mov	r0, ip
10005198:	8801      	ldrh	r1, [r0, #0]
1000519a:	0a0a      	lsrs	r2, r1, #8
1000519c:	3002      	adds	r0, #2
1000519e:	2adf      	cmp	r2, #223	@ 0xdf
100051a0:	d1fa      	bne.n	10005198 <double_table_shim_on_use_helper+0x4>
100051a2:	b2c9      	uxtb	r1, r1
100051a4:	0882      	lsrs	r2, r0, #2
100051a6:	d304      	bcc.n	100051b2 <double_table_shim_on_use_helper+0x1e>
100051a8:	8802      	ldrh	r2, [r0, #0]
100051aa:	8840      	ldrh	r0, [r0, #2]
100051ac:	0400      	lsls	r0, r0, #16
100051ae:	4310      	orrs	r0, r2
100051b0:	e000      	b.n	100051b4 <double_table_shim_on_use_helper+0x20>
100051b2:	6800      	ldr	r0, [r0, #0]
100051b4:	4a01      	ldr	r2, [pc, #4]	@ (100051bc <double_table_shim_on_use_helper+0x28>)
100051b6:	5050      	str	r0, [r2, r1]
100051b8:	9003      	str	r0, [sp, #12]
100051ba:	bd07      	pop	{r0, r1, r2, pc}
100051bc:	20001a48 	.word	0x20001a48

100051c0 <drsub_shim>:
100051c0:	b40f      	push	{r0, r1, r2, r3}
100051c2:	bc03      	pop	{r0, r1}
100051c4:	bc0c      	pop	{r2, r3}

100051c6 <dsub_shim>:
100051c6:	b5f0      	push	{r4, r5, r6, r7, lr}
100051c8:	2401      	movs	r4, #1
100051ca:	07e4      	lsls	r4, r4, #31
100051cc:	4063      	eors	r3, r4
100051ce:	e000      	b.n	100051d2 <da_entry>

100051d0 <dadd_shim>:
100051d0:	b5f0      	push	{r4, r5, r6, r7, lr}

100051d2 <da_entry>:
100051d2:	0d0c      	lsrs	r4, r1, #20
100051d4:	0fcf      	lsrs	r7, r1, #31
100051d6:	1e66      	subs	r6, r4, #1
100051d8:	0536      	lsls	r6, r6, #20
100051da:	1b89      	subs	r1, r1, r6
100051dc:	0564      	lsls	r4, r4, #21
100051de:	d303      	bcc.n	100051e8 <l8_1>
100051e0:	43c9      	mvns	r1, r1
100051e2:	4240      	negs	r0, r0
100051e4:	d300      	bcc.n	100051e8 <l8_1>
100051e6:	3101      	adds	r1, #1

100051e8 <l8_1>:
100051e8:	0d64      	lsrs	r4, r4, #21
100051ea:	d003      	beq.n	100051f4 <l8_2>
100051ec:	1c66      	adds	r6, r4, #1
100051ee:	0af6      	lsrs	r6, r6, #11
100051f0:	d007      	beq.n	10005202 <l8_3>
100051f2:	1be4      	subs	r4, r4, r7

100051f4 <l8_2>:
100051f4:	2000      	movs	r0, #0
100051f6:	007f      	lsls	r7, r7, #1
100051f8:	1c79      	adds	r1, r7, #1
100051fa:	0789      	lsls	r1, r1, #30
100051fc:	1289      	asrs	r1, r1, #10
100051fe:	3c80      	subs	r4, #128	@ 0x80
10005200:	0324      	lsls	r4, r4, #12

10005202 <l8_3>:
10005202:	0d1d      	lsrs	r5, r3, #20
10005204:	0fdf      	lsrs	r7, r3, #31
10005206:	1e6e      	subs	r6, r5, #1
10005208:	0536      	lsls	r6, r6, #20
1000520a:	1b9b      	subs	r3, r3, r6
1000520c:	056d      	lsls	r5, r5, #21
1000520e:	d303      	bcc.n	10005218 <l9_1>
10005210:	43db      	mvns	r3, r3
10005212:	4252      	negs	r2, r2
10005214:	d300      	bcc.n	10005218 <l9_1>
10005216:	3301      	adds	r3, #1

10005218 <l9_1>:
10005218:	0d6d      	lsrs	r5, r5, #21
1000521a:	d003      	beq.n	10005224 <l9_2>
1000521c:	1c6e      	adds	r6, r5, #1
1000521e:	0af6      	lsrs	r6, r6, #11
10005220:	d007      	beq.n	10005232 <l9_3>
10005222:	1bed      	subs	r5, r5, r7

10005224 <l9_2>:
10005224:	2200      	movs	r2, #0
10005226:	007f      	lsls	r7, r7, #1
10005228:	1c7b      	adds	r3, r7, #1
1000522a:	079b      	lsls	r3, r3, #30
1000522c:	129b      	asrs	r3, r3, #10
1000522e:	3d80      	subs	r5, #128	@ 0x80
10005230:	032d      	lsls	r5, r5, #12

10005232 <l9_3>:
10005232:	1b2f      	subs	r7, r5, r4
10005234:	1b66      	subs	r6, r4, r5
10005236:	d458      	bmi.n	100052ea <da_ygtx>
10005238:	46a4      	mov	ip, r4
1000523a:	2e20      	cmp	r6, #32
1000523c:	da46      	bge.n	100052cc <da_xrgty>
1000523e:	3720      	adds	r7, #32
10005240:	0014      	movs	r4, r2
10005242:	40bc      	lsls	r4, r7

10005244 <da_xgty0>:
10005244:	001d      	movs	r5, r3
10005246:	40bd      	lsls	r5, r7
10005248:	40f2      	lsrs	r2, r6
1000524a:	4133      	asrs	r3, r6
1000524c:	432a      	orrs	r2, r5

1000524e <da_add>:
1000524e:	1880      	adds	r0, r0, r2
10005250:	4159      	adcs	r1, r3

10005252 <da_pack>:
10005252:	0fcb      	lsrs	r3, r1, #31
10005254:	d005      	beq.n	10005262 <da_pack+0x10>
10005256:	43c9      	mvns	r1, r1
10005258:	43c0      	mvns	r0, r0
1000525a:	2200      	movs	r2, #0
1000525c:	4264      	negs	r4, r4
1000525e:	4150      	adcs	r0, r2
10005260:	4151      	adcs	r1, r2
10005262:	4662      	mov	r2, ip
10005264:	0d4d      	lsrs	r5, r1, #21
10005266:	d128      	bne.n	100052ba <da_0>
10005268:	0d0d      	lsrs	r5, r1, #20
1000526a:	d107      	bne.n	1000527c <da_1>
1000526c:	2800      	cmp	r0, #0
1000526e:	d01f      	beq.n	100052b0 <da_5>

10005270 <da_2>:
10005270:	1924      	adds	r4, r4, r4
10005272:	4140      	adcs	r0, r0
10005274:	4149      	adcs	r1, r1
10005276:	3a01      	subs	r2, #1
10005278:	0d0d      	lsrs	r5, r1, #20
1000527a:	d0f9      	beq.n	10005270 <da_2>

1000527c <da_1>:
1000527c:	0064      	lsls	r4, r4, #1
1000527e:	d306      	bcc.n	1000528e <da_3>

10005280 <da_4>:
10005280:	3001      	adds	r0, #1
10005282:	d300      	bcc.n	10005286 <da_4+0x6>
10005284:	3101      	adds	r1, #1
10005286:	2c00      	cmp	r4, #0
10005288:	d101      	bne.n	1000528e <da_3>
1000528a:	0840      	lsrs	r0, r0, #1
1000528c:	0040      	lsls	r0, r0, #1

1000528e <da_3>:
1000528e:	3a01      	subs	r2, #1
10005290:	d40b      	bmi.n	100052aa <da_6>
10005292:	1c94      	adds	r4, r2, #2
10005294:	0ae4      	lsrs	r4, r4, #11
10005296:	d104      	bne.n	100052a2 <da_7>
10005298:	0512      	lsls	r2, r2, #20
1000529a:	4411      	add	r1, r2
1000529c:	07db      	lsls	r3, r3, #31
1000529e:	4419      	add	r1, r3
100052a0:	bdf0      	pop	{r4, r5, r6, r7, pc}

100052a2 <da_7>:
100052a2:	07d9      	lsls	r1, r3, #31
100052a4:	4b20      	ldr	r3, [pc, #128]	@ (10005328 <da_xmgty+0x4>)
100052a6:	4319      	orrs	r1, r3
100052a8:	e000      	b.n	100052ac <da_6+0x2>

100052aa <da_6>:
100052aa:	07d9      	lsls	r1, r3, #31
100052ac:	2000      	movs	r0, #0
100052ae:	bdf0      	pop	{r4, r5, r6, r7, pc}

100052b0 <da_5>:
100052b0:	2900      	cmp	r1, #0
100052b2:	d1dd      	bne.n	10005270 <da_2>
100052b4:	2c00      	cmp	r4, #0
100052b6:	d1db      	bne.n	10005270 <da_2>
100052b8:	bdf0      	pop	{r4, r5, r6, r7, pc}

100052ba <da_0>:
100052ba:	3201      	adds	r2, #1
100052bc:	07c6      	lsls	r6, r0, #31
100052be:	0840      	lsrs	r0, r0, #1
100052c0:	07cd      	lsls	r5, r1, #31
100052c2:	4328      	orrs	r0, r5
100052c4:	0849      	lsrs	r1, r1, #1
100052c6:	2e00      	cmp	r6, #0
100052c8:	d0e1      	beq.n	1000528e <da_3>
100052ca:	e7d9      	b.n	10005280 <da_4>

100052cc <da_xrgty>:
100052cc:	2e3c      	cmp	r6, #60	@ 0x3c
100052ce:	da29      	bge.n	10005324 <da_xmgty>
100052d0:	3e20      	subs	r6, #32
100052d2:	3740      	adds	r7, #64	@ 0x40
100052d4:	0014      	movs	r4, r2
100052d6:	40bc      	lsls	r4, r7
100052d8:	d000      	beq.n	100052dc <da_xrgty+0x10>
100052da:	2401      	movs	r4, #1
100052dc:	40f2      	lsrs	r2, r6
100052de:	4314      	orrs	r4, r2
100052e0:	001a      	movs	r2, r3
100052e2:	40bb      	lsls	r3, r7
100052e4:	431c      	orrs	r4, r3
100052e6:	17d3      	asrs	r3, r2, #31
100052e8:	e7ac      	b.n	10005244 <da_xgty0>

100052ea <da_ygtx>:
100052ea:	46ac      	mov	ip, r5
100052ec:	2f20      	cmp	r7, #32
100052ee:	da08      	bge.n	10005302 <da_yrgtx>
100052f0:	3620      	adds	r6, #32
100052f2:	0004      	movs	r4, r0
100052f4:	40b4      	lsls	r4, r6

100052f6 <da_ygtx0>:
100052f6:	000d      	movs	r5, r1
100052f8:	40b5      	lsls	r5, r6
100052fa:	40f8      	lsrs	r0, r7
100052fc:	4139      	asrs	r1, r7
100052fe:	4328      	orrs	r0, r5
10005300:	e7a5      	b.n	1000524e <da_add>

10005302 <da_yrgtx>:
10005302:	2f3c      	cmp	r7, #60	@ 0x3c
10005304:	da0c      	bge.n	10005320 <da_ymgtx>
10005306:	3f20      	subs	r7, #32
10005308:	3640      	adds	r6, #64	@ 0x40
1000530a:	0004      	movs	r4, r0
1000530c:	40b4      	lsls	r4, r6
1000530e:	d000      	beq.n	10005312 <da_yrgtx+0x10>
10005310:	2401      	movs	r4, #1
10005312:	40f8      	lsrs	r0, r7
10005314:	4304      	orrs	r4, r0
10005316:	0008      	movs	r0, r1
10005318:	40b1      	lsls	r1, r6
1000531a:	430c      	orrs	r4, r1
1000531c:	17c1      	asrs	r1, r0, #31
1000531e:	e7ea      	b.n	100052f6 <da_ygtx0>

10005320 <da_ymgtx>:
10005320:	0010      	movs	r0, r2
10005322:	0019      	movs	r1, r3

10005324 <da_xmgty>:
10005324:	2400      	movs	r4, #0
10005326:	e794      	b.n	10005252 <da_pack>
10005328:	7ff00000 	.word	0x7ff00000

1000532c <dmul_shim>:
1000532c:	b5f0      	push	{r4, r5, r6, r7, lr}
1000532e:	0d0c      	lsrs	r4, r1, #20
10005330:	1e66      	subs	r6, r4, #1
10005332:	0536      	lsls	r6, r6, #20
10005334:	1b89      	subs	r1, r1, r6
10005336:	0ae6      	lsrs	r6, r4, #11
10005338:	0564      	lsls	r4, r4, #21
1000533a:	0d64      	lsrs	r4, r4, #21
1000533c:	d002      	beq.n	10005344 <l12_1>
1000533e:	1c65      	adds	r5, r4, #1
10005340:	0aed      	lsrs	r5, r5, #11
10005342:	d004      	beq.n	1000534e <l12_2>

10005344 <l12_1>:
10005344:	2000      	movs	r0, #0
10005346:	2101      	movs	r1, #1
10005348:	0509      	lsls	r1, r1, #20
1000534a:	3c80      	subs	r4, #128	@ 0x80
1000534c:	0324      	lsls	r4, r4, #12

1000534e <l12_2>:
1000534e:	46a4      	mov	ip, r4
10005350:	0d1c      	lsrs	r4, r3, #20
10005352:	1e67      	subs	r7, r4, #1
10005354:	053f      	lsls	r7, r7, #20
10005356:	1bdb      	subs	r3, r3, r7
10005358:	0ae7      	lsrs	r7, r4, #11
1000535a:	0564      	lsls	r4, r4, #21
1000535c:	0d64      	lsrs	r4, r4, #21
1000535e:	d002      	beq.n	10005366 <l13_1>
10005360:	1c65      	adds	r5, r4, #1
10005362:	0aed      	lsrs	r5, r5, #11
10005364:	d004      	beq.n	10005370 <l13_2>

10005366 <l13_1>:
10005366:	2200      	movs	r2, #0
10005368:	2301      	movs	r3, #1
1000536a:	051b      	lsls	r3, r3, #20
1000536c:	3c80      	subs	r4, #128	@ 0x80
1000536e:	0324      	lsls	r4, r4, #12

10005370 <l13_2>:
10005370:	4077      	eors	r7, r6
10005372:	4464      	add	r4, ip
10005374:	b497      	push	{r0, r1, r2, r4, r7}
10005376:	b284      	uxth	r4, r0
10005378:	b296      	uxth	r6, r2
1000537a:	4374      	muls	r4, r6
1000537c:	0c07      	lsrs	r7, r0, #16
1000537e:	437e      	muls	r6, r7
10005380:	0c15      	lsrs	r5, r2, #16
10005382:	436f      	muls	r7, r5
10005384:	b280      	uxth	r0, r0
10005386:	4368      	muls	r0, r5
10005388:	1836      	adds	r6, r6, r0
1000538a:	d302      	bcc.n	10005392 <l14_1>
1000538c:	2001      	movs	r0, #1
1000538e:	0400      	lsls	r0, r0, #16
10005390:	183f      	adds	r7, r7, r0

10005392 <l14_1>:
10005392:	0430      	lsls	r0, r6, #16
10005394:	0c35      	lsrs	r5, r6, #16
10005396:	1900      	adds	r0, r0, r4
10005398:	417d      	adcs	r5, r7
1000539a:	4684      	mov	ip, r0
1000539c:	b288      	uxth	r0, r1
1000539e:	b29a      	uxth	r2, r3
100053a0:	4350      	muls	r0, r2
100053a2:	0c0c      	lsrs	r4, r1, #16
100053a4:	4362      	muls	r2, r4
100053a6:	0c1f      	lsrs	r7, r3, #16
100053a8:	437c      	muls	r4, r7
100053aa:	b28e      	uxth	r6, r1
100053ac:	437e      	muls	r6, r7
100053ae:	1992      	adds	r2, r2, r6
100053b0:	d302      	bcc.n	100053b8 <l15_1>
100053b2:	2601      	movs	r6, #1
100053b4:	0436      	lsls	r6, r6, #16
100053b6:	19a4      	adds	r4, r4, r6

100053b8 <l15_1>:
100053b8:	0416      	lsls	r6, r2, #16
100053ba:	0c17      	lsrs	r7, r2, #16
100053bc:	1836      	adds	r6, r6, r0
100053be:	4167      	adcs	r7, r4
100053c0:	bc01      	pop	{r0}
100053c2:	b281      	uxth	r1, r0
100053c4:	b29a      	uxth	r2, r3
100053c6:	4351      	muls	r1, r2
100053c8:	0c04      	lsrs	r4, r0, #16
100053ca:	4362      	muls	r2, r4
100053cc:	0c1b      	lsrs	r3, r3, #16
100053ce:	435c      	muls	r4, r3
100053d0:	b280      	uxth	r0, r0
100053d2:	4358      	muls	r0, r3
100053d4:	1812      	adds	r2, r2, r0
100053d6:	d302      	bcc.n	100053de <l16_1>
100053d8:	2001      	movs	r0, #1
100053da:	0400      	lsls	r0, r0, #16
100053dc:	1824      	adds	r4, r4, r0

100053de <l16_1>:
100053de:	0410      	lsls	r0, r2, #16
100053e0:	0c13      	lsrs	r3, r2, #16
100053e2:	1840      	adds	r0, r0, r1
100053e4:	4163      	adcs	r3, r4
100053e6:	182d      	adds	r5, r5, r0
100053e8:	415e      	adcs	r6, r3
100053ea:	2000      	movs	r0, #0
100053ec:	4147      	adcs	r7, r0
100053ee:	bc06      	pop	{r1, r2}
100053f0:	b288      	uxth	r0, r1
100053f2:	b293      	uxth	r3, r2
100053f4:	4358      	muls	r0, r3
100053f6:	0c0c      	lsrs	r4, r1, #16
100053f8:	4363      	muls	r3, r4
100053fa:	0c12      	lsrs	r2, r2, #16
100053fc:	4354      	muls	r4, r2
100053fe:	b289      	uxth	r1, r1
10005400:	4351      	muls	r1, r2
10005402:	185b      	adds	r3, r3, r1
10005404:	d302      	bcc.n	1000540c <l17_1>
10005406:	2101      	movs	r1, #1
10005408:	0409      	lsls	r1, r1, #16
1000540a:	1864      	adds	r4, r4, r1

1000540c <l17_1>:
1000540c:	0419      	lsls	r1, r3, #16
1000540e:	0c1a      	lsrs	r2, r3, #16
10005410:	1809      	adds	r1, r1, r0
10005412:	4162      	adcs	r2, r4
10005414:	186d      	adds	r5, r5, r1
10005416:	4156      	adcs	r6, r2
10005418:	2000      	movs	r0, #0
1000541a:	4147      	adcs	r7, r0
1000541c:	bc18      	pop	{r3, r4}
1000541e:	02f9      	lsls	r1, r7, #11
10005420:	0d72      	lsrs	r2, r6, #21
10005422:	4311      	orrs	r1, r2
10005424:	02f0      	lsls	r0, r6, #11
10005426:	0d6a      	lsrs	r2, r5, #21
10005428:	4310      	orrs	r0, r2
1000542a:	02ed      	lsls	r5, r5, #11
1000542c:	0d0a      	lsrs	r2, r1, #20
1000542e:	d103      	bne.n	10005438 <l17_1+0x2c>
10005430:	196d      	adds	r5, r5, r5
10005432:	4140      	adcs	r0, r0
10005434:	4149      	adcs	r1, r1
10005436:	3b01      	subs	r3, #1
10005438:	4e12      	ldr	r6, [pc, #72]	@ (10005484 <dm_1+0xa>)
1000543a:	1b9b      	subs	r3, r3, r6
1000543c:	0076      	lsls	r6, r6, #1
1000543e:	42b3      	cmp	r3, r6
10005440:	d20e      	bcs.n	10005460 <dm_0>
10005442:	006d      	lsls	r5, r5, #1
10005444:	d307      	bcc.n	10005456 <l17_1+0x4a>
10005446:	3001      	adds	r0, #1
10005448:	2600      	movs	r6, #0
1000544a:	4171      	adcs	r1, r6
1000544c:	4666      	mov	r6, ip
1000544e:	4335      	orrs	r5, r6
10005450:	d101      	bne.n	10005456 <l17_1+0x4a>
10005452:	0840      	lsrs	r0, r0, #1
10005454:	0040      	lsls	r0, r0, #1
10005456:	051b      	lsls	r3, r3, #20
10005458:	18c9      	adds	r1, r1, r3

1000545a <dm_2>:
1000545a:	07e4      	lsls	r4, r4, #31
1000545c:	4421      	add	r1, r4
1000545e:	bdf0      	pop	{r4, r5, r6, r7, pc}

10005460 <dm_0>:
10005460:	da0b      	bge.n	1000547a <dm_1>
10005462:	3301      	adds	r3, #1
10005464:	d106      	bne.n	10005474 <dm_0+0x14>
10005466:	3001      	adds	r0, #1
10005468:	d104      	bne.n	10005474 <dm_0+0x14>
1000546a:	3101      	adds	r1, #1
1000546c:	0d4f      	lsrs	r7, r1, #21
1000546e:	d001      	beq.n	10005474 <dm_0+0x14>
10005470:	0849      	lsrs	r1, r1, #1
10005472:	e7f2      	b.n	1000545a <dm_2>
10005474:	07e1      	lsls	r1, r4, #31
10005476:	2000      	movs	r0, #0
10005478:	bdf0      	pop	{r4, r5, r6, r7, pc}

1000547a <dm_1>:
1000547a:	3601      	adds	r6, #1
1000547c:	0531      	lsls	r1, r6, #20
1000547e:	2000      	movs	r0, #0
10005480:	e7eb      	b.n	1000545a <dm_2>
10005482:	0000      	.short	0x0000
10005484:	000003ff 	.word	0x000003ff

10005488 <ddiv_shim>:
10005488:	b5f0      	push	{r4, r5, r6, r7, lr}

1000548a <ddiv0>:
1000548a:	0d1c      	lsrs	r4, r3, #20
1000548c:	1e67      	subs	r7, r4, #1
1000548e:	053f      	lsls	r7, r7, #20
10005490:	1bdb      	subs	r3, r3, r7
10005492:	0ae7      	lsrs	r7, r4, #11
10005494:	0564      	lsls	r4, r4, #21
10005496:	0d64      	lsrs	r4, r4, #21
10005498:	d002      	beq.n	100054a0 <l20_1>
1000549a:	1c66      	adds	r6, r4, #1
1000549c:	0af6      	lsrs	r6, r6, #11
1000549e:	d004      	beq.n	100054aa <l20_2>

100054a0 <l20_1>:
100054a0:	2200      	movs	r2, #0
100054a2:	2301      	movs	r3, #1
100054a4:	051b      	lsls	r3, r3, #20
100054a6:	3c80      	subs	r4, #128	@ 0x80
100054a8:	0324      	lsls	r4, r4, #12

100054aa <l20_2>:
100054aa:	25d0      	movs	r5, #208	@ 0xd0
100054ac:	062d      	lsls	r5, r5, #24
100054ae:	2600      	movs	r6, #0
100054b0:	43f6      	mvns	r6, r6
100054b2:	662e      	str	r6, [r5, #96]	@ 0x60
100054b4:	091e      	lsrs	r6, r3, #4
100054b6:	666e      	str	r6, [r5, #100]	@ 0x64
100054b8:	0fce      	lsrs	r6, r1, #31
100054ba:	19f6      	adds	r6, r6, r7
100054bc:	46b4      	mov	ip, r6
100054be:	0049      	lsls	r1, r1, #1
100054c0:	0d4f      	lsrs	r7, r1, #21
100054c2:	d002      	beq.n	100054ca <l20_2+0x20>
100054c4:	1c7e      	adds	r6, r7, #1
100054c6:	0af6      	lsrs	r6, r6, #11
100054c8:	d003      	beq.n	100054d2 <l20_2+0x28>
100054ca:	2000      	movs	r0, #0
100054cc:	2100      	movs	r1, #0
100054ce:	3f40      	subs	r7, #64	@ 0x40
100054d0:	033f      	lsls	r7, r7, #12
100054d2:	1b3e      	subs	r6, r7, r4
100054d4:	00b6      	lsls	r6, r6, #2
100054d6:	44b4      	add	ip, r6
100054d8:	3f01      	subs	r7, #1
100054da:	057f      	lsls	r7, r7, #21
100054dc:	1bc9      	subs	r1, r1, r7
100054de:	0849      	lsrs	r1, r1, #1
100054e0:	6f2e      	ldr	r6, [r5, #112]	@ 0x70
100054e2:	3601      	adds	r6, #1
100054e4:	0876      	lsrs	r6, r6, #1
100054e6:	029c      	lsls	r4, r3, #10
100054e8:	0d95      	lsrs	r5, r2, #22
100054ea:	4325      	orrs	r5, r4
100054ec:	4375      	muls	r5, r6
100054ee:	13ed      	asrs	r5, r5, #15
100054f0:	4375      	muls	r5, r6
100054f2:	13ad      	asrs	r5, r5, #14
100054f4:	3501      	adds	r5, #1
100054f6:	106d      	asrs	r5, r5, #1
100054f8:	03f6      	lsls	r6, r6, #15
100054fa:	1b76      	subs	r6, r6, r5
100054fc:	b40c      	push	{r2, r3}
100054fe:	02cc      	lsls	r4, r1, #11
10005500:	0d45      	lsrs	r5, r0, #21
10005502:	432c      	orrs	r4, r5
10005504:	b2a2      	uxth	r2, r4
10005506:	b2b3      	uxth	r3, r6
10005508:	435a      	muls	r2, r3
1000550a:	0c27      	lsrs	r7, r4, #16
1000550c:	437b      	muls	r3, r7
1000550e:	0c35      	lsrs	r5, r6, #16
10005510:	436f      	muls	r7, r5
10005512:	b2a4      	uxth	r4, r4
10005514:	436c      	muls	r4, r5
10005516:	191b      	adds	r3, r3, r4
10005518:	d302      	bcc.n	10005520 <l21_1>
1000551a:	2401      	movs	r4, #1
1000551c:	0424      	lsls	r4, r4, #16
1000551e:	193f      	adds	r7, r7, r4

10005520 <l21_1>:
10005520:	041c      	lsls	r4, r3, #16
10005522:	0c1d      	lsrs	r5, r3, #16
10005524:	18a4      	adds	r4, r4, r2
10005526:	417d      	adcs	r5, r7
10005528:	1924      	adds	r4, r4, r4
1000552a:	416d      	adcs	r5, r5
1000552c:	9a00      	ldr	r2, [sp, #0]
1000552e:	b291      	uxth	r1, r2
10005530:	b2ac      	uxth	r4, r5
10005532:	4361      	muls	r1, r4
10005534:	0c17      	lsrs	r7, r2, #16
10005536:	437c      	muls	r4, r7
10005538:	0c2b      	lsrs	r3, r5, #16
1000553a:	435f      	muls	r7, r3
1000553c:	b292      	uxth	r2, r2
1000553e:	435a      	muls	r2, r3
10005540:	18a4      	adds	r4, r4, r2
10005542:	d302      	bcc.n	1000554a <l22_1>
10005544:	2201      	movs	r2, #1
10005546:	0412      	lsls	r2, r2, #16
10005548:	18bf      	adds	r7, r7, r2

1000554a <l22_1>:
1000554a:	0422      	lsls	r2, r4, #16
1000554c:	0c23      	lsrs	r3, r4, #16
1000554e:	1852      	adds	r2, r2, r1
10005550:	417b      	adcs	r3, r7
10005552:	9c01      	ldr	r4, [sp, #4]
10005554:	436c      	muls	r4, r5
10005556:	191b      	adds	r3, r3, r4
10005558:	0e52      	lsrs	r2, r2, #25
1000555a:	01d9      	lsls	r1, r3, #7
1000555c:	430a      	orrs	r2, r1
1000555e:	0144      	lsls	r4, r0, #5
10005560:	1aa0      	subs	r0, r4, r2
10005562:	b281      	uxth	r1, r0
10005564:	b2b2      	uxth	r2, r6
10005566:	4351      	muls	r1, r2
10005568:	1403      	asrs	r3, r0, #16
1000556a:	435a      	muls	r2, r3
1000556c:	0c36      	lsrs	r6, r6, #16
1000556e:	4373      	muls	r3, r6
10005570:	b287      	uxth	r7, r0
10005572:	4377      	muls	r7, r6
10005574:	17d6      	asrs	r6, r2, #31
10005576:	19d2      	adds	r2, r2, r7
10005578:	2700      	movs	r7, #0
1000557a:	417e      	adcs	r6, r7
1000557c:	0436      	lsls	r6, r6, #16
1000557e:	199b      	adds	r3, r3, r6
10005580:	0417      	lsls	r7, r2, #16
10005582:	0c16      	lsrs	r6, r2, #16
10005584:	187f      	adds	r7, r7, r1
10005586:	415e      	adcs	r6, r3
10005588:	1673      	asrs	r3, r6, #25
1000558a:	18ed      	adds	r5, r5, r3
1000558c:	01f3      	lsls	r3, r6, #7
1000558e:	2600      	movs	r6, #0
10005590:	3380      	adds	r3, #128	@ 0x80
10005592:	4175      	adcs	r5, r6
10005594:	0fa9      	lsrs	r1, r5, #30
10005596:	d106      	bne.n	100055a6 <dd_0>
10005598:	0064      	lsls	r4, r4, #1
1000559a:	0a69      	lsrs	r1, r5, #9
1000559c:	05e8      	lsls	r0, r5, #23
1000559e:	0a5b      	lsrs	r3, r3, #9
100055a0:	4318      	orrs	r0, r3
100055a2:	d209      	bcs.n	100055b8 <dd_1>
100055a4:	e02f      	b.n	10005606 <dd_2>

100055a6 <dd_0>:
100055a6:	2204      	movs	r2, #4
100055a8:	4494      	add	ip, r2
100055aa:	3380      	adds	r3, #128	@ 0x80
100055ac:	4175      	adcs	r5, r6
100055ae:	0aa9      	lsrs	r1, r5, #10
100055b0:	05a8      	lsls	r0, r5, #22
100055b2:	0a9b      	lsrs	r3, r3, #10
100055b4:	4318      	orrs	r0, r3
100055b6:	d326      	bcc.n	10005606 <dd_2>

100055b8 <dd_1>:
100055b8:	4140      	adcs	r0, r0
100055ba:	4149      	adcs	r1, r1
100055bc:	0424      	lsls	r4, r4, #16
100055be:	9a00      	ldr	r2, [sp, #0]
100055c0:	9b01      	ldr	r3, [sp, #4]
100055c2:	000d      	movs	r5, r1
100055c4:	4355      	muls	r5, r2
100055c6:	1b64      	subs	r4, r4, r5
100055c8:	4343      	muls	r3, r0
100055ca:	1ae4      	subs	r4, r4, r3
100055cc:	b295      	uxth	r5, r2
100055ce:	b286      	uxth	r6, r0
100055d0:	4375      	muls	r5, r6
100055d2:	0c17      	lsrs	r7, r2, #16
100055d4:	437e      	muls	r6, r7
100055d6:	0c03      	lsrs	r3, r0, #16
100055d8:	435f      	muls	r7, r3
100055da:	b292      	uxth	r2, r2
100055dc:	435a      	muls	r2, r3
100055de:	18b6      	adds	r6, r6, r2
100055e0:	d302      	bcc.n	100055e8 <l24_1>
100055e2:	2201      	movs	r2, #1
100055e4:	0412      	lsls	r2, r2, #16
100055e6:	18bf      	adds	r7, r7, r2

100055e8 <l24_1>:
100055e8:	0432      	lsls	r2, r6, #16
100055ea:	0c33      	lsrs	r3, r6, #16
100055ec:	1952      	adds	r2, r2, r5
100055ee:	417b      	adcs	r3, r7
100055f0:	4252      	negs	r2, r2
100055f2:	419c      	sbcs	r4, r3
100055f4:	2c00      	cmp	r4, #0
100055f6:	d402      	bmi.n	100055fe <l24_1+0x16>
100055f8:	2200      	movs	r2, #0
100055fa:	3001      	adds	r0, #1
100055fc:	4151      	adcs	r1, r2
100055fe:	0840      	lsrs	r0, r0, #1
10005600:	07ca      	lsls	r2, r1, #31
10005602:	4310      	orrs	r0, r2
10005604:	0849      	lsrs	r1, r1, #1

10005606 <dd_2>:
10005606:	b002      	add	sp, #8
10005608:	4662      	mov	r2, ip
1000560a:	07d7      	lsls	r7, r2, #31
1000560c:	1092      	asrs	r2, r2, #2
1000560e:	4b08      	ldr	r3, [pc, #32]	@ (10005630 <dd_4+0x6>)
10005610:	18d2      	adds	r2, r2, r3
10005612:	4b08      	ldr	r3, [pc, #32]	@ (10005634 <dd_4+0xa>)
10005614:	429a      	cmp	r2, r3
10005616:	d203      	bcs.n	10005620 <dd_3>
10005618:	0512      	lsls	r2, r2, #20
1000561a:	1889      	adds	r1, r1, r2

1000561c <dd_5>:
1000561c:	19c9      	adds	r1, r1, r7
1000561e:	bdf0      	pop	{r4, r5, r6, r7, pc}

10005620 <dd_3>:
10005620:	2000      	movs	r0, #0
10005622:	2a00      	cmp	r2, #0
10005624:	dc01      	bgt.n	1000562a <dd_4>
10005626:	0039      	movs	r1, r7
10005628:	bdf0      	pop	{r4, r5, r6, r7, pc}

1000562a <dd_4>:
1000562a:	3301      	adds	r3, #1
1000562c:	0519      	lsls	r1, r3, #20
1000562e:	e7f5      	b.n	1000561c <dd_5>
10005630:	000003fd 	.word	0x000003fd
10005634:	000007fe 	.word	0x000007fe

10005638 <double2int64_shim>:
10005638:	2200      	movs	r2, #0

1000563a <double2fix64_shim>:
1000563a:	b500      	push	{lr}
1000563c:	f000 f80d 	bl	1000565a <d2fix>
10005640:	17ca      	asrs	r2, r1, #31
10005642:	429a      	cmp	r2, r3
10005644:	d100      	bne.n	10005648 <double2fix64_shim+0xe>
10005646:	bd00      	pop	{pc}
10005648:	43d8      	mvns	r0, r3
1000564a:	2101      	movs	r1, #1
1000564c:	07c9      	lsls	r1, r1, #31
1000564e:	4041      	eors	r1, r0
10005650:	bd00      	pop	{pc}
	...

10005654 <double2uint64_shim>:
10005654:	2200      	movs	r2, #0

10005656 <double2ufix64_shim>:
10005656:	150b      	asrs	r3, r1, #20
10005658:	d40a      	bmi.n	10005670 <ret_dzero>

1000565a <d2fix>:
1000565a:	b510      	push	{r4, lr}
1000565c:	4694      	mov	ip, r2
1000565e:	f000 f85f 	bl	10005720 <dunpacks>
10005662:	1414      	asrs	r4, r2, #16
10005664:	3401      	adds	r4, #1
10005666:	da00      	bge.n	1000566a <d2fix+0x10>
10005668:	2100      	movs	r1, #0
1000566a:	17cb      	asrs	r3, r1, #31
1000566c:	4c14      	ldr	r4, [pc, #80]	@ (100056c0 <d2fix_a+0x4a>)
1000566e:	4720      	bx	r4

10005670 <ret_dzero>:
10005670:	2000      	movs	r0, #0
10005672:	2100      	movs	r1, #0
10005674:	4770      	bx	lr

10005676 <d2fix_a>:
10005676:	4462      	add	r2, ip
10005678:	3a34      	subs	r2, #52	@ 0x34
1000567a:	d40c      	bmi.n	10005696 <d2fix_a+0x20>
1000567c:	2a0c      	cmp	r2, #12
1000567e:	da07      	bge.n	10005690 <d2fix_a+0x1a>
10005680:	0004      	movs	r4, r0
10005682:	4091      	lsls	r1, r2
10005684:	4090      	lsls	r0, r2
10005686:	4252      	negs	r2, r2
10005688:	3220      	adds	r2, #32
1000568a:	40d4      	lsrs	r4, r2
1000568c:	4321      	orrs	r1, r4
1000568e:	bd10      	pop	{r4, pc}
10005690:	43d8      	mvns	r0, r3
10005692:	43d9      	mvns	r1, r3
10005694:	bd10      	pop	{r4, pc}
10005696:	3220      	adds	r2, #32
10005698:	d407      	bmi.n	100056aa <d2fix_a+0x34>
1000569a:	460c      	mov	r4, r1
1000569c:	4094      	lsls	r4, r2
1000569e:	4252      	negs	r2, r2
100056a0:	3220      	adds	r2, #32
100056a2:	4111      	asrs	r1, r2
100056a4:	40d0      	lsrs	r0, r2
100056a6:	4320      	orrs	r0, r4
100056a8:	bd10      	pop	{r4, pc}
100056aa:	0008      	movs	r0, r1
100056ac:	17c9      	asrs	r1, r1, #31
100056ae:	3220      	adds	r2, #32
100056b0:	d403      	bmi.n	100056ba <d2fix_a+0x44>
100056b2:	4252      	negs	r2, r2
100056b4:	3220      	adds	r2, #32
100056b6:	4110      	asrs	r0, r2
100056b8:	bd10      	pop	{r4, pc}
100056ba:	0018      	movs	r0, r3
100056bc:	0019      	movs	r1, r3
100056be:	bd10      	pop	{r4, pc}
100056c0:	10005677 	.word	0x10005677

100056c4 <double2float_shim>:
100056c4:	004a      	lsls	r2, r1, #1
100056c6:	0d52      	lsrs	r2, r2, #21
100056c8:	4b14      	ldr	r3, [pc, #80]	@ (1000571c <double2float_shim+0x58>)
100056ca:	1ad2      	subs	r2, r2, r3
100056cc:	dd13      	ble.n	100056f6 <double2float_shim+0x32>
100056ce:	2aff      	cmp	r2, #255	@ 0xff
100056d0:	da1e      	bge.n	10005710 <double2float_shim+0x4c>
100056d2:	05d2      	lsls	r2, r2, #23
100056d4:	0fcb      	lsrs	r3, r1, #31
100056d6:	07db      	lsls	r3, r3, #31
100056d8:	431a      	orrs	r2, r3
100056da:	00c3      	lsls	r3, r0, #3
100056dc:	0f40      	lsrs	r0, r0, #29
100056de:	0309      	lsls	r1, r1, #12
100056e0:	0a49      	lsrs	r1, r1, #9
100056e2:	4308      	orrs	r0, r1
100056e4:	4310      	orrs	r0, r2
100056e6:	005b      	lsls	r3, r3, #1
100056e8:	d301      	bcc.n	100056ee <double2float_shim+0x2a>
100056ea:	d001      	beq.n	100056f0 <double2float_shim+0x2c>
100056ec:	3001      	adds	r0, #1
100056ee:	4770      	bx	lr
100056f0:	0843      	lsrs	r3, r0, #1
100056f2:	d2fb      	bcs.n	100056ec <double2float_shim+0x28>
100056f4:	4770      	bx	lr
100056f6:	d002      	beq.n	100056fe <double2float_shim+0x3a>
100056f8:	0fc8      	lsrs	r0, r1, #31
100056fa:	07c0      	lsls	r0, r0, #31
100056fc:	4770      	bx	lr
100056fe:	030a      	lsls	r2, r1, #12
10005700:	1312      	asrs	r2, r2, #12
10005702:	3201      	adds	r2, #1
10005704:	d1f8      	bne.n	100056f8 <double2float_shim+0x34>
10005706:	0f42      	lsrs	r2, r0, #29
10005708:	2a07      	cmp	r2, #7
1000570a:	d1f5      	bne.n	100056f8 <double2float_shim+0x34>
1000570c:	2201      	movs	r2, #1
1000570e:	e000      	b.n	10005712 <double2float_shim+0x4e>
10005710:	22ff      	movs	r2, #255	@ 0xff
10005712:	0fc8      	lsrs	r0, r1, #31
10005714:	0200      	lsls	r0, r0, #8
10005716:	1880      	adds	r0, r0, r2
10005718:	05c0      	lsls	r0, r0, #23
1000571a:	4770      	bx	lr
1000571c:	00000380 	.word	0x00000380

10005720 <dunpacks>:
10005720:	0d0a      	lsrs	r2, r1, #20
10005722:	0fcc      	lsrs	r4, r1, #31
10005724:	1e53      	subs	r3, r2, #1
10005726:	051b      	lsls	r3, r3, #20
10005728:	1ac9      	subs	r1, r1, r3
1000572a:	0552      	lsls	r2, r2, #21
1000572c:	d303      	bcc.n	10005736 <l60_1>
1000572e:	43c9      	mvns	r1, r1
10005730:	4240      	negs	r0, r0
10005732:	d300      	bcc.n	10005736 <l60_1>
10005734:	3101      	adds	r1, #1

10005736 <l60_1>:
10005736:	0d52      	lsrs	r2, r2, #21
10005738:	d003      	beq.n	10005742 <l60_2>
1000573a:	1c53      	adds	r3, r2, #1
1000573c:	0adb      	lsrs	r3, r3, #11
1000573e:	d007      	beq.n	10005750 <l60_3>
10005740:	1b12      	subs	r2, r2, r4

10005742 <l60_2>:
10005742:	2000      	movs	r0, #0
10005744:	0064      	lsls	r4, r4, #1
10005746:	1c61      	adds	r1, r4, #1
10005748:	0789      	lsls	r1, r1, #30
1000574a:	1289      	asrs	r1, r1, #10
1000574c:	3a80      	subs	r2, #128	@ 0x80
1000574e:	0312      	lsls	r2, r2, #12

10005750 <l60_3>:
10005750:	4b01      	ldr	r3, [pc, #4]	@ (10005758 <l60_3+0x8>)
10005752:	1ad2      	subs	r2, r2, r3
10005754:	4770      	bx	lr
10005756:	0000      	.short	0x0000
10005758:	000003ff 	.word	0x000003ff

1000575c <__wrap___aeabi_lmul>:
1000575c:	4351      	muls	r1, r2
1000575e:	4343      	muls	r3, r0
10005760:	18c9      	adds	r1, r1, r3
10005762:	468c      	mov	ip, r1
10005764:	0c11      	lsrs	r1, r2, #16
10005766:	b283      	uxth	r3, r0
10005768:	434b      	muls	r3, r1
1000576a:	b410      	push	{r4}
1000576c:	0c04      	lsrs	r4, r0, #16
1000576e:	4361      	muls	r1, r4
10005770:	b292      	uxth	r2, r2
10005772:	b280      	uxth	r0, r0
10005774:	4350      	muls	r0, r2
10005776:	4362      	muls	r2, r4
10005778:	041c      	lsls	r4, r3, #16
1000577a:	0c1b      	lsrs	r3, r3, #16
1000577c:	1900      	adds	r0, r0, r4
1000577e:	bc10      	pop	{r4}
10005780:	4159      	adcs	r1, r3
10005782:	0413      	lsls	r3, r2, #16
10005784:	0c12      	lsrs	r2, r2, #16
10005786:	18c0      	adds	r0, r0, r3
10005788:	4151      	adcs	r1, r2
1000578a:	4461      	add	r1, ip
1000578c:	4770      	bx	lr
	...

10005790 <__wrap___aeabi_frsub>:
10005790:	4048      	eors	r0, r1
10005792:	4041      	eors	r1, r0
10005794:	4048      	eors	r0, r1

10005796 <__wrap___aeabi_fsub>:
10005796:	4b0e      	ldr	r3, [pc, #56]	@ (100057d0 <__wrap___aeabi_fmul+0x6>)
10005798:	685b      	ldr	r3, [r3, #4]
1000579a:	4718      	bx	r3

1000579c <__wrap___aeabi_fadd>:
1000579c:	4b0c      	ldr	r3, [pc, #48]	@ (100057d0 <__wrap___aeabi_fmul+0x6>)
1000579e:	681b      	ldr	r3, [r3, #0]
100057a0:	4718      	bx	r3

100057a2 <__wrap___aeabi_fdiv>:
100057a2:	4a0c      	ldr	r2, [pc, #48]	@ (100057d4 <__wrap___aeabi_fmul+0xa>)
100057a4:	6f93      	ldr	r3, [r2, #120]	@ 0x78
100057a6:	089b      	lsrs	r3, r3, #2
100057a8:	d202      	bcs.n	100057b0 <fdiv_save_state>

100057aa <fdiv_shim_call>:
100057aa:	4b09      	ldr	r3, [pc, #36]	@ (100057d0 <__wrap___aeabi_fmul+0x6>)
100057ac:	68db      	ldr	r3, [r3, #12]
100057ae:	4718      	bx	r3

100057b0 <fdiv_save_state>:
100057b0:	b5f0      	push	{r4, r5, r6, r7, lr}
100057b2:	6e14      	ldr	r4, [r2, #96]	@ 0x60
100057b4:	6e55      	ldr	r5, [r2, #100]	@ 0x64
100057b6:	6f57      	ldr	r7, [r2, #116]	@ 0x74
100057b8:	6f16      	ldr	r6, [r2, #112]	@ 0x70
100057ba:	f7ff fff6 	bl	100057aa <fdiv_shim_call>
100057be:	4a05      	ldr	r2, [pc, #20]	@ (100057d4 <__wrap___aeabi_fmul+0xa>)
100057c0:	6614      	str	r4, [r2, #96]	@ 0x60
100057c2:	6655      	str	r5, [r2, #100]	@ 0x64
100057c4:	6757      	str	r7, [r2, #116]	@ 0x74
100057c6:	6716      	str	r6, [r2, #112]	@ 0x70
100057c8:	bdf0      	pop	{r4, r5, r6, r7, pc}

100057ca <__wrap___aeabi_fmul>:
100057ca:	4b01      	ldr	r3, [pc, #4]	@ (100057d0 <__wrap___aeabi_fmul+0x6>)
100057cc:	689b      	ldr	r3, [r3, #8]
100057ce:	4718      	bx	r3
100057d0:	20001b48 	.word	0x20001b48
100057d4:	d0000000 	.word	0xd0000000

100057d8 <__wrap___aeabi_cfrcmple>:
100057d8:	b507      	push	{r0, r1, r2, lr}
100057da:	4048      	eors	r0, r1
100057dc:	4041      	eors	r1, r0
100057de:	4048      	eors	r0, r1
100057e0:	e001      	b.n	100057e6 <__aeabi_cfcmple_guts>
100057e2:	46c0      	nop			@ (mov r8, r8)

100057e4 <__wrap___aeabi_cfcmpeq>:
100057e4:	b507      	push	{r0, r1, r2, lr}

100057e6 <__aeabi_cfcmple_guts>:
100057e6:	0042      	lsls	r2, r0, #1
100057e8:	0e12      	lsrs	r2, r2, #24
100057ea:	d003      	beq.n	100057f4 <__aeabi_cfcmple_guts+0xe>
100057ec:	2aff      	cmp	r2, #255	@ 0xff
100057ee:	d103      	bne.n	100057f8 <__aeabi_cfcmple_guts+0x12>
100057f0:	0242      	lsls	r2, r0, #9
100057f2:	d818      	bhi.n	10005826 <__aeabi_cfcmple_guts+0x40>
100057f4:	0dc0      	lsrs	r0, r0, #23
100057f6:	05c0      	lsls	r0, r0, #23
100057f8:	004a      	lsls	r2, r1, #1
100057fa:	0e12      	lsrs	r2, r2, #24
100057fc:	d003      	beq.n	10005806 <__aeabi_cfcmple_guts+0x20>
100057fe:	2aff      	cmp	r2, #255	@ 0xff
10005800:	d103      	bne.n	1000580a <__aeabi_cfcmple_guts+0x24>
10005802:	024a      	lsls	r2, r1, #9
10005804:	d80f      	bhi.n	10005826 <__aeabi_cfcmple_guts+0x40>
10005806:	0dc9      	lsrs	r1, r1, #23
10005808:	05c9      	lsls	r1, r1, #23
1000580a:	2201      	movs	r2, #1
1000580c:	4041      	eors	r1, r0
1000580e:	d405      	bmi.n	1000581c <__aeabi_cfcmple_guts+0x36>
10005810:	4041      	eors	r1, r0
10005812:	d501      	bpl.n	10005818 <__aeabi_cfcmple_guts+0x32>
10005814:	4281      	cmp	r1, r0
10005816:	bd07      	pop	{r0, r1, r2, pc}
10005818:	4288      	cmp	r0, r1
1000581a:	bd07      	pop	{r0, r1, r2, pc}
1000581c:	4301      	orrs	r1, r0
1000581e:	1849      	adds	r1, r1, r1
10005820:	d001      	beq.n	10005826 <__aeabi_cfcmple_guts+0x40>
10005822:	43c0      	mvns	r0, r0
10005824:	1800      	adds	r0, r0, r0
10005826:	bd07      	pop	{r0, r1, r2, pc}

10005828 <__wrap___aeabi_fcmpeq>:
10005828:	b500      	push	{lr}
1000582a:	f7ff ffdb 	bl	100057e4 <__wrap___aeabi_cfcmpeq>
1000582e:	d001      	beq.n	10005834 <__wrap___aeabi_fcmpeq+0xc>
10005830:	2000      	movs	r0, #0
10005832:	bd00      	pop	{pc}
10005834:	2001      	movs	r0, #1
10005836:	bd00      	pop	{pc}

10005838 <__wrap___aeabi_fcmplt>:
10005838:	b500      	push	{lr}
1000583a:	f7ff ffd3 	bl	100057e4 <__wrap___aeabi_cfcmpeq>
1000583e:	4180      	sbcs	r0, r0
10005840:	bd00      	pop	{pc}
10005842:	46c0      	nop			@ (mov r8, r8)

10005844 <__wrap___aeabi_fcmple>:
10005844:	b500      	push	{lr}
10005846:	f7ff ffcd 	bl	100057e4 <__wrap___aeabi_cfcmpeq>
1000584a:	d901      	bls.n	10005850 <__wrap___aeabi_fcmple+0xc>
1000584c:	2000      	movs	r0, #0
1000584e:	bd00      	pop	{pc}
10005850:	2001      	movs	r0, #1
10005852:	bd00      	pop	{pc}

10005854 <__wrap___aeabi_fcmpge>:
10005854:	b500      	push	{lr}
10005856:	f7ff ffbf 	bl	100057d8 <__wrap___aeabi_cfrcmple>
1000585a:	d901      	bls.n	10005860 <__wrap___aeabi_fcmpge+0xc>
1000585c:	2000      	movs	r0, #0
1000585e:	bd00      	pop	{pc}
10005860:	2001      	movs	r0, #1
10005862:	bd00      	pop	{pc}

10005864 <__wrap___aeabi_fcmpgt>:
10005864:	b500      	push	{lr}
10005866:	f7ff ffb7 	bl	100057d8 <__wrap___aeabi_cfrcmple>
1000586a:	4180      	sbcs	r0, r0
1000586c:	bd00      	pop	{pc}
	...

10005870 <__wrap___aeabi_i2f>:
10005870:	0fc1      	lsrs	r1, r0, #31
10005872:	07c9      	lsls	r1, r1, #31
10005874:	d500      	bpl.n	10005878 <__wrap___aeabi_i2f+0x8>
10005876:	4240      	negs	r0, r0
10005878:	2800      	cmp	r0, #0
1000587a:	d017      	beq.n	100058ac <__aeabi_i2f_main+0x30>

1000587c <__aeabi_i2f_main>:
1000587c:	46f4      	mov	ip, lr
1000587e:	b403      	push	{r0, r1}
10005880:	4b0b      	ldr	r3, [pc, #44]	@ (100058b0 <__aeabi_i2f_main+0x34>)
10005882:	681b      	ldr	r3, [r3, #0]
10005884:	4798      	blx	r3
10005886:	bc06      	pop	{r1, r2}
10005888:	4081      	lsls	r1, r0
1000588a:	389e      	subs	r0, #158	@ 0x9e
1000588c:	4240      	negs	r0, r0
1000588e:	3180      	adds	r1, #128	@ 0x80
10005890:	d207      	bcs.n	100058a2 <__aeabi_i2f_main+0x26>
10005892:	060b      	lsls	r3, r1, #24
10005894:	d007      	beq.n	100058a6 <__aeabi_i2f_main+0x2a>
10005896:	0049      	lsls	r1, r1, #1
10005898:	0a49      	lsrs	r1, r1, #9
1000589a:	05c0      	lsls	r0, r0, #23
1000589c:	4310      	orrs	r0, r2
1000589e:	4308      	orrs	r0, r1
100058a0:	4760      	bx	ip
100058a2:	3001      	adds	r0, #1
100058a4:	e7f8      	b.n	10005898 <__aeabi_i2f_main+0x1c>
100058a6:	0a49      	lsrs	r1, r1, #9
100058a8:	0289      	lsls	r1, r1, #10
100058aa:	e7f5      	b.n	10005898 <__aeabi_i2f_main+0x1c>
100058ac:	4770      	bx	lr
100058ae:	0000      	.short	0x0000
100058b0:	200051bc 	.word	0x200051bc

100058b4 <__wrap___aeabi_f2iz>:
100058b4:	0041      	lsls	r1, r0, #1
100058b6:	0e0a      	lsrs	r2, r1, #24
100058b8:	2380      	movs	r3, #128	@ 0x80
100058ba:	061b      	lsls	r3, r3, #24
100058bc:	2a7e      	cmp	r2, #126	@ 0x7e
100058be:	dd0b      	ble.n	100058d8 <__wrap___aeabi_f2iz+0x24>
100058c0:	3a9e      	subs	r2, #158	@ 0x9e
100058c2:	da0b      	bge.n	100058dc <__wrap___aeabi_f2iz+0x28>
100058c4:	17c1      	asrs	r1, r0, #31
100058c6:	0240      	lsls	r0, r0, #9
100058c8:	0840      	lsrs	r0, r0, #1
100058ca:	4318      	orrs	r0, r3
100058cc:	4252      	negs	r2, r2
100058ce:	40d0      	lsrs	r0, r2
100058d0:	0049      	lsls	r1, r1, #1
100058d2:	3101      	adds	r1, #1
100058d4:	4348      	muls	r0, r1
100058d6:	4770      	bx	lr
100058d8:	2000      	movs	r0, #0
100058da:	4770      	bx	lr
100058dc:	0fc0      	lsrs	r0, r0, #31
100058de:	18c0      	adds	r0, r0, r3
100058e0:	3801      	subs	r0, #1
100058e2:	4770      	bx	lr
100058e4:	42c0      	cmn	r0, r0
100058e6:	d30d      	bcc.n	10005904 <float2int>
100058e8:	b500      	push	{lr}
100058ea:	0040      	lsls	r0, r0, #1
100058ec:	0840      	lsrs	r0, r0, #1
100058ee:	2100      	movs	r1, #0
100058f0:	f000 f812 	bl	10005918 <__wrap___aeabi_f2uiz>
100058f4:	2800      	cmp	r0, #0
100058f6:	d401      	bmi.n	100058fc <__wrap___aeabi_f2iz+0x48>
100058f8:	4240      	negs	r0, r0
100058fa:	bd00      	pop	{pc}
100058fc:	2080      	movs	r0, #128	@ 0x80
100058fe:	0600      	lsls	r0, r0, #24
10005900:	bd00      	pop	{pc}
	...

10005904 <float2int>:
10005904:	4b03      	ldr	r3, [pc, #12]	@ (10005914 <float2int+0x10>)
10005906:	69db      	ldr	r3, [r3, #28]
10005908:	46fc      	mov	ip, pc
1000590a:	4718      	bx	r3
1000590c:	5a01df1c 	.word	0x5a01df1c
10005910:	00001000 	.word	0x00001000
10005914:	20001b48 	.word	0x20001b48

10005918 <__wrap___aeabi_f2uiz>:
10005918:	4b01      	ldr	r3, [pc, #4]	@ (10005920 <__wrap___aeabi_f2uiz+0x8>)
1000591a:	6a5b      	ldr	r3, [r3, #36]	@ 0x24
1000591c:	4718      	bx	r3
1000591e:	0000      	.short	0x0000
10005920:	20001b48 	.word	0x20001b48

10005924 <__wrap___aeabi_f2d>:
10005924:	4b03      	ldr	r3, [pc, #12]	@ (10005934 <__wrap___aeabi_f2d+0x10>)
10005926:	6fdb      	ldr	r3, [r3, #124]	@ 0x7c
10005928:	46fc      	mov	ip, pc
1000592a:	4718      	bx	r3
1000592c:	5a19df7c 	.word	0x5a19df7c
10005930:	00001000 	.word	0x00001000
10005934:	20001b48 	.word	0x20001b48

10005938 <__aeabi_float_init>:
10005938:	2313      	movs	r3, #19
1000593a:	b510      	push	{r4, lr}
1000593c:	4812      	ldr	r0, [pc, #72]	@ (10005988 <__aeabi_float_init+0x50>)
1000593e:	781c      	ldrb	r4, [r3, #0]
10005940:	f7fe fee0 	bl	10004704 <rom_data_lookup>
10005944:	0001      	movs	r1, r0
10005946:	2c01      	cmp	r4, #1
10005948:	d00a      	beq.n	10005960 <__aeabi_float_init+0x28>
1000594a:	dd03      	ble.n	10005954 <__aeabi_float_init+0x1c>
1000594c:	2280      	movs	r2, #128	@ 0x80
1000594e:	480f      	ldr	r0, [pc, #60]	@ (1000598c <__aeabi_float_init+0x54>)
10005950:	f000 f8a6 	bl	10005aa0 <__wrap___aeabi_memcpy>
10005954:	480e      	ldr	r0, [pc, #56]	@ (10005990 <__aeabi_float_init+0x58>)
10005956:	f7fe fecd 	bl	100046f4 <rom_func_lookup>
1000595a:	4b0e      	ldr	r3, [pc, #56]	@ (10005994 <__aeabi_float_init+0x5c>)
1000595c:	6018      	str	r0, [r3, #0]
1000595e:	bd10      	pop	{r4, pc}
10005960:	4c0a      	ldr	r4, [pc, #40]	@ (1000598c <__aeabi_float_init+0x54>)
10005962:	2254      	movs	r2, #84	@ 0x54
10005964:	0020      	movs	r0, r4
10005966:	f000 f89b 	bl	10005aa0 <__wrap___aeabi_memcpy>
1000596a:	4b0b      	ldr	r3, [pc, #44]	@ (10005998 <__aeabi_float_init+0x60>)
1000596c:	6563      	str	r3, [r4, #84]	@ 0x54
1000596e:	65a3      	str	r3, [r4, #88]	@ 0x58
10005970:	65e3      	str	r3, [r4, #92]	@ 0x5c
10005972:	6623      	str	r3, [r4, #96]	@ 0x60
10005974:	6663      	str	r3, [r4, #100]	@ 0x64
10005976:	66a3      	str	r3, [r4, #104]	@ 0x68
10005978:	66e3      	str	r3, [r4, #108]	@ 0x6c
1000597a:	6723      	str	r3, [r4, #112]	@ 0x70
1000597c:	6763      	str	r3, [r4, #116]	@ 0x74
1000597e:	67a3      	str	r3, [r4, #120]	@ 0x78
10005980:	67e3      	str	r3, [r4, #124]	@ 0x7c
10005982:	6223      	str	r3, [r4, #32]
10005984:	61e3      	str	r3, [r4, #28]
10005986:	e7e5      	b.n	10005954 <__aeabi_float_init+0x1c>
10005988:	00004653 	.word	0x00004653
1000598c:	20001b48 	.word	0x20001b48
10005990:	0000334c 	.word	0x0000334c
10005994:	200051bc 	.word	0x200051bc
10005998:	100059d5 	.word	0x100059d5

1000599c <__wrap_roundf>:
1000599c:	0043      	lsls	r3, r0, #1
1000599e:	0e1b      	lsrs	r3, r3, #24
100059a0:	3b7f      	subs	r3, #127	@ 0x7f
100059a2:	1c5a      	adds	r2, r3, #1
100059a4:	db0d      	blt.n	100059c2 <__wrap_roundf+0x26>
100059a6:	1c5a      	adds	r2, r3, #1
100059a8:	d00e      	beq.n	100059c8 <__wrap_roundf+0x2c>
100059aa:	2b17      	cmp	r3, #23
100059ac:	da08      	bge.n	100059c0 <__wrap_roundf+0x24>
100059ae:	2216      	movs	r2, #22
100059b0:	1ad2      	subs	r2, r2, r3
100059b2:	2301      	movs	r3, #1
100059b4:	4093      	lsls	r3, r2
100059b6:	1818      	adds	r0, r3, r0
100059b8:	2302      	movs	r3, #2
100059ba:	4093      	lsls	r3, r2
100059bc:	425b      	negs	r3, r3
100059be:	4018      	ands	r0, r3
100059c0:	4770      	bx	lr
100059c2:	0fc0      	lsrs	r0, r0, #31
100059c4:	07c0      	lsls	r0, r0, #31
100059c6:	e7fb      	b.n	100059c0 <__wrap_roundf+0x24>
100059c8:	0fc0      	lsrs	r0, r0, #31
100059ca:	07c3      	lsls	r3, r0, #31
100059cc:	20fe      	movs	r0, #254	@ 0xfe
100059ce:	0580      	lsls	r0, r0, #22
100059d0:	4318      	orrs	r0, r3
100059d2:	e7f5      	b.n	100059c0 <__wrap_roundf+0x24>

100059d4 <float_table_shim_on_use_helper>:
100059d4:	b507      	push	{r0, r1, r2, lr}
100059d6:	4660      	mov	r0, ip
100059d8:	8801      	ldrh	r1, [r0, #0]
100059da:	0a0a      	lsrs	r2, r1, #8
100059dc:	3002      	adds	r0, #2
100059de:	2adf      	cmp	r2, #223	@ 0xdf
100059e0:	d1fa      	bne.n	100059d8 <float_table_shim_on_use_helper+0x4>
100059e2:	b2c9      	uxtb	r1, r1
100059e4:	0882      	lsrs	r2, r0, #2
100059e6:	d304      	bcc.n	100059f2 <float_table_shim_on_use_helper+0x1e>
100059e8:	8802      	ldrh	r2, [r0, #0]
100059ea:	8840      	ldrh	r0, [r0, #2]
100059ec:	0400      	lsls	r0, r0, #16
100059ee:	4310      	orrs	r0, r2
100059f0:	e000      	b.n	100059f4 <float_table_shim_on_use_helper+0x20>
100059f2:	6800      	ldr	r0, [r0, #0]
100059f4:	4a01      	ldr	r2, [pc, #4]	@ (100059fc <float_table_shim_on_use_helper+0x28>)
100059f6:	5050      	str	r0, [r2, r1]
100059f8:	9003      	str	r0, [sp, #12]
100059fa:	bd07      	pop	{r0, r1, r2, pc}
100059fc:	20001b48 	.word	0x20001b48

10005a00 <float2int_shim>:
10005a00:	2100      	movs	r1, #0

10005a02 <float2fix_shim>:
10005a02:	15c2      	asrs	r2, r0, #23
10005a04:	3280      	adds	r2, #128	@ 0x80
10005a06:	3280      	adds	r2, #128	@ 0x80
10005a08:	d001      	beq.n	10005a0e <float2fix_shim+0xc>
10005a0a:	4a02      	ldr	r2, [pc, #8]	@ (10005a14 <float2fix_shim+0x12>)
10005a0c:	4710      	bx	r2
10005a0e:	2000      	movs	r0, #0
10005a10:	4770      	bx	lr
10005a12:	0000      	.short	0x0000
10005a14:	00002acd 	.word	0x00002acd

10005a18 <float2double_shim>:
10005a18:	0fc3      	lsrs	r3, r0, #31
10005a1a:	07db      	lsls	r3, r3, #31
10005a1c:	0041      	lsls	r1, r0, #1
10005a1e:	0e0a      	lsrs	r2, r1, #24
10005a20:	d007      	beq.n	10005a32 <float2double_shim+0x1a>
10005a22:	2aff      	cmp	r2, #255	@ 0xff
10005a24:	d008      	beq.n	10005a38 <float2double_shim+0x20>
10005a26:	0909      	lsrs	r1, r1, #4
10005a28:	4a05      	ldr	r2, [pc, #20]	@ (10005a40 <float2double_shim+0x28>)
10005a2a:	1889      	adds	r1, r1, r2
10005a2c:	4319      	orrs	r1, r3
10005a2e:	0740      	lsls	r0, r0, #29
10005a30:	4770      	bx	lr
10005a32:	0019      	movs	r1, r3
10005a34:	2000      	movs	r0, #0
10005a36:	4770      	bx	lr
10005a38:	4902      	ldr	r1, [pc, #8]	@ (10005a44 <float2double_shim+0x2c>)
10005a3a:	18c9      	adds	r1, r1, r3
10005a3c:	e7fa      	b.n	10005a34 <float2double_shim+0x1c>
10005a3e:	0000      	.short	0x0000
10005a40:	38000000 	.word	0x38000000
10005a44:	7ff00000 	.word	0x7ff00000

10005a48 <__wrap_malloc>:
10005a48:	b570      	push	{r4, r5, r6, lr}
10005a4a:	0004      	movs	r4, r0
10005a4c:	4e0a      	ldr	r6, [pc, #40]	@ (10005a78 <__wrap_malloc+0x30>)
10005a4e:	0030      	movs	r0, r6
10005a50:	f00d fe32 	bl	100136b8 <__mutex_enter_blocking_veneer>
10005a54:	0020      	movs	r0, r4
10005a56:	f00a fbc7 	bl	100101e8 <malloc>
10005a5a:	0005      	movs	r5, r0
10005a5c:	0030      	movs	r0, r6
10005a5e:	f00d fdcb 	bl	100135f8 <__mutex_exit_veneer>
10005a62:	2d00      	cmp	r5, #0
10005a64:	d005      	beq.n	10005a72 <__wrap_malloc+0x2a>
10005a66:	4b05      	ldr	r3, [pc, #20]	@ (10005a7c <__wrap_malloc+0x34>)
10005a68:	192c      	adds	r4, r5, r4
10005a6a:	429c      	cmp	r4, r3
10005a6c:	d801      	bhi.n	10005a72 <__wrap_malloc+0x2a>
10005a6e:	0028      	movs	r0, r5
10005a70:	bd70      	pop	{r4, r5, r6, pc}
10005a72:	4803      	ldr	r0, [pc, #12]	@ (10005a80 <__wrap_malloc+0x38>)
10005a74:	f7fd fdf0 	bl	10003658 <panic>
10005a78:	200018b0 	.word	0x200018b0
10005a7c:	20040000 	.word	0x20040000
10005a80:	10013de4 	.word	0x10013de4

10005a84 <__aeabi_mem_init>:
10005a84:	4801      	ldr	r0, [pc, #4]	@ (10005a8c <__aeabi_mem_init+0x8>)
10005a86:	2104      	movs	r1, #4
10005a88:	4b01      	ldr	r3, [pc, #4]	@ (10005a90 <__aeabi_mem_init+0xc>)
10005a8a:	4718      	bx	r3
10005a8c:	20001190 	.word	0x20001190
10005a90:	10004715 	.word	0x10004715

10005a94 <__wrap_memset>:
10005a94:	4b01      	ldr	r3, [pc, #4]	@ (10005a9c <__wrap_memset+0x8>)
10005a96:	681b      	ldr	r3, [r3, #0]
10005a98:	4718      	bx	r3
10005a9a:	0000      	.short	0x0000
10005a9c:	20001190 	.word	0x20001190

10005aa0 <__wrap___aeabi_memcpy>:
10005aa0:	4b01      	ldr	r3, [pc, #4]	@ (10005aa8 <__wrap___aeabi_memcpy+0x8>)
10005aa2:	685b      	ldr	r3, [r3, #4]
10005aa4:	4718      	bx	r3
10005aa6:	0000      	.short	0x0000
10005aa8:	20001190 	.word	0x20001190

10005aac <_out_char>:
10005aac:	b510      	push	{r4, lr}
10005aae:	2800      	cmp	r0, #0
10005ab0:	d100      	bne.n	10005ab4 <_out_char+0x8>
10005ab2:	bd10      	pop	{r4, pc}
10005ab4:	f000 f9f8 	bl	10005ea8 <__wrap_putchar>
10005ab8:	e7fb      	b.n	10005ab2 <_out_char+0x6>
10005aba:	46c0      	nop			@ (mov r8, r8)

10005abc <weak_raw_printf>:
10005abc:	b40f      	push	{r0, r1, r2, r3}
10005abe:	b530      	push	{r4, r5, lr}
10005ac0:	490c      	ldr	r1, [pc, #48]	@ (10005af4 <weak_raw_printf+0x38>)
10005ac2:	b085      	sub	sp, #20
10005ac4:	aa08      	add	r2, sp, #32
10005ac6:	ca08      	ldmia	r2!, {r3}
10005ac8:	680d      	ldr	r5, [r1, #0]
10005aca:	9203      	str	r2, [sp, #12]
10005acc:	2d00      	cmp	r5, #0
10005ace:	d00c      	beq.n	10005aea <weak_raw_printf+0x2e>
10005ad0:	9200      	str	r2, [sp, #0]
10005ad2:	2201      	movs	r2, #1
10005ad4:	4c08      	ldr	r4, [pc, #32]	@ (10005af8 <weak_raw_printf+0x3c>)
10005ad6:	4252      	negs	r2, r2
10005ad8:	0020      	movs	r0, r4
10005ada:	a902      	add	r1, sp, #8
10005adc:	47a8      	blx	r5
10005ade:	2001      	movs	r0, #1
10005ae0:	b005      	add	sp, #20
10005ae2:	bc30      	pop	{r4, r5}
10005ae4:	bc08      	pop	{r3}
10005ae6:	b004      	add	sp, #16
10005ae8:	4718      	bx	r3
10005aea:	0018      	movs	r0, r3
10005aec:	f000 fa28 	bl	10005f40 <__wrap_puts>
10005af0:	2000      	movs	r0, #0
10005af2:	e7f5      	b.n	10005ae0 <weak_raw_printf+0x24>
10005af4:	20005178 	.word	0x20005178
10005af8:	10005aad 	.word	0x10005aad

10005afc <weak_raw_vprintf>:
10005afc:	b510      	push	{r4, lr}
10005afe:	4a09      	ldr	r2, [pc, #36]	@ (10005b24 <weak_raw_vprintf+0x28>)
10005b00:	0003      	movs	r3, r0
10005b02:	6814      	ldr	r4, [r2, #0]
10005b04:	b084      	sub	sp, #16
10005b06:	2c00      	cmp	r4, #0
10005b08:	d008      	beq.n	10005b1c <weak_raw_vprintf+0x20>
10005b0a:	2201      	movs	r2, #1
10005b0c:	9100      	str	r1, [sp, #0]
10005b0e:	4806      	ldr	r0, [pc, #24]	@ (10005b28 <weak_raw_vprintf+0x2c>)
10005b10:	4252      	negs	r2, r2
10005b12:	a903      	add	r1, sp, #12
10005b14:	47a0      	blx	r4
10005b16:	2001      	movs	r0, #1
10005b18:	b004      	add	sp, #16
10005b1a:	bd10      	pop	{r4, pc}
10005b1c:	f000 fa10 	bl	10005f40 <__wrap_puts>
10005b20:	2000      	movs	r0, #0
10005b22:	e7f9      	b.n	10005b18 <weak_raw_vprintf+0x1c>
10005b24:	20005178 	.word	0x20005178
10005b28:	10005aad 	.word	0x10005aad

10005b2c <_exit>:
10005b2c:	be00      	bkpt	0x0000
10005b2e:	e7fd      	b.n	10005b2c <_exit>

10005b30 <_sbrk>:
10005b30:	4a09      	ldr	r2, [pc, #36]	@ (10005b58 <_sbrk+0x28>)
10005b32:	0003      	movs	r3, r0
10005b34:	6810      	ldr	r0, [r2, #0]
10005b36:	2800      	cmp	r0, #0
10005b38:	d005      	beq.n	10005b46 <_sbrk+0x16>
10005b3a:	4908      	ldr	r1, [pc, #32]	@ (10005b5c <_sbrk+0x2c>)
10005b3c:	18c3      	adds	r3, r0, r3
10005b3e:	428b      	cmp	r3, r1
10005b40:	d807      	bhi.n	10005b52 <_sbrk+0x22>
10005b42:	6013      	str	r3, [r2, #0]
10005b44:	4770      	bx	lr
10005b46:	4806      	ldr	r0, [pc, #24]	@ (10005b60 <_sbrk+0x30>)
10005b48:	4904      	ldr	r1, [pc, #16]	@ (10005b5c <_sbrk+0x2c>)
10005b4a:	18c3      	adds	r3, r0, r3
10005b4c:	6010      	str	r0, [r2, #0]
10005b4e:	428b      	cmp	r3, r1
10005b50:	d9f7      	bls.n	10005b42 <_sbrk+0x12>
10005b52:	2001      	movs	r0, #1
10005b54:	4240      	negs	r0, r0
10005b56:	e7f5      	b.n	10005b44 <_sbrk+0x14>
10005b58:	20004d70 	.word	0x20004d70
10005b5c:	20040000 	.word	0x20040000
10005b60:	200051e8 	.word	0x200051e8

10005b64 <_getpid>:
10005b64:	2000      	movs	r0, #0
10005b66:	4770      	bx	lr

10005b68 <_kill>:
10005b68:	2001      	movs	r0, #1
10005b6a:	4240      	negs	r0, r0
10005b6c:	4770      	bx	lr
10005b6e:	46c0      	nop			@ (mov r8, r8)

10005b70 <_read>:
10005b70:	0003      	movs	r3, r0
10005b72:	b510      	push	{r4, lr}
10005b74:	0008      	movs	r0, r1
10005b76:	0011      	movs	r1, r2
10005b78:	2b00      	cmp	r3, #0
10005b7a:	d105      	bne.n	10005b88 <_read+0x18>
10005b7c:	4b04      	ldr	r3, [pc, #16]	@ (10005b90 <_read+0x20>)
10005b7e:	681a      	ldr	r2, [r3, #0]
10005b80:	685b      	ldr	r3, [r3, #4]
10005b82:	f000 f933 	bl	10005dec <stdio_get_until>
10005b86:	bd10      	pop	{r4, pc}
10005b88:	2001      	movs	r0, #1
10005b8a:	4240      	negs	r0, r0
10005b8c:	e7fb      	b.n	10005b86 <_read+0x16>
10005b8e:	46c0      	nop			@ (mov r8, r8)
10005b90:	10015650 	.word	0x10015650

10005b94 <_write>:
10005b94:	0003      	movs	r3, r0
10005b96:	3b01      	subs	r3, #1
10005b98:	b510      	push	{r4, lr}
10005b9a:	0008      	movs	r0, r1
10005b9c:	0014      	movs	r4, r2
10005b9e:	2b01      	cmp	r3, #1
10005ba0:	d806      	bhi.n	10005bb0 <_write+0x1c>
10005ba2:	2301      	movs	r3, #1
10005ba4:	2200      	movs	r2, #0
10005ba6:	0021      	movs	r1, r4
10005ba8:	f000 f8a0 	bl	10005cec <stdio_put_string>
10005bac:	0020      	movs	r0, r4
10005bae:	bd10      	pop	{r4, pc}
10005bb0:	2001      	movs	r0, #1
10005bb2:	4240      	negs	r0, r0
10005bb4:	e7fb      	b.n	10005bae <_write+0x1a>
10005bb6:	46c0      	nop			@ (mov r8, r8)

10005bb8 <_close>:
10005bb8:	2001      	movs	r0, #1
10005bba:	4240      	negs	r0, r0
10005bbc:	4770      	bx	lr
10005bbe:	46c0      	nop			@ (mov r8, r8)

10005bc0 <_lseek>:
10005bc0:	2001      	movs	r0, #1
10005bc2:	4240      	negs	r0, r0
10005bc4:	4770      	bx	lr
10005bc6:	46c0      	nop			@ (mov r8, r8)

10005bc8 <_fstat>:
10005bc8:	2001      	movs	r0, #1
10005bca:	4240      	negs	r0, r0
10005bcc:	4770      	bx	lr
10005bce:	46c0      	nop			@ (mov r8, r8)

10005bd0 <_isatty>:
10005bd0:	0003      	movs	r3, r0
10005bd2:	2202      	movs	r2, #2
10005bd4:	2000      	movs	r0, #0
10005bd6:	429a      	cmp	r2, r3
10005bd8:	4140      	adcs	r0, r0
10005bda:	4770      	bx	lr

10005bdc <exit>:
10005bdc:	b510      	push	{r4, lr}
10005bde:	f7ff ffa5 	bl	10005b2c <_exit>
10005be2:	46c0      	nop			@ (mov r8, r8)

10005be4 <__assert_func>:
10005be4:	b530      	push	{r4, r5, lr}
10005be6:	000d      	movs	r5, r1
10005be8:	b083      	sub	sp, #12
10005bea:	0019      	movs	r1, r3
10005bec:	2a00      	cmp	r2, #0
10005bee:	d00b      	beq.n	10005c08 <__assert_func+0x24>
10005bf0:	4b07      	ldr	r3, [pc, #28]	@ (10005c10 <__assert_func+0x2c>)
10005bf2:	4c08      	ldr	r4, [pc, #32]	@ (10005c14 <__assert_func+0x30>)
10005bf4:	9201      	str	r2, [sp, #4]
10005bf6:	9300      	str	r3, [sp, #0]
10005bf8:	0002      	movs	r2, r0
10005bfa:	002b      	movs	r3, r5
10005bfc:	0020      	movs	r0, r4
10005bfe:	f7ff ff5d 	bl	10005abc <weak_raw_printf>
10005c02:	2001      	movs	r0, #1
10005c04:	f7ff ff92 	bl	10005b2c <_exit>
10005c08:	4b03      	ldr	r3, [pc, #12]	@ (10005c18 <__assert_func+0x34>)
10005c0a:	001a      	movs	r2, r3
10005c0c:	e7f1      	b.n	10005bf2 <__assert_func+0xe>
10005c0e:	46c0      	nop			@ (mov r8, r8)
10005c10:	10013e44 	.word	0x10013e44
10005c14:	10013e54 	.word	0x10013e54
10005c18:	10013d64 	.word	0x10013d64

10005c1c <runtime_init>:
10005c1c:	b570      	push	{r4, r5, r6, lr}
10005c1e:	f7fe fdcb 	bl	100047b8 <runtime_run_initializers>
10005c22:	4d07      	ldr	r5, [pc, #28]	@ (10005c40 <runtime_init+0x24>)
10005c24:	4e07      	ldr	r6, [pc, #28]	@ (10005c44 <runtime_init+0x28>)
10005c26:	42b5      	cmp	r5, r6
10005c28:	d209      	bcs.n	10005c3e <runtime_init+0x22>
10005c2a:	2400      	movs	r4, #0
10005c2c:	3e01      	subs	r6, #1
10005c2e:	1b76      	subs	r6, r6, r5
10005c30:	08b6      	lsrs	r6, r6, #2
10005c32:	cd08      	ldmia	r5!, {r3}
10005c34:	4798      	blx	r3
10005c36:	0023      	movs	r3, r4
10005c38:	3401      	adds	r4, #1
10005c3a:	42b3      	cmp	r3, r6
10005c3c:	d1f9      	bne.n	10005c32 <runtime_init+0x16>
10005c3e:	bd70      	pop	{r4, r5, r6, pc}
10005c40:	10013724 	.word	0x10013724
10005c44:	10013730 	.word	0x10013730

10005c48 <stdio_out_chars_no_crlf>:
10005c48:	0003      	movs	r3, r0
10005c4a:	b510      	push	{r4, lr}
10005c4c:	0008      	movs	r0, r1
10005c4e:	0011      	movs	r1, r2
10005c50:	681b      	ldr	r3, [r3, #0]
10005c52:	4798      	blx	r3
10005c54:	bd10      	pop	{r4, pc}
10005c56:	46c0      	nop			@ (mov r8, r8)

10005c58 <stdio_out_chars_crlf>:
10005c58:	b5f0      	push	{r4, r5, r6, r7, lr}
10005c5a:	46c6      	mov	lr, r8
10005c5c:	b500      	push	{lr}
10005c5e:	7d43      	ldrb	r3, [r0, #21]
10005c60:	0007      	movs	r7, r0
10005c62:	000d      	movs	r5, r1
10005c64:	0016      	movs	r6, r2
10005c66:	2b00      	cmp	r3, #0
10005c68:	d038      	beq.n	10005cdc <stdio_out_chars_crlf+0x84>
10005c6a:	2a00      	cmp	r2, #0
10005c6c:	dd2e      	ble.n	10005ccc <stdio_out_chars_crlf+0x74>
10005c6e:	2100      	movs	r1, #0
10005c70:	1e6a      	subs	r2, r5, #1
10005c72:	4690      	mov	r8, r2
10005c74:	5c6a      	ldrb	r2, [r5, r1]
10005c76:	7d03      	ldrb	r3, [r0, #20]
10005c78:	1c4c      	adds	r4, r1, #1
10005c7a:	2000      	movs	r0, #0
10005c7c:	2a0a      	cmp	r2, #10
10005c7e:	d00c      	beq.n	10005c9a <stdio_out_chars_crlf+0x42>
10005c80:	42a6      	cmp	r6, r4
10005c82:	d016      	beq.n	10005cb2 <stdio_out_chars_crlf+0x5a>
10005c84:	4643      	mov	r3, r8
10005c86:	5d1b      	ldrb	r3, [r3, r4]
10005c88:	0021      	movs	r1, r4
10005c8a:	3b0d      	subs	r3, #13
10005c8c:	425a      	negs	r2, r3
10005c8e:	4153      	adcs	r3, r2
10005c90:	5c6a      	ldrb	r2, [r5, r1]
10005c92:	b2db      	uxtb	r3, r3
10005c94:	1c4c      	adds	r4, r1, #1
10005c96:	2a0a      	cmp	r2, #10
10005c98:	d1f2      	bne.n	10005c80 <stdio_out_chars_crlf+0x28>
10005c9a:	2b00      	cmp	r3, #0
10005c9c:	d1f0      	bne.n	10005c80 <stdio_out_chars_crlf+0x28>
10005c9e:	4288      	cmp	r0, r1
10005ca0:	db17      	blt.n	10005cd2 <stdio_out_chars_crlf+0x7a>
10005ca2:	2102      	movs	r1, #2
10005ca4:	4810      	ldr	r0, [pc, #64]	@ (10005ce8 <stdio_out_chars_crlf+0x90>)
10005ca6:	683b      	ldr	r3, [r7, #0]
10005ca8:	4798      	blx	r3
10005caa:	42a6      	cmp	r6, r4
10005cac:	d007      	beq.n	10005cbe <stdio_out_chars_crlf+0x66>
10005cae:	0020      	movs	r0, r4
10005cb0:	e7e8      	b.n	10005c84 <stdio_out_chars_crlf+0x2c>
10005cb2:	4286      	cmp	r6, r0
10005cb4:	dd03      	ble.n	10005cbe <stdio_out_chars_crlf+0x66>
10005cb6:	1a31      	subs	r1, r6, r0
10005cb8:	683b      	ldr	r3, [r7, #0]
10005cba:	1828      	adds	r0, r5, r0
10005cbc:	4798      	blx	r3
10005cbe:	19ad      	adds	r5, r5, r6
10005cc0:	3d01      	subs	r5, #1
10005cc2:	782b      	ldrb	r3, [r5, #0]
10005cc4:	3b0d      	subs	r3, #13
10005cc6:	425a      	negs	r2, r3
10005cc8:	4153      	adcs	r3, r2
10005cca:	753b      	strb	r3, [r7, #20]
10005ccc:	bc80      	pop	{r7}
10005cce:	46b8      	mov	r8, r7
10005cd0:	bdf0      	pop	{r4, r5, r6, r7, pc}
10005cd2:	1a09      	subs	r1, r1, r0
10005cd4:	683b      	ldr	r3, [r7, #0]
10005cd6:	1828      	adds	r0, r5, r0
10005cd8:	4798      	blx	r3
10005cda:	e7e2      	b.n	10005ca2 <stdio_out_chars_crlf+0x4a>
10005cdc:	6803      	ldr	r3, [r0, #0]
10005cde:	0011      	movs	r1, r2
10005ce0:	0028      	movs	r0, r5
10005ce2:	4798      	blx	r3
10005ce4:	e7f2      	b.n	10005ccc <stdio_out_chars_crlf+0x74>
10005ce6:	46c0      	nop			@ (mov r8, r8)
10005ce8:	100156ac 	.word	0x100156ac

10005cec <stdio_put_string>:
10005cec:	b5f0      	push	{r4, r5, r6, r7, lr}
10005cee:	46de      	mov	lr, fp
10005cf0:	4657      	mov	r7, sl
10005cf2:	464e      	mov	r6, r9
10005cf4:	4645      	mov	r5, r8
10005cf6:	b5e0      	push	{r5, r6, r7, lr}
10005cf8:	b085      	sub	sp, #20
10005cfa:	0017      	movs	r7, r2
10005cfc:	001c      	movs	r4, r3
10005cfe:	0006      	movs	r6, r0
10005d00:	000d      	movs	r5, r1
10005d02:	f7fe fb1d 	bl	10004340 <time_us_64>
10005d06:	2300      	movs	r3, #0
10005d08:	4a31      	ldr	r2, [pc, #196]	@ (10005dd0 <stdio_put_string+0xe4>)
10005d0a:	1812      	adds	r2, r2, r0
10005d0c:	414b      	adcs	r3, r1
10005d0e:	2180      	movs	r1, #128	@ 0x80
10005d10:	0609      	lsls	r1, r1, #24
10005d12:	428b      	cmp	r3, r1
10005d14:	d302      	bcc.n	10005d1c <stdio_put_string+0x30>
10005d16:	2201      	movs	r2, #1
10005d18:	4b2e      	ldr	r3, [pc, #184]	@ (10005dd4 <stdio_put_string+0xe8>)
10005d1a:	4252      	negs	r2, r2
10005d1c:	492e      	ldr	r1, [pc, #184]	@ (10005dd8 <stdio_put_string+0xec>)
10005d1e:	0008      	movs	r0, r1
10005d20:	468a      	mov	sl, r1
10005d22:	f00d fcb1 	bl	10013688 <__mutex_try_enter_block_until_veneer>
10005d26:	9001      	str	r0, [sp, #4]
10005d28:	1c6b      	adds	r3, r5, #1
10005d2a:	d103      	bne.n	10005d34 <stdio_put_string+0x48>
10005d2c:	0030      	movs	r0, r6
10005d2e:	f008 f9bf 	bl	1000e0b0 <strlen>
10005d32:	0005      	movs	r5, r0
10005d34:	2c00      	cmp	r4, #0
10005d36:	d026      	beq.n	10005d86 <stdio_put_string+0x9a>
10005d38:	4b28      	ldr	r3, [pc, #160]	@ (10005ddc <stdio_put_string+0xf0>)
10005d3a:	4698      	mov	r8, r3
10005d3c:	4b28      	ldr	r3, [pc, #160]	@ (10005de0 <stdio_put_string+0xf4>)
10005d3e:	681c      	ldr	r4, [r3, #0]
10005d40:	2c00      	cmp	r4, #0
10005d42:	d015      	beq.n	10005d70 <stdio_put_string+0x84>
10005d44:	2f00      	cmp	r7, #0
10005d46:	d121      	bne.n	10005d8c <stdio_put_string+0xa0>
10005d48:	4f26      	ldr	r7, [pc, #152]	@ (10005de4 <stdio_put_string+0xf8>)
10005d4a:	e002      	b.n	10005d52 <stdio_put_string+0x66>
10005d4c:	6924      	ldr	r4, [r4, #16]
10005d4e:	2c00      	cmp	r4, #0
10005d50:	d00e      	beq.n	10005d70 <stdio_put_string+0x84>
10005d52:	6823      	ldr	r3, [r4, #0]
10005d54:	2b00      	cmp	r3, #0
10005d56:	d0f9      	beq.n	10005d4c <stdio_put_string+0x60>
10005d58:	683b      	ldr	r3, [r7, #0]
10005d5a:	2b00      	cmp	r3, #0
10005d5c:	d001      	beq.n	10005d62 <stdio_put_string+0x76>
10005d5e:	429c      	cmp	r4, r3
10005d60:	d1f4      	bne.n	10005d4c <stdio_put_string+0x60>
10005d62:	0020      	movs	r0, r4
10005d64:	002a      	movs	r2, r5
10005d66:	0031      	movs	r1, r6
10005d68:	47c0      	blx	r8
10005d6a:	6924      	ldr	r4, [r4, #16]
10005d6c:	2c00      	cmp	r4, #0
10005d6e:	d1f0      	bne.n	10005d52 <stdio_put_string+0x66>
10005d70:	9b01      	ldr	r3, [sp, #4]
10005d72:	2b00      	cmp	r3, #0
10005d74:	d128      	bne.n	10005dc8 <stdio_put_string+0xdc>
10005d76:	0028      	movs	r0, r5
10005d78:	b005      	add	sp, #20
10005d7a:	bcf0      	pop	{r4, r5, r6, r7}
10005d7c:	46bb      	mov	fp, r7
10005d7e:	46b2      	mov	sl, r6
10005d80:	46a9      	mov	r9, r5
10005d82:	46a0      	mov	r8, r4
10005d84:	bdf0      	pop	{r4, r5, r6, r7, pc}
10005d86:	4b18      	ldr	r3, [pc, #96]	@ (10005de8 <stdio_put_string+0xfc>)
10005d88:	4698      	mov	r8, r3
10005d8a:	e7d7      	b.n	10005d3c <stdio_put_string+0x50>
10005d8c:	4b15      	ldr	r3, [pc, #84]	@ (10005de4 <stdio_put_string+0xf8>)
10005d8e:	4699      	mov	r9, r3
10005d90:	ab02      	add	r3, sp, #8
10005d92:	1ddf      	adds	r7, r3, #7
10005d94:	230a      	movs	r3, #10
10005d96:	469b      	mov	fp, r3
10005d98:	e002      	b.n	10005da0 <stdio_put_string+0xb4>
10005d9a:	6924      	ldr	r4, [r4, #16]
10005d9c:	2c00      	cmp	r4, #0
10005d9e:	d0e7      	beq.n	10005d70 <stdio_put_string+0x84>
10005da0:	6823      	ldr	r3, [r4, #0]
10005da2:	2b00      	cmp	r3, #0
10005da4:	d0f9      	beq.n	10005d9a <stdio_put_string+0xae>
10005da6:	464b      	mov	r3, r9
10005da8:	681b      	ldr	r3, [r3, #0]
10005daa:	2b00      	cmp	r3, #0
10005dac:	d001      	beq.n	10005db2 <stdio_put_string+0xc6>
10005dae:	42a3      	cmp	r3, r4
10005db0:	d1f3      	bne.n	10005d9a <stdio_put_string+0xae>
10005db2:	002a      	movs	r2, r5
10005db4:	0031      	movs	r1, r6
10005db6:	0020      	movs	r0, r4
10005db8:	47c0      	blx	r8
10005dba:	465b      	mov	r3, fp
10005dbc:	2201      	movs	r2, #1
10005dbe:	0039      	movs	r1, r7
10005dc0:	0020      	movs	r0, r4
10005dc2:	703b      	strb	r3, [r7, #0]
10005dc4:	47c0      	blx	r8
10005dc6:	e7e8      	b.n	10005d9a <stdio_put_string+0xae>
10005dc8:	4650      	mov	r0, sl
10005dca:	f00d fc15 	bl	100135f8 <__mutex_exit_veneer>
10005dce:	e7d2      	b.n	10005d76 <stdio_put_string+0x8a>
10005dd0:	000f4240 	.word	0x000f4240
10005dd4:	7fffffff 	.word	0x7fffffff
10005dd8:	200018b8 	.word	0x200018b8
10005ddc:	10005c59 	.word	0x10005c59
10005de0:	20004d60 	.word	0x20004d60
10005de4:	20004d6c 	.word	0x20004d6c
10005de8:	10005c49 	.word	0x10005c49

10005dec <stdio_get_until>:
10005dec:	b5f8      	push	{r3, r4, r5, r6, r7, lr}
10005dee:	4657      	mov	r7, sl
10005df0:	464e      	mov	r6, r9
10005df2:	4645      	mov	r5, r8
10005df4:	46de      	mov	lr, fp
10005df6:	4698      	mov	r8, r3
10005df8:	4b1a      	ldr	r3, [pc, #104]	@ (10005e64 <stdio_get_until+0x78>)
10005dfa:	b5e0      	push	{r5, r6, r7, lr}
10005dfc:	469b      	mov	fp, r3
10005dfe:	4b1a      	ldr	r3, [pc, #104]	@ (10005e68 <stdio_get_until+0x7c>)
10005e00:	0007      	movs	r7, r0
10005e02:	000e      	movs	r6, r1
10005e04:	4691      	mov	r9, r2
10005e06:	469a      	mov	sl, r3
10005e08:	4d18      	ldr	r5, [pc, #96]	@ (10005e6c <stdio_get_until+0x80>)
10005e0a:	465b      	mov	r3, fp
10005e0c:	681c      	ldr	r4, [r3, #0]
10005e0e:	2c00      	cmp	r4, #0
10005e10:	d103      	bne.n	10005e1a <stdio_get_until+0x2e>
10005e12:	e015      	b.n	10005e40 <stdio_get_until+0x54>
10005e14:	6924      	ldr	r4, [r4, #16]
10005e16:	2c00      	cmp	r4, #0
10005e18:	d012      	beq.n	10005e40 <stdio_get_until+0x54>
10005e1a:	682b      	ldr	r3, [r5, #0]
10005e1c:	2b00      	cmp	r3, #0
10005e1e:	d001      	beq.n	10005e24 <stdio_get_until+0x38>
10005e20:	42a3      	cmp	r3, r4
10005e22:	d1f7      	bne.n	10005e14 <stdio_get_until+0x28>
10005e24:	68a3      	ldr	r3, [r4, #8]
10005e26:	2b00      	cmp	r3, #0
10005e28:	d0f4      	beq.n	10005e14 <stdio_get_until+0x28>
10005e2a:	0031      	movs	r1, r6
10005e2c:	0038      	movs	r0, r7
10005e2e:	4798      	blx	r3
10005e30:	2800      	cmp	r0, #0
10005e32:	ddef      	ble.n	10005e14 <stdio_get_until+0x28>
10005e34:	bcf0      	pop	{r4, r5, r6, r7}
10005e36:	46bb      	mov	fp, r7
10005e38:	46b2      	mov	sl, r6
10005e3a:	46a9      	mov	r9, r5
10005e3c:	46a0      	mov	r8, r4
10005e3e:	bdf8      	pop	{r3, r4, r5, r6, r7, pc}
10005e40:	4653      	mov	r3, sl
10005e42:	6a5b      	ldr	r3, [r3, #36]	@ 0x24
10005e44:	4598      	cmp	r8, r3
10005e46:	d808      	bhi.n	10005e5a <stdio_get_until+0x6e>
10005e48:	4652      	mov	r2, sl
10005e4a:	6a92      	ldr	r2, [r2, #40]	@ 0x28
10005e4c:	454a      	cmp	r2, r9
10005e4e:	d302      	bcc.n	10005e56 <stdio_get_until+0x6a>
10005e50:	2002      	movs	r0, #2
10005e52:	4240      	negs	r0, r0
10005e54:	e7ee      	b.n	10005e34 <stdio_get_until+0x48>
10005e56:	4598      	cmp	r8, r3
10005e58:	d1fa      	bne.n	10005e50 <stdio_get_until+0x64>
10005e5a:	2001      	movs	r0, #1
10005e5c:	2100      	movs	r1, #0
10005e5e:	f7fe fa79 	bl	10004354 <busy_wait_us>
10005e62:	e7d2      	b.n	10005e0a <stdio_get_until+0x1e>
10005e64:	20004d60 	.word	0x20004d60
10005e68:	40054000 	.word	0x40054000
10005e6c:	20004d6c 	.word	0x20004d6c

10005e70 <stdio_set_driver_enabled>:
10005e70:	4a0a      	ldr	r2, [pc, #40]	@ (10005e9c <stdio_set_driver_enabled+0x2c>)
10005e72:	6813      	ldr	r3, [r2, #0]
10005e74:	2b00      	cmp	r3, #0
10005e76:	d105      	bne.n	10005e84 <stdio_set_driver_enabled+0x14>
10005e78:	e00c      	b.n	10005e94 <stdio_set_driver_enabled+0x24>
10005e7a:	001a      	movs	r2, r3
10005e7c:	691b      	ldr	r3, [r3, #16]
10005e7e:	3210      	adds	r2, #16
10005e80:	2b00      	cmp	r3, #0
10005e82:	d007      	beq.n	10005e94 <stdio_set_driver_enabled+0x24>
10005e84:	4298      	cmp	r0, r3
10005e86:	d1f8      	bne.n	10005e7a <stdio_set_driver_enabled+0xa>
10005e88:	2900      	cmp	r1, #0
10005e8a:	d102      	bne.n	10005e92 <stdio_set_driver_enabled+0x22>
10005e8c:	6903      	ldr	r3, [r0, #16]
10005e8e:	6013      	str	r3, [r2, #0]
10005e90:	6101      	str	r1, [r0, #16]
10005e92:	4770      	bx	lr
10005e94:	2900      	cmp	r1, #0
10005e96:	d0fc      	beq.n	10005e92 <stdio_set_driver_enabled+0x22>
10005e98:	6010      	str	r0, [r2, #0]
10005e9a:	e7fa      	b.n	10005e92 <stdio_set_driver_enabled+0x22>
10005e9c:	20004d60 	.word	0x20004d60

10005ea0 <stdio_init_all>:
10005ea0:	b510      	push	{r4, lr}
10005ea2:	f000 fa8d 	bl	100063c0 <stdio_usb_init>
10005ea6:	bd10      	pop	{r4, pc}

10005ea8 <__wrap_putchar>:
10005ea8:	b5f0      	push	{r4, r5, r6, r7, lr}
10005eaa:	46ce      	mov	lr, r9
10005eac:	4647      	mov	r7, r8
10005eae:	b580      	push	{r7, lr}
10005eb0:	b083      	sub	sp, #12
10005eb2:	466b      	mov	r3, sp
10005eb4:	0006      	movs	r6, r0
10005eb6:	1ddd      	adds	r5, r3, #7
10005eb8:	7028      	strb	r0, [r5, #0]
10005eba:	f7fe fa41 	bl	10004340 <time_us_64>
10005ebe:	2300      	movs	r3, #0
10005ec0:	4a1a      	ldr	r2, [pc, #104]	@ (10005f2c <__wrap_putchar+0x84>)
10005ec2:	1812      	adds	r2, r2, r0
10005ec4:	414b      	adcs	r3, r1
10005ec6:	2180      	movs	r1, #128	@ 0x80
10005ec8:	0609      	lsls	r1, r1, #24
10005eca:	428b      	cmp	r3, r1
10005ecc:	d302      	bcc.n	10005ed4 <__wrap_putchar+0x2c>
10005ece:	2201      	movs	r2, #1
10005ed0:	4b17      	ldr	r3, [pc, #92]	@ (10005f30 <__wrap_putchar+0x88>)
10005ed2:	4252      	negs	r2, r2
10005ed4:	4917      	ldr	r1, [pc, #92]	@ (10005f34 <__wrap_putchar+0x8c>)
10005ed6:	0008      	movs	r0, r1
10005ed8:	4688      	mov	r8, r1
10005eda:	f00d fbd5 	bl	10013688 <__mutex_try_enter_block_until_veneer>
10005ede:	4b16      	ldr	r3, [pc, #88]	@ (10005f38 <__wrap_putchar+0x90>)
10005ee0:	4681      	mov	r9, r0
10005ee2:	681c      	ldr	r4, [r3, #0]
10005ee4:	2c00      	cmp	r4, #0
10005ee6:	d014      	beq.n	10005f12 <__wrap_putchar+0x6a>
10005ee8:	4f14      	ldr	r7, [pc, #80]	@ (10005f3c <__wrap_putchar+0x94>)
10005eea:	e002      	b.n	10005ef2 <__wrap_putchar+0x4a>
10005eec:	6924      	ldr	r4, [r4, #16]
10005eee:	2c00      	cmp	r4, #0
10005ef0:	d00f      	beq.n	10005f12 <__wrap_putchar+0x6a>
10005ef2:	6823      	ldr	r3, [r4, #0]
10005ef4:	2b00      	cmp	r3, #0
10005ef6:	d0f9      	beq.n	10005eec <__wrap_putchar+0x44>
10005ef8:	683b      	ldr	r3, [r7, #0]
10005efa:	2b00      	cmp	r3, #0
10005efc:	d001      	beq.n	10005f02 <__wrap_putchar+0x5a>
10005efe:	429c      	cmp	r4, r3
10005f00:	d1f4      	bne.n	10005eec <__wrap_putchar+0x44>
10005f02:	0020      	movs	r0, r4
10005f04:	2201      	movs	r2, #1
10005f06:	0029      	movs	r1, r5
10005f08:	f7ff fea6 	bl	10005c58 <stdio_out_chars_crlf>
10005f0c:	6924      	ldr	r4, [r4, #16]
10005f0e:	2c00      	cmp	r4, #0
10005f10:	d1ef      	bne.n	10005ef2 <__wrap_putchar+0x4a>
10005f12:	464b      	mov	r3, r9
10005f14:	2b00      	cmp	r3, #0
10005f16:	d105      	bne.n	10005f24 <__wrap_putchar+0x7c>
10005f18:	0030      	movs	r0, r6
10005f1a:	b003      	add	sp, #12
10005f1c:	bcc0      	pop	{r6, r7}
10005f1e:	46b9      	mov	r9, r7
10005f20:	46b0      	mov	r8, r6
10005f22:	bdf0      	pop	{r4, r5, r6, r7, pc}
10005f24:	4640      	mov	r0, r8
10005f26:	f00d fb67 	bl	100135f8 <__mutex_exit_veneer>
