
/home/sandra/Escritorio/Prácticas/proyectoTinyML/src/build/tests/kernels_svdf_test/kernels_svdf_test.elf:     file format elf32-littlearm

Sections:
Idx Name          Size      VMA       LMA       File off  Algn
  0 .boot2        00000100  10000000  10000000  00001000  2**0
                  CONTENTS, ALLOC, LOAD, READONLY, CODE
  1 .text         00010230  10000100  10000100  00001100  2**3
                  CONTENTS, ALLOC, LOAD, READONLY, CODE
  2 .rodata       00004288  10010330  10010330  00011330  2**3
                  CONTENTS, ALLOC, LOAD, READONLY, DATA
  3 .ARM.exidx    00000008  100145b8  100145b8  000155b8  2**2
                  CONTENTS, ALLOC, LOAD, READONLY, DATA
  4 .binary_info  00000020  100145c0  100145c0  000155c0  2**2
                  CONTENTS, ALLOC, LOAD, READONLY, DATA
  5 .ram_vector_table 000000c0  20000000  20000000  00018000  2**2
                  ALLOC
  6 .uninitialized_data 00000000  200000c0  200000c0  000178c0  2**0
                  CONTENTS
  7 .data         00001800  200000c0  100145e0  000160c0  2**4
                  CONTENTS, ALLOC, LOAD, READONLY, CODE
  8 .tdata        00000000  200018c0  200018c0  000178c0  2**0
                  CONTENTS, ALLOC, LOAD, DATA, THREAD_LOCAL
  9 .tbss         00000000  200018c0  200018c0  00000000  2**0
                  ALLOC, THREAD_LOCAL
 10 .bss          00003928  200018c0  10015de0  000178c0  2**3
                  ALLOC
 11 .heap         00000800  200051e8  200051e8  000178c0  2**2
                  CONTENTS, READONLY
 12 .scratch_x    00000000  20040000  20040000  000180c0  2**0
                  CONTENTS
 13 .scratch_y    00000000  20041000  20041000  000180c0  2**0
                  CONTENTS
 14 .stack1_dummy 00000800  20040000  20040000  00018000  2**2
                  ALLOC
 15 .stack_dummy  00000800  20041000  20041000  000180c0  2**5
                  CONTENTS, READONLY
 16 .ARM.attributes 00000028  00000000  00000000  000188c0  2**0
                  CONTENTS, READONLY
 17 .comment      00000045  00000000  00000000  000188e8  2**0
                  CONTENTS, READONLY
 18 .debug_info   001248f6  00000000  00000000  0001892d  2**0
                  CONTENTS, READONLY, DEBUGGING, OCTETS
 19 .debug_abbrev 0001254e  00000000  00000000  0013d223  2**0
                  CONTENTS, READONLY, DEBUGGING, OCTETS
 20 .debug_loclists 00059bec  00000000  00000000  0014f771  2**0
                  CONTENTS, READONLY, DEBUGGING, OCTETS
 21 .debug_aranges 00002208  00000000  00000000  001a9360  2**3
                  CONTENTS, READONLY, DEBUGGING, OCTETS
 22 .debug_rnglists 000149df  00000000  00000000  001ab568  2**0
                  CONTENTS, READONLY, DEBUGGING, OCTETS
 23 .debug_line   00057479  00000000  00000000  001bff47  2**0
                  CONTENTS, READONLY, DEBUGGING, OCTETS
 24 .debug_str    000ac060  00000000  00000000  002173c0  2**0
                  CONTENTS, READONLY, DEBUGGING, OCTETS
 25 .debug_frame  000066c4  00000000  00000000  002c3420  2**2
                  CONTENTS, READONLY, DEBUGGING, OCTETS
 26 .debug_line_str 00000370  00000000  00000000  002c9ae4  2**0
                  CONTENTS, READONLY, DEBUGGING, OCTETS

/home/sandra/Escritorio/Prácticas/proyectoTinyML/src/build/tests/kernels_svdf_test/kernels_svdf_test.elf:     file format elf32-littlearm


Disassembly of section .boot2:

10000000 <__boot2_start__>:
10000000:	4b32b500 	.word	0x4b32b500
10000004:	60582021 	.word	0x60582021
10000008:	21026898 	.word	0x21026898
1000000c:	60984388 	.word	0x60984388
10000010:	611860d8 	.word	0x611860d8
10000014:	4b2e6158 	.word	0x4b2e6158
10000018:	60992100 	.word	0x60992100
1000001c:	61592102 	.word	0x61592102
10000020:	22f02101 	.word	0x22f02101
10000024:	492b5099 	.word	0x492b5099
10000028:	21016019 	.word	0x21016019
1000002c:	20356099 	.word	0x20356099
10000030:	f844f000 	.word	0xf844f000
10000034:	42902202 	.word	0x42902202
10000038:	2106d014 	.word	0x2106d014
1000003c:	f0006619 	.word	0xf0006619
10000040:	6e19f834 	.word	0x6e19f834
10000044:	66192101 	.word	0x66192101
10000048:	66182000 	.word	0x66182000
1000004c:	f000661a 	.word	0xf000661a
10000050:	6e19f82c 	.word	0x6e19f82c
10000054:	6e196e19 	.word	0x6e196e19
10000058:	f0002005 	.word	0xf0002005
1000005c:	2101f82f 	.word	0x2101f82f
10000060:	d1f94208 	.word	0xd1f94208
10000064:	60992100 	.word	0x60992100
10000068:	6019491b 	.word	0x6019491b
1000006c:	60592100 	.word	0x60592100
10000070:	481b491a 	.word	0x481b491a
10000074:	21016001 	.word	0x21016001
10000078:	21eb6099 	.word	0x21eb6099
1000007c:	21a06619 	.word	0x21a06619
10000080:	f0006619 	.word	0xf0006619
10000084:	2100f812 	.word	0x2100f812
10000088:	49166099 	.word	0x49166099
1000008c:	60014814 	.word	0x60014814
10000090:	60992101 	.word	0x60992101
10000094:	2800bc01 	.word	0x2800bc01
10000098:	4700d000 	.word	0x4700d000
1000009c:	49134812 	.word	0x49134812
100000a0:	c8036008 	.word	0xc8036008
100000a4:	8808f380 	.word	0x8808f380
100000a8:	b5034708 	.word	0xb5034708
100000ac:	20046a99 	.word	0x20046a99
100000b0:	d0fb4201 	.word	0xd0fb4201
100000b4:	42012001 	.word	0x42012001
100000b8:	bd03d1f8 	.word	0xbd03d1f8
100000bc:	6618b502 	.word	0x6618b502
100000c0:	f7ff6618 	.word	0xf7ff6618
100000c4:	6e18fff2 	.word	0x6e18fff2
100000c8:	bd026e18 	.word	0xbd026e18
100000cc:	40020000 	.word	0x40020000
100000d0:	18000000 	.word	0x18000000
100000d4:	00070000 	.word	0x00070000
100000d8:	005f0300 	.word	0x005f0300
100000dc:	00002221 	.word	0x00002221
100000e0:	180000f4 	.word	0x180000f4
100000e4:	a0002022 	.word	0xa0002022
100000e8:	10000100 	.word	0x10000100
100000ec:	e000ed08 	.word	0xe000ed08
	...
100000fc:	7a4eb274 	.word	0x7a4eb274

Disassembly of section .text:

10000100 <__VECTOR_TABLE>:
10000100:	20042000 	.word	0x20042000
10000104:	100001f7 	.word	0x100001f7
10000108:	100001c3 	.word	0x100001c3
1000010c:	100001c5 	.word	0x100001c5
10000110:	100001c1 	.word	0x100001c1
10000114:	100001c1 	.word	0x100001c1
10000118:	100001c1 	.word	0x100001c1
1000011c:	100001c1 	.word	0x100001c1
10000120:	100001c1 	.word	0x100001c1
10000124:	100001c1 	.word	0x100001c1
10000128:	100001c1 	.word	0x100001c1
1000012c:	100001c7 	.word	0x100001c7
10000130:	100001c1 	.word	0x100001c1
10000134:	100001c1 	.word	0x100001c1
10000138:	100001c9 	.word	0x100001c9
1000013c:	100001cb 	.word	0x100001cb
10000140:	100001cd 	.word	0x100001cd
10000144:	100001cd 	.word	0x100001cd
10000148:	100001cd 	.word	0x100001cd
1000014c:	100001cd 	.word	0x100001cd
10000150:	100001cd 	.word	0x100001cd
10000154:	100001cd 	.word	0x100001cd
10000158:	100001cd 	.word	0x100001cd
1000015c:	100001cd 	.word	0x100001cd
10000160:	100001cd 	.word	0x100001cd
10000164:	100001cd 	.word	0x100001cd
10000168:	100001cd 	.word	0x100001cd
1000016c:	100001cd 	.word	0x100001cd
10000170:	100001cd 	.word	0x100001cd
10000174:	100001cd 	.word	0x100001cd
10000178:	100001cd 	.word	0x100001cd
1000017c:	100001cd 	.word	0x100001cd
10000180:	100001cd 	.word	0x100001cd
10000184:	100001cd 	.word	0x100001cd
10000188:	100001cd 	.word	0x100001cd
1000018c:	100001cd 	.word	0x100001cd
10000190:	100001cd 	.word	0x100001cd
10000194:	100001cd 	.word	0x100001cd
10000198:	100001cd 	.word	0x100001cd
1000019c:	100001cd 	.word	0x100001cd
100001a0:	100001cd 	.word	0x100001cd
100001a4:	100001cd 	.word	0x100001cd
100001a8:	100001cd 	.word	0x100001cd
100001ac:	100001cd 	.word	0x100001cd
100001b0:	100001cd 	.word	0x100001cd
100001b4:	100001cd 	.word	0x100001cd
100001b8:	100001cd 	.word	0x100001cd
100001bc:	100001cd 	.word	0x100001cd

100001c0 <isr_invalid>:
100001c0:	be00      	bkpt	0x0000

100001c2 <isr_nmi>:
100001c2:	be00      	bkpt	0x0000

100001c4 <isr_hardfault>:
100001c4:	be00      	bkpt	0x0000

100001c6 <isr_svcall>:
100001c6:	be00      	bkpt	0x0000

100001c8 <isr_pendsv>:
100001c8:	be00      	bkpt	0x0000

100001ca <isr_systick>:
100001ca:	be00      	bkpt	0x0000

100001cc <__unhandled_user_irq>:
100001cc:	f3ef 8005 	mrs	r0, IPSR
100001d0:	3810      	subs	r0, #16

100001d2 <unhandled_user_irq_num_in_r0>:
100001d2:	be00      	bkpt	0x0000

100001d4 <binary_info_header>:
100001d4:	7188ebf2 	.word	0x7188ebf2
100001d8:	100145c0 	.word	0x100145c0
100001dc:	100145e0 	.word	0x100145e0
100001e0:	10000238 	.word	0x10000238
100001e4:	e71aa390 	.word	0xe71aa390

100001e8 <_entry_point>:
100001e8:	481e      	ldr	r0, [pc, #120]	@ (10000264 <data_cpy_table+0x2c>)

100001ea <_enter_vtable_in_r0>:
100001ea:	491f      	ldr	r1, [pc, #124]	@ (10000268 <data_cpy_table+0x30>)
100001ec:	6008      	str	r0, [r1, #0]
100001ee:	c806      	ldmia	r0!, {r1, r2}
100001f0:	f381 8808 	msr	MSP, r1
100001f4:	4710      	bx	r2

100001f6 <_reset_handler>:
100001f6:	481d      	ldr	r0, [pc, #116]	@ (1000026c <data_cpy_table+0x34>)
100001f8:	6800      	ldr	r0, [r0, #0]
100001fa:	2800      	cmp	r0, #0
100001fc:	d001      	beq.n	10000202 <hold_non_core0_in_bootrom+0x4>

100001fe <hold_non_core0_in_bootrom>:
100001fe:	4819      	ldr	r0, [pc, #100]	@ (10000264 <data_cpy_table+0x2c>)
10000200:	e7f3      	b.n	100001ea <_enter_vtable_in_r0>
10000202:	a40d      	add	r4, pc, #52	@ (adr r4, 10000238 <data_cpy_table>)
10000204:	cc0e      	ldmia	r4!, {r1, r2, r3}
10000206:	2900      	cmp	r1, #0
10000208:	d002      	beq.n	10000210 <hold_non_core0_in_bootrom+0x12>
1000020a:	f000 f812 	bl	10000232 <data_cpy>
1000020e:	e7f9      	b.n	10000204 <hold_non_core0_in_bootrom+0x6>
10000210:	4917      	ldr	r1, [pc, #92]	@ (10000270 <data_cpy_table+0x38>)
10000212:	4a18      	ldr	r2, [pc, #96]	@ (10000274 <data_cpy_table+0x3c>)
10000214:	2000      	movs	r0, #0
10000216:	e000      	b.n	1000021a <bss_fill_test>

10000218 <bss_fill_loop>:
10000218:	c101      	stmia	r1!, {r0}

1000021a <bss_fill_test>:
1000021a:	4291      	cmp	r1, r2
1000021c:	d1fc      	bne.n	10000218 <bss_fill_loop>

1000021e <platform_entry>:
1000021e:	4916      	ldr	r1, [pc, #88]	@ (10000278 <data_cpy_table+0x40>)
10000220:	4788      	blx	r1
10000222:	4916      	ldr	r1, [pc, #88]	@ (1000027c <data_cpy_table+0x44>)
10000224:	4788      	blx	r1
10000226:	4916      	ldr	r1, [pc, #88]	@ (10000280 <data_cpy_table+0x48>)
10000228:	4788      	blx	r1
1000022a:	be00      	bkpt	0x0000
1000022c:	e7fd      	b.n	1000022a <platform_entry+0xc>

1000022e <data_cpy_loop>:
1000022e:	c901      	ldmia	r1!, {r0}
10000230:	c201      	stmia	r2!, {r0}

10000232 <data_cpy>:
10000232:	429a      	cmp	r2, r3
10000234:	d3fb      	bcc.n	1000022e <data_cpy_loop>
10000236:	4770      	bx	lr

10000238 <data_cpy_table>:
10000238:	100145e0 	.word	0x100145e0
1000023c:	200000c0 	.word	0x200000c0
10000240:	200018c0 	.word	0x200018c0
10000244:	10015de0 	.word	0x10015de0
10000248:	20040000 	.word	0x20040000
1000024c:	20040000 	.word	0x20040000
10000250:	10015de0 	.word	0x10015de0
10000254:	20041000 	.word	0x20041000
10000258:	20041000 	.word	0x20041000
1000025c:	00000000 	.word	0x00000000
10000260:	4770      	bx	lr
10000262:	0000      	.short	0x0000
10000264:	00000000 	.word	0x00000000
10000268:	e000ed08 	.word	0xe000ed08
1000026c:	d0000000 	.word	0xd0000000
10000270:	200018c0 	.word	0x200018c0
10000274:	200051e8 	.word	0x200051e8
10000278:	10005631 	.word	0x10005631
1000027c:	10000e5d 	.word	0x10000e5d
10000280:	100055f1 	.word	0x100055f1

10000284 <_init>:
10000284:	b5f8      	push	{r3, r4, r5, r6, r7, lr}
10000286:	46c0      	nop			@ (mov r8, r8)

10000288 <register_tm_clones>:
10000288:	4806      	ldr	r0, [pc, #24]	@ (100002a4 <register_tm_clones+0x1c>)
1000028a:	4907      	ldr	r1, [pc, #28]	@ (100002a8 <register_tm_clones+0x20>)
1000028c:	1a09      	subs	r1, r1, r0
1000028e:	108b      	asrs	r3, r1, #2
10000290:	0fc9      	lsrs	r1, r1, #31
10000292:	18c9      	adds	r1, r1, r3
10000294:	b510      	push	{r4, lr}
10000296:	1049      	asrs	r1, r1, #1
10000298:	d003      	beq.n	100002a2 <register_tm_clones+0x1a>
1000029a:	4b04      	ldr	r3, [pc, #16]	@ (100002ac <register_tm_clones+0x24>)
1000029c:	2b00      	cmp	r3, #0
1000029e:	d000      	beq.n	100002a2 <register_tm_clones+0x1a>
100002a0:	4798      	blx	r3
100002a2:	bd10      	pop	{r4, pc}
100002a4:	200018c0 	.word	0x200018c0
100002a8:	200018c0 	.word	0x200018c0
100002ac:	00000000 	.word	0x00000000

100002b0 <frame_dummy>:
100002b0:	4b05      	ldr	r3, [pc, #20]	@ (100002c8 <frame_dummy+0x18>)
100002b2:	b510      	push	{r4, lr}
100002b4:	2b00      	cmp	r3, #0
100002b6:	d003      	beq.n	100002c0 <frame_dummy+0x10>
100002b8:	4904      	ldr	r1, [pc, #16]	@ (100002cc <frame_dummy+0x1c>)
100002ba:	4805      	ldr	r0, [pc, #20]	@ (100002d0 <frame_dummy+0x20>)
100002bc:	e000      	b.n	100002c0 <frame_dummy+0x10>
100002be:	bf00      	nop
100002c0:	f7ff ffe2 	bl	10000288 <register_tm_clones>
100002c4:	bd10      	pop	{r4, pc}
100002c6:	46c0      	nop			@ (mov r8, r8)
100002c8:	00000000 	.word	0x00000000
100002cc:	20005184 	.word	0x20005184
100002d0:	10010330 	.word	0x10010330

100002d4 <_ZN6tflite7testing21CreateQuantizedTensorIsEE12TfLiteTensorPKfPT_P14TfLiteIntArrayfib10TfLiteType.constprop.0>:
100002d4:	b5f0      	push	{r4, r5, r6, r7, lr}
100002d6:	4657      	mov	r7, sl
100002d8:	46de      	mov	lr, fp
100002da:	4645      	mov	r5, r8
100002dc:	464e      	mov	r6, r9
100002de:	469b      	mov	fp, r3
100002e0:	b5e0      	push	{r5, r6, r7, lr}
100002e2:	b083      	sub	sp, #12
100002e4:	ab0c      	add	r3, sp, #48	@ 0x30
100002e6:	000c      	movs	r4, r1
100002e8:	cb02      	ldmia	r3!, {r1}
100002ea:	0007      	movs	r7, r0
100002ec:	781b      	ldrb	r3, [r3, #0]
100002ee:	4658      	mov	r0, fp
100002f0:	0015      	movs	r5, r2
100002f2:	468a      	mov	sl, r1
100002f4:	9200      	str	r2, [sp, #0]
100002f6:	9301      	str	r3, [sp, #4]
100002f8:	f009 f800 	bl	100092fc <_ZN6tflite12ElementCountERK14TfLiteIntArray>
100002fc:	2800      	cmp	r0, #0
100002fe:	dd25      	ble.n	1000034c <_ZN6tflite7testing21CreateQuantizedTensorIsEE12TfLiteTensorPKfPT_P14TfLiteIntArrayfib10TfLiteType.constprop.0+0x78>
10000300:	2380      	movs	r3, #128	@ 0x80
10000302:	021b      	lsls	r3, r3, #8
10000304:	4698      	mov	r8, r3
10000306:	4b21      	ldr	r3, [pc, #132]	@ (1000038c <_ZN6tflite7testing21CreateQuantizedTensorIsEE12TfLiteTensorPKfPT_P14TfLiteIntArrayfib10TfLiteType.constprop.0+0xb8>)
10000308:	0080      	lsls	r0, r0, #2
1000030a:	4699      	mov	r9, r3
1000030c:	4653      	mov	r3, sl
1000030e:	1826      	adds	r6, r4, r0
10000310:	46ba      	mov	sl, r7
10000312:	0037      	movs	r7, r6
10000314:	1c1e      	adds	r6, r3, #0
10000316:	1c31      	adds	r1, r6, #0
10000318:	6820      	ldr	r0, [r4, #0]
1000031a:	f004 ff8c 	bl	10005236 <__wrap___aeabi_fdiv>
1000031e:	f005 f807 	bl	10005330 <__wrap___aeabi_f2d>
10000322:	f004 fc61 	bl	10004be8 <__wrap_round>
10000326:	2200      	movs	r2, #0
10000328:	2300      	movs	r3, #0
1000032a:	f004 fb0d 	bl	10004948 <__wrap___aeabi_dadd>
1000032e:	f004 fbb9 	bl	10004aa4 <__wrap___aeabi_d2iz>
10000332:	4540      	cmp	r0, r8
10000334:	db00      	blt.n	10000338 <_ZN6tflite7testing21CreateQuantizedTensorIsEE12TfLiteTensorPKfPT_P14TfLiteIntArrayfib10TfLiteType.constprop.0+0x64>
10000336:	4816      	ldr	r0, [pc, #88]	@ (10000390 <_ZN6tflite7testing21CreateQuantizedTensorIsEE12TfLiteTensorPKfPT_P14TfLiteIntArrayfib10TfLiteType.constprop.0+0xbc>)
10000338:	4548      	cmp	r0, r9
1000033a:	da00      	bge.n	1000033e <_ZN6tflite7testing21CreateQuantizedTensorIsEE12TfLiteTensorPKfPT_P14TfLiteIntArrayfib10TfLiteType.constprop.0+0x6a>
1000033c:	4813      	ldr	r0, [pc, #76]	@ (1000038c <_ZN6tflite7testing21CreateQuantizedTensorIsEE12TfLiteTensorPKfPT_P14TfLiteIntArrayfib10TfLiteType.constprop.0+0xb8>)
1000033e:	3404      	adds	r4, #4
10000340:	8028      	strh	r0, [r5, #0]
10000342:	3502      	adds	r5, #2
10000344:	42bc      	cmp	r4, r7
10000346:	d1e6      	bne.n	10000316 <_ZN6tflite7testing21CreateQuantizedTensorIsEE12TfLiteTensorPKfPT_P14TfLiteIntArrayfib10TfLiteType.constprop.0+0x42>
10000348:	4657      	mov	r7, sl
1000034a:	46b2      	mov	sl, r6
1000034c:	465b      	mov	r3, fp
1000034e:	617b      	str	r3, [r7, #20]
10000350:	2300      	movs	r3, #0
10000352:	60fb      	str	r3, [r7, #12]
10000354:	607b      	str	r3, [r7, #4]
10000356:	9b01      	ldr	r3, [sp, #4]
10000358:	4658      	mov	r0, fp
1000035a:	77bb      	strb	r3, [r7, #30]
1000035c:	9b00      	ldr	r3, [sp, #0]
1000035e:	613b      	str	r3, [r7, #16]
10000360:	2307      	movs	r3, #7
10000362:	83bb      	strh	r3, [r7, #28]
10000364:	f008 ffca 	bl	100092fc <_ZN6tflite12ElementCountERK14TfLiteIntArray>
10000368:	0004      	movs	r4, r0
1000036a:	2007      	movs	r0, #7
1000036c:	f007 fedc 	bl	10008128 <_ZN6tflite17TfLiteTypeGetSizeE10TfLiteType>
10000370:	4653      	mov	r3, sl
10000372:	4360      	muls	r0, r4
10000374:	60bb      	str	r3, [r7, #8]
10000376:	61b8      	str	r0, [r7, #24]
10000378:	2301      	movs	r3, #1
1000037a:	0038      	movs	r0, r7
1000037c:	603b      	str	r3, [r7, #0]
1000037e:	b003      	add	sp, #12
10000380:	bcf0      	pop	{r4, r5, r6, r7}
10000382:	46bb      	mov	fp, r7
10000384:	46b2      	mov	sl, r6
10000386:	46a9      	mov	r9, r5
10000388:	46a0      	mov	r8, r4
1000038a:	bdf0      	pop	{r4, r5, r6, r7, pc}
1000038c:	ffff8000 	.word	0xffff8000
10000390:	00007fff 	.word	0x00007fff

10000394 <_ZN6tflite7testing12_GLOBAL__N_119ValidateSVDFGoldensIaEEviiiiP12TfLiteTensori21TfLiteFusedActivationPKT_iPS6_S8_f.constprop.0>:
10000394:	b5f0      	push	{r4, r5, r6, r7, lr}
10000396:	46de      	mov	lr, fp
10000398:	4657      	mov	r7, sl
1000039a:	464e      	mov	r6, r9
1000039c:	4645      	mov	r5, r8
1000039e:	469a      	mov	sl, r3
100003a0:	2302      	movs	r3, #2
100003a2:	b5e0      	push	{r5, r6, r7, lr}
100003a4:	4cd0      	ldr	r4, [pc, #832]	@ (100006e8 <_ZN6tflite7testing12_GLOBAL__N_119ValidateSVDFGoldensIaEEviiiiP12TfLiteTensori21TfLiteFusedActivationPKT_iPS6_S8_f.constprop.0+0x354>)
100003a6:	0015      	movs	r5, r2
100003a8:	0022      	movs	r2, r4
100003aa:	b0dd      	sub	sp, #372	@ 0x174
100003ac:	9307      	str	r3, [sp, #28]
100003ae:	ae07      	add	r6, sp, #28
100003b0:	3b01      	subs	r3, #1
100003b2:	7133      	strb	r3, [r6, #4]
100003b4:	469b      	mov	fp, r3
100003b6:	ab0b      	add	r3, sp, #44	@ 0x2c
100003b8:	469c      	mov	ip, r3
100003ba:	9404      	str	r4, [sp, #16]
100003bc:	4689      	mov	r9, r1
100003be:	0007      	movs	r7, r0
100003c0:	ca13      	ldmia	r2!, {r0, r1, r4}
100003c2:	c313      	stmia	r3!, {r0, r1, r4}
100003c4:	ca13      	ldmia	r2!, {r0, r1, r4}
100003c6:	c313      	stmia	r3!, {r0, r1, r4}
100003c8:	4660      	mov	r0, ip
100003ca:	f009 f80d 	bl	100093e8 <_ZN6tflite7testing16IntArrayFromIntsEPKi>
100003ce:	4680      	mov	r8, r0
100003d0:	a809      	add	r0, sp, #36	@ 0x24
100003d2:	0003      	movs	r3, r0
100003d4:	9c04      	ldr	r4, [sp, #16]
100003d6:	3418      	adds	r4, #24
100003d8:	cc06      	ldmia	r4!, {r1, r2}
100003da:	c306      	stmia	r3!, {r1, r2}
100003dc:	f009 f804 	bl	100093e8 <_ZN6tflite7testing16IntArrayFromIntsEPKi>
100003e0:	0004      	movs	r4, r0
100003e2:	a811      	add	r0, sp, #68	@ 0x44
100003e4:	f008 fb98 	bl	10008b18 <_ZN6tflite13Register_SVDFEv>
100003e8:	2300      	movs	r3, #0
100003ea:	9303      	str	r3, [sp, #12]
100003ec:	4643      	mov	r3, r8
100003ee:	003a      	movs	r2, r7
100003f0:	9300      	str	r3, [sp, #0]
100003f2:	a911      	add	r1, sp, #68	@ 0x44
100003f4:	2306      	movs	r3, #6
100003f6:	9602      	str	r6, [sp, #8]
100003f8:	9401      	str	r4, [sp, #4]
100003fa:	a818      	add	r0, sp, #96	@ 0x60
100003fc:	f008 fbc6 	bl	10008b8c <_ZN6tflite5micro12KernelRunnerC1ERK16TFLMRegistrationP12TfLiteTensoriP14TfLiteIntArrayS8_PKvS8_>
10000400:	2200      	movs	r2, #0
10000402:	2100      	movs	r1, #0
10000404:	a818      	add	r0, sp, #96	@ 0x60
10000406:	f008 fc15 	bl	10008c34 <_ZN6tflite5micro12KernelRunner14InitAndPrepareEPKcj>
1000040a:	2800      	cmp	r0, #0
1000040c:	d000      	beq.n	10000410 <_ZN6tflite7testing12_GLOBAL__N_119ValidateSVDFGoldensIaEEviiiiP12TfLiteTensori21TfLiteFusedActivationPKT_iPS6_S8_f.constprop.0+0x7c>
1000040e:	e1e7      	b.n	100007e0 <_ZN6tflite7testing12_GLOBAL__N_119ValidateSVDFGoldensIaEEviiiiP12TfLiteTensori21TfLiteFusedActivationPKT_iPS6_S8_f.constprop.0+0x44c>
10000410:	a818      	add	r0, sp, #96	@ 0x60
10000412:	f008 fc09 	bl	10008c28 <_ZN6tflite5micro12KernelRunner29ValidateTempBufferDeallocatedEv>
10000416:	2800      	cmp	r0, #0
10000418:	d100      	bne.n	1000041c <_ZN6tflite7testing12_GLOBAL__N_119ValidateSVDFGoldensIaEEviiiiP12TfLiteTensori21TfLiteFusedActivationPKT_iPS6_S8_f.constprop.0+0x88>
1000041a:	e1b9      	b.n	10000790 <_ZN6tflite7testing12_GLOBAL__N_119ValidateSVDFGoldensIaEEviiiiP12TfLiteTensori21TfLiteFusedActivationPKT_iPS6_S8_f.constprop.0+0x3fc>
1000041c:	2350      	movs	r3, #80	@ 0x50
1000041e:	464e      	mov	r6, r9
10000420:	4699      	mov	r9, r3
10000422:	4bb2      	ldr	r3, [pc, #712]	@ (100006ec <_ZN6tflite7testing12_GLOBAL__N_119ValidateSVDFGoldensIaEEviiiiP12TfLiteTensori21TfLiteFusedActivationPKT_iPS6_S8_f.constprop.0+0x358>)
10000424:	4654      	mov	r4, sl
10000426:	44d1      	add	r9, sl
10000428:	469a      	mov	sl, r3
1000042a:	e00e      	b.n	1000044a <_ZN6tflite7testing12_GLOBAL__N_119ValidateSVDFGoldensIaEEviiiiP12TfLiteTensori21TfLiteFusedActivationPKT_iPS6_S8_f.constprop.0+0xb6>
1000042c:	4ab0      	ldr	r2, [pc, #704]	@ (100006f0 <_ZN6tflite7testing12_GLOBAL__N_119ValidateSVDFGoldensIaEEviiiiP12TfLiteTensori21TfLiteFusedActivationPKT_iPS6_S8_f.constprop.0+0x35c>)
1000042e:	9300      	str	r3, [sp, #0]
10000430:	4651      	mov	r1, sl
10000432:	2300      	movs	r3, #0
10000434:	48af      	ldr	r0, [pc, #700]	@ (100006f4 <_ZN6tflite7testing12_GLOBAL__N_119ValidateSVDFGoldensIaEEviiiiP12TfLiteTensori21TfLiteFusedActivationPKT_iPS6_S8_f.constprop.0+0x360>)
10000436:	f008 ff4f 	bl	100092d8 <_Z11MicroPrintfPKcz>
1000043a:	2201      	movs	r2, #1
1000043c:	4bae      	ldr	r3, [pc, #696]	@ (100006f8 <_ZN6tflite7testing12_GLOBAL__N_119ValidateSVDFGoldensIaEEviiiiP12TfLiteTensori21TfLiteFusedActivationPKT_iPS6_S8_f.constprop.0+0x364>)
1000043e:	701a      	strb	r2, [r3, #0]
10000440:	3408      	adds	r4, #8
10000442:	3604      	adds	r6, #4
10000444:	45a1      	cmp	r9, r4
10000446:	d100      	bne.n	1000044a <_ZN6tflite7testing12_GLOBAL__N_119ValidateSVDFGoldensIaEEviiiiP12TfLiteTensori21TfLiteFusedActivationPKT_iPS6_S8_f.constprop.0+0xb6>
10000448:	e085      	b.n	10000556 <_ZN6tflite7testing12_GLOBAL__N_119ValidateSVDFGoldensIaEEviiiiP12TfLiteTensori21TfLiteFusedActivationPKT_iPS6_S8_f.constprop.0+0x1c2>
1000044a:	0031      	movs	r1, r6
1000044c:	69ba      	ldr	r2, [r7, #24]
1000044e:	6938      	ldr	r0, [r7, #16]
10000450:	f005 f830 	bl	100054b4 <__wrap___aeabi_memcpy>
10000454:	a818      	add	r0, sp, #96	@ 0x60
10000456:	f008 fc41 	bl	10008cdc <_ZN6tflite5micro12KernelRunner6InvokeEv>
1000045a:	1e03      	subs	r3, r0, #0
1000045c:	d1e6      	bne.n	1000042c <_ZN6tflite7testing12_GLOBAL__N_119ValidateSVDFGoldensIaEEviiiiP12TfLiteTensori21TfLiteFusedActivationPKT_iPS6_S8_f.constprop.0+0x98>
1000045e:	2300      	movs	r3, #0
10000460:	56e3      	ldrsb	r3, [r4, r3]
10000462:	469b      	mov	fp, r3
10000464:	2300      	movs	r3, #0
10000466:	56eb      	ldrsb	r3, [r5, r3]
10000468:	4698      	mov	r8, r3
1000046a:	459b      	cmp	fp, r3
1000046c:	dd00      	ble.n	10000470 <_ZN6tflite7testing12_GLOBAL__N_119ValidateSVDFGoldensIaEEviiiiP12TfLiteTensori21TfLiteFusedActivationPKT_iPS6_S8_f.constprop.0+0xdc>
1000046e:	e07f      	b.n	10000570 <_ZN6tflite7testing12_GLOBAL__N_119ValidateSVDFGoldensIaEEviiiiP12TfLiteTensori21TfLiteFusedActivationPKT_iPS6_S8_f.constprop.0+0x1dc>
10000470:	d000      	beq.n	10000474 <_ZN6tflite7testing12_GLOBAL__N_119ValidateSVDFGoldensIaEEviiiiP12TfLiteTensori21TfLiteFusedActivationPKT_iPS6_S8_f.constprop.0+0xe0>
10000472:	e1a0      	b.n	100007b6 <_ZN6tflite7testing12_GLOBAL__N_119ValidateSVDFGoldensIaEEviiiiP12TfLiteTensori21TfLiteFusedActivationPKT_iPS6_S8_f.constprop.0+0x422>
10000474:	2301      	movs	r3, #1
10000476:	56e3      	ldrsb	r3, [r4, r3]
10000478:	469b      	mov	fp, r3
1000047a:	2301      	movs	r3, #1
1000047c:	56eb      	ldrsb	r3, [r5, r3]
1000047e:	4698      	mov	r8, r3
10000480:	459b      	cmp	fp, r3
10000482:	dd00      	ble.n	10000486 <_ZN6tflite7testing12_GLOBAL__N_119ValidateSVDFGoldensIaEEviiiiP12TfLiteTensori21TfLiteFusedActivationPKT_iPS6_S8_f.constprop.0+0xf2>
10000484:	e161      	b.n	1000074a <_ZN6tflite7testing12_GLOBAL__N_119ValidateSVDFGoldensIaEEviiiiP12TfLiteTensori21TfLiteFusedActivationPKT_iPS6_S8_f.constprop.0+0x3b6>
10000486:	d000      	beq.n	1000048a <_ZN6tflite7testing12_GLOBAL__N_119ValidateSVDFGoldensIaEEviiiiP12TfLiteTensori21TfLiteFusedActivationPKT_iPS6_S8_f.constprop.0+0xf6>
10000488:	e1a7      	b.n	100007da <_ZN6tflite7testing12_GLOBAL__N_119ValidateSVDFGoldensIaEEviiiiP12TfLiteTensori21TfLiteFusedActivationPKT_iPS6_S8_f.constprop.0+0x446>
1000048a:	2302      	movs	r3, #2
1000048c:	56e3      	ldrsb	r3, [r4, r3]
1000048e:	469b      	mov	fp, r3
10000490:	2302      	movs	r3, #2
10000492:	56eb      	ldrsb	r3, [r5, r3]
10000494:	4698      	mov	r8, r3
10000496:	459b      	cmp	fp, r3
10000498:	dd00      	ble.n	1000049c <_ZN6tflite7testing12_GLOBAL__N_119ValidateSVDFGoldensIaEEviiiiP12TfLiteTensori21TfLiteFusedActivationPKT_iPS6_S8_f.constprop.0+0x108>
1000049a:	e133      	b.n	10000704 <_ZN6tflite7testing12_GLOBAL__N_119ValidateSVDFGoldensIaEEviiiiP12TfLiteTensori21TfLiteFusedActivationPKT_iPS6_S8_f.constprop.0+0x370>
1000049c:	d000      	beq.n	100004a0 <_ZN6tflite7testing12_GLOBAL__N_119ValidateSVDFGoldensIaEEviiiiP12TfLiteTensori21TfLiteFusedActivationPKT_iPS6_S8_f.constprop.0+0x10c>
1000049e:	e199      	b.n	100007d4 <_ZN6tflite7testing12_GLOBAL__N_119ValidateSVDFGoldensIaEEviiiiP12TfLiteTensori21TfLiteFusedActivationPKT_iPS6_S8_f.constprop.0+0x440>
100004a0:	2303      	movs	r3, #3
100004a2:	56e3      	ldrsb	r3, [r4, r3]
100004a4:	469b      	mov	fp, r3
100004a6:	2303      	movs	r3, #3
100004a8:	56eb      	ldrsb	r3, [r5, r3]
100004aa:	4698      	mov	r8, r3
100004ac:	459b      	cmp	fp, r3
100004ae:	dd00      	ble.n	100004b2 <_ZN6tflite7testing12_GLOBAL__N_119ValidateSVDFGoldensIaEEviiiiP12TfLiteTensori21TfLiteFusedActivationPKT_iPS6_S8_f.constprop.0+0x11e>
100004b0:	e0f7      	b.n	100006a2 <_ZN6tflite7testing12_GLOBAL__N_119ValidateSVDFGoldensIaEEviiiiP12TfLiteTensori21TfLiteFusedActivationPKT_iPS6_S8_f.constprop.0+0x30e>
100004b2:	d000      	beq.n	100004b6 <_ZN6tflite7testing12_GLOBAL__N_119ValidateSVDFGoldensIaEEviiiiP12TfLiteTensori21TfLiteFusedActivationPKT_iPS6_S8_f.constprop.0+0x122>
100004b4:	e18b      	b.n	100007ce <_ZN6tflite7testing12_GLOBAL__N_119ValidateSVDFGoldensIaEEviiiiP12TfLiteTensori21TfLiteFusedActivationPKT_iPS6_S8_f.constprop.0+0x43a>
100004b6:	2304      	movs	r3, #4
100004b8:	56e3      	ldrsb	r3, [r4, r3]
100004ba:	469b      	mov	fp, r3
100004bc:	2304      	movs	r3, #4
100004be:	56eb      	ldrsb	r3, [r5, r3]
100004c0:	4698      	mov	r8, r3
100004c2:	459b      	cmp	fp, r3
100004c4:	dd00      	ble.n	100004c8 <_ZN6tflite7testing12_GLOBAL__N_119ValidateSVDFGoldensIaEEviiiiP12TfLiteTensori21TfLiteFusedActivationPKT_iPS6_S8_f.constprop.0+0x134>
100004c6:	e0c9      	b.n	1000065c <_ZN6tflite7testing12_GLOBAL__N_119ValidateSVDFGoldensIaEEviiiiP12TfLiteTensori21TfLiteFusedActivationPKT_iPS6_S8_f.constprop.0+0x2c8>
100004c8:	d000      	beq.n	100004cc <_ZN6tflite7testing12_GLOBAL__N_119ValidateSVDFGoldensIaEEviiiiP12TfLiteTensori21TfLiteFusedActivationPKT_iPS6_S8_f.constprop.0+0x138>
100004ca:	e17d      	b.n	100007c8 <_ZN6tflite7testing12_GLOBAL__N_119ValidateSVDFGoldensIaEEviiiiP12TfLiteTensori21TfLiteFusedActivationPKT_iPS6_S8_f.constprop.0+0x434>
100004cc:	2305      	movs	r3, #5
100004ce:	56e3      	ldrsb	r3, [r4, r3]
100004d0:	469b      	mov	fp, r3
100004d2:	2305      	movs	r3, #5
100004d4:	56eb      	ldrsb	r3, [r5, r3]
100004d6:	4698      	mov	r8, r3
100004d8:	459b      	cmp	fp, r3
100004da:	dd00      	ble.n	100004de <_ZN6tflite7testing12_GLOBAL__N_119ValidateSVDFGoldensIaEEviiiiP12TfLiteTensori21TfLiteFusedActivationPKT_iPS6_S8_f.constprop.0+0x14a>
100004dc:	e09b      	b.n	10000616 <_ZN6tflite7testing12_GLOBAL__N_119ValidateSVDFGoldensIaEEviiiiP12TfLiteTensori21TfLiteFusedActivationPKT_iPS6_S8_f.constprop.0+0x282>
100004de:	d000      	beq.n	100004e2 <_ZN6tflite7testing12_GLOBAL__N_119ValidateSVDFGoldensIaEEviiiiP12TfLiteTensori21TfLiteFusedActivationPKT_iPS6_S8_f.constprop.0+0x14e>
100004e0:	e16f      	b.n	100007c2 <_ZN6tflite7testing12_GLOBAL__N_119ValidateSVDFGoldensIaEEviiiiP12TfLiteTensori21TfLiteFusedActivationPKT_iPS6_S8_f.constprop.0+0x42e>
100004e2:	2306      	movs	r3, #6
100004e4:	56e3      	ldrsb	r3, [r4, r3]
100004e6:	469b      	mov	fp, r3
100004e8:	2306      	movs	r3, #6
100004ea:	56eb      	ldrsb	r3, [r5, r3]
100004ec:	4698      	mov	r8, r3
100004ee:	459b      	cmp	fp, r3
100004f0:	dd00      	ble.n	100004f4 <_ZN6tflite7testing12_GLOBAL__N_119ValidateSVDFGoldensIaEEviiiiP12TfLiteTensori21TfLiteFusedActivationPKT_iPS6_S8_f.constprop.0+0x160>
100004f2:	e06d      	b.n	100005d0 <_ZN6tflite7testing12_GLOBAL__N_119ValidateSVDFGoldensIaEEviiiiP12TfLiteTensori21TfLiteFusedActivationPKT_iPS6_S8_f.constprop.0+0x23c>
100004f4:	d000      	beq.n	100004f8 <_ZN6tflite7testing12_GLOBAL__N_119ValidateSVDFGoldensIaEEviiiiP12TfLiteTensori21TfLiteFusedActivationPKT_iPS6_S8_f.constprop.0+0x164>
100004f6:	e161      	b.n	100007bc <_ZN6tflite7testing12_GLOBAL__N_119ValidateSVDFGoldensIaEEviiiiP12TfLiteTensori21TfLiteFusedActivationPKT_iPS6_S8_f.constprop.0+0x428>
100004f8:	2307      	movs	r3, #7
100004fa:	56e3      	ldrsb	r3, [r4, r3]
100004fc:	469b      	mov	fp, r3
100004fe:	2307      	movs	r3, #7
10000500:	56eb      	ldrsb	r3, [r5, r3]
10000502:	4698      	mov	r8, r3
10000504:	459b      	cmp	fp, r3
10000506:	dc56      	bgt.n	100005b6 <_ZN6tflite7testing12_GLOBAL__N_119ValidateSVDFGoldensIaEEviiiiP12TfLiteTensori21TfLiteFusedActivationPKT_iPS6_S8_f.constprop.0+0x222>
10000508:	d09a      	beq.n	10000440 <_ZN6tflite7testing12_GLOBAL__N_119ValidateSVDFGoldensIaEEviiiiP12TfLiteTensori21TfLiteFusedActivationPKT_iPS6_S8_f.constprop.0+0xac>
1000050a:	465a      	mov	r2, fp
1000050c:	1a98      	subs	r0, r3, r2
1000050e:	f004 feed 	bl	100052ec <__wrap___aeabi_i2f>
10000512:	21fe      	movs	r1, #254	@ 0xfe
10000514:	0589      	lsls	r1, r1, #22
10000516:	f004 fedf 	bl	100052d8 <__wrap___aeabi_fcmpgt>
1000051a:	2800      	cmp	r0, #0
1000051c:	d100      	bne.n	10000520 <_ZN6tflite7testing12_GLOBAL__N_119ValidateSVDFGoldensIaEEviiiiP12TfLiteTensori21TfLiteFusedActivationPKT_iPS6_S8_f.constprop.0+0x18c>
1000051e:	e78f      	b.n	10000440 <_ZN6tflite7testing12_GLOBAL__N_119ValidateSVDFGoldensIaEEviiiiP12TfLiteTensori21TfLiteFusedActivationPKT_iPS6_S8_f.constprop.0+0xac>
10000520:	4658      	mov	r0, fp
10000522:	f004 faa7 	bl	10004a74 <__wrap___aeabi_i2d>
10000526:	4b75      	ldr	r3, [pc, #468]	@ (100006fc <_ZN6tflite7testing12_GLOBAL__N_119ValidateSVDFGoldensIaEEviiiiP12TfLiteTensori21TfLiteFusedActivationPKT_iPS6_S8_f.constprop.0+0x368>)
10000528:	9004      	str	r0, [sp, #16]
1000052a:	9105      	str	r1, [sp, #20]
1000052c:	9303      	str	r3, [sp, #12]
1000052e:	4b6f      	ldr	r3, [pc, #444]	@ (100006ec <_ZN6tflite7testing12_GLOBAL__N_119ValidateSVDFGoldensIaEEviiiiP12TfLiteTensori21TfLiteFusedActivationPKT_iPS6_S8_f.constprop.0+0x358>)
10000530:	4640      	mov	r0, r8
10000532:	9302      	str	r3, [sp, #8]
10000534:	f004 fa9e 	bl	10004a74 <__wrap___aeabi_i2d>
10000538:	9a04      	ldr	r2, [sp, #16]
1000053a:	9b05      	ldr	r3, [sp, #20]
1000053c:	9000      	str	r0, [sp, #0]
1000053e:	9101      	str	r1, [sp, #4]
10000540:	486f      	ldr	r0, [pc, #444]	@ (10000700 <_ZN6tflite7testing12_GLOBAL__N_119ValidateSVDFGoldensIaEEviiiiP12TfLiteTensori21TfLiteFusedActivationPKT_iPS6_S8_f.constprop.0+0x36c>)
10000542:	f008 fec9 	bl	100092d8 <_Z11MicroPrintfPKcz>
10000546:	2201      	movs	r2, #1
10000548:	4b6b      	ldr	r3, [pc, #428]	@ (100006f8 <_ZN6tflite7testing12_GLOBAL__N_119ValidateSVDFGoldensIaEEviiiiP12TfLiteTensori21TfLiteFusedActivationPKT_iPS6_S8_f.constprop.0+0x364>)
1000054a:	3408      	adds	r4, #8
1000054c:	701a      	strb	r2, [r3, #0]
1000054e:	3604      	adds	r6, #4
10000550:	45a1      	cmp	r9, r4
10000552:	d000      	beq.n	10000556 <_ZN6tflite7testing12_GLOBAL__N_119ValidateSVDFGoldensIaEEviiiiP12TfLiteTensori21TfLiteFusedActivationPKT_iPS6_S8_f.constprop.0+0x1c2>
10000554:	e779      	b.n	1000044a <_ZN6tflite7testing12_GLOBAL__N_119ValidateSVDFGoldensIaEEviiiiP12TfLiteTensori21TfLiteFusedActivationPKT_iPS6_S8_f.constprop.0+0xb6>
10000556:	a818      	add	r0, sp, #96	@ 0x60
10000558:	f008 fb66 	bl	10008c28 <_ZN6tflite5micro12KernelRunner29ValidateTempBufferDeallocatedEv>
1000055c:	2800      	cmp	r0, #0
1000055e:	d100      	bne.n	10000562 <_ZN6tflite7testing12_GLOBAL__N_119ValidateSVDFGoldensIaEEviiiiP12TfLiteTensori21TfLiteFusedActivationPKT_iPS6_S8_f.constprop.0+0x1ce>
10000560:	e120      	b.n	100007a4 <_ZN6tflite7testing12_GLOBAL__N_119ValidateSVDFGoldensIaEEviiiiP12TfLiteTensori21TfLiteFusedActivationPKT_iPS6_S8_f.constprop.0+0x410>
10000562:	b05d      	add	sp, #372	@ 0x174
10000564:	bcf0      	pop	{r4, r5, r6, r7}
10000566:	46bb      	mov	fp, r7
10000568:	46b2      	mov	sl, r6
1000056a:	46a9      	mov	r9, r5
1000056c:	46a0      	mov	r8, r4
1000056e:	bdf0      	pop	{r4, r5, r6, r7, pc}
10000570:	465b      	mov	r3, fp
10000572:	4642      	mov	r2, r8
10000574:	1a98      	subs	r0, r3, r2
10000576:	f004 feb9 	bl	100052ec <__wrap___aeabi_i2f>
1000057a:	21fe      	movs	r1, #254	@ 0xfe
1000057c:	0589      	lsls	r1, r1, #22
1000057e:	f004 feab 	bl	100052d8 <__wrap___aeabi_fcmpgt>
10000582:	2800      	cmp	r0, #0
10000584:	d100      	bne.n	10000588 <_ZN6tflite7testing12_GLOBAL__N_119ValidateSVDFGoldensIaEEviiiiP12TfLiteTensori21TfLiteFusedActivationPKT_iPS6_S8_f.constprop.0+0x1f4>
10000586:	e775      	b.n	10000474 <_ZN6tflite7testing12_GLOBAL__N_119ValidateSVDFGoldensIaEEviiiiP12TfLiteTensori21TfLiteFusedActivationPKT_iPS6_S8_f.constprop.0+0xe0>
10000588:	4658      	mov	r0, fp
1000058a:	f004 fa73 	bl	10004a74 <__wrap___aeabi_i2d>
1000058e:	4b5b      	ldr	r3, [pc, #364]	@ (100006fc <_ZN6tflite7testing12_GLOBAL__N_119ValidateSVDFGoldensIaEEviiiiP12TfLiteTensori21TfLiteFusedActivationPKT_iPS6_S8_f.constprop.0+0x368>)
10000590:	9004      	str	r0, [sp, #16]
10000592:	9105      	str	r1, [sp, #20]
10000594:	9303      	str	r3, [sp, #12]
10000596:	4b55      	ldr	r3, [pc, #340]	@ (100006ec <_ZN6tflite7testing12_GLOBAL__N_119ValidateSVDFGoldensIaEEviiiiP12TfLiteTensori21TfLiteFusedActivationPKT_iPS6_S8_f.constprop.0+0x358>)
10000598:	4640      	mov	r0, r8
1000059a:	9302      	str	r3, [sp, #8]
1000059c:	f004 fa6a 	bl	10004a74 <__wrap___aeabi_i2d>
100005a0:	9a04      	ldr	r2, [sp, #16]
100005a2:	9b05      	ldr	r3, [sp, #20]
100005a4:	9000      	str	r0, [sp, #0]
100005a6:	9101      	str	r1, [sp, #4]
100005a8:	4855      	ldr	r0, [pc, #340]	@ (10000700 <_ZN6tflite7testing12_GLOBAL__N_119ValidateSVDFGoldensIaEEviiiiP12TfLiteTensori21TfLiteFusedActivationPKT_iPS6_S8_f.constprop.0+0x36c>)
100005aa:	f008 fe95 	bl	100092d8 <_Z11MicroPrintfPKcz>
100005ae:	2201      	movs	r2, #1
100005b0:	4b51      	ldr	r3, [pc, #324]	@ (100006f8 <_ZN6tflite7testing12_GLOBAL__N_119ValidateSVDFGoldensIaEEviiiiP12TfLiteTensori21TfLiteFusedActivationPKT_iPS6_S8_f.constprop.0+0x364>)
100005b2:	701a      	strb	r2, [r3, #0]
100005b4:	e75e      	b.n	10000474 <_ZN6tflite7testing12_GLOBAL__N_119ValidateSVDFGoldensIaEEviiiiP12TfLiteTensori21TfLiteFusedActivationPKT_iPS6_S8_f.constprop.0+0xe0>
100005b6:	465b      	mov	r3, fp
100005b8:	4642      	mov	r2, r8
100005ba:	1a98      	subs	r0, r3, r2
100005bc:	f004 fe96 	bl	100052ec <__wrap___aeabi_i2f>
100005c0:	21fe      	movs	r1, #254	@ 0xfe
100005c2:	0589      	lsls	r1, r1, #22
100005c4:	f004 fe88 	bl	100052d8 <__wrap___aeabi_fcmpgt>
100005c8:	2800      	cmp	r0, #0
100005ca:	d100      	bne.n	100005ce <_ZN6tflite7testing12_GLOBAL__N_119ValidateSVDFGoldensIaEEviiiiP12TfLiteTensori21TfLiteFusedActivationPKT_iPS6_S8_f.constprop.0+0x23a>
100005cc:	e738      	b.n	10000440 <_ZN6tflite7testing12_GLOBAL__N_119ValidateSVDFGoldensIaEEviiiiP12TfLiteTensori21TfLiteFusedActivationPKT_iPS6_S8_f.constprop.0+0xac>
100005ce:	e7a7      	b.n	10000520 <_ZN6tflite7testing12_GLOBAL__N_119ValidateSVDFGoldensIaEEviiiiP12TfLiteTensori21TfLiteFusedActivationPKT_iPS6_S8_f.constprop.0+0x18c>
100005d0:	465b      	mov	r3, fp
100005d2:	4642      	mov	r2, r8
100005d4:	1a98      	subs	r0, r3, r2
100005d6:	f004 fe89 	bl	100052ec <__wrap___aeabi_i2f>
100005da:	21fe      	movs	r1, #254	@ 0xfe
100005dc:	0589      	lsls	r1, r1, #22
100005de:	f004 fe7b 	bl	100052d8 <__wrap___aeabi_fcmpgt>
100005e2:	2800      	cmp	r0, #0
100005e4:	d100      	bne.n	100005e8 <_ZN6tflite7testing12_GLOBAL__N_119ValidateSVDFGoldensIaEEviiiiP12TfLiteTensori21TfLiteFusedActivationPKT_iPS6_S8_f.constprop.0+0x254>
100005e6:	e787      	b.n	100004f8 <_ZN6tflite7testing12_GLOBAL__N_119ValidateSVDFGoldensIaEEviiiiP12TfLiteTensori21TfLiteFusedActivationPKT_iPS6_S8_f.constprop.0+0x164>
100005e8:	4658      	mov	r0, fp
100005ea:	f004 fa43 	bl	10004a74 <__wrap___aeabi_i2d>
100005ee:	4b43      	ldr	r3, [pc, #268]	@ (100006fc <_ZN6tflite7testing12_GLOBAL__N_119ValidateSVDFGoldensIaEEviiiiP12TfLiteTensori21TfLiteFusedActivationPKT_iPS6_S8_f.constprop.0+0x368>)
100005f0:	9004      	str	r0, [sp, #16]
100005f2:	9105      	str	r1, [sp, #20]
100005f4:	9303      	str	r3, [sp, #12]
100005f6:	4b3d      	ldr	r3, [pc, #244]	@ (100006ec <_ZN6tflite7testing12_GLOBAL__N_119ValidateSVDFGoldensIaEEviiiiP12TfLiteTensori21TfLiteFusedActivationPKT_iPS6_S8_f.constprop.0+0x358>)
100005f8:	4640      	mov	r0, r8
100005fa:	9302      	str	r3, [sp, #8]
100005fc:	f004 fa3a 	bl	10004a74 <__wrap___aeabi_i2d>
10000600:	9a04      	ldr	r2, [sp, #16]
10000602:	9b05      	ldr	r3, [sp, #20]
10000604:	9000      	str	r0, [sp, #0]
10000606:	9101      	str	r1, [sp, #4]
10000608:	483d      	ldr	r0, [pc, #244]	@ (10000700 <_ZN6tflite7testing12_GLOBAL__N_119ValidateSVDFGoldensIaEEviiiiP12TfLiteTensori21TfLiteFusedActivationPKT_iPS6_S8_f.constprop.0+0x36c>)
1000060a:	f008 fe65 	bl	100092d8 <_Z11MicroPrintfPKcz>
1000060e:	2201      	movs	r2, #1
10000610:	4b39      	ldr	r3, [pc, #228]	@ (100006f8 <_ZN6tflite7testing12_GLOBAL__N_119ValidateSVDFGoldensIaEEviiiiP12TfLiteTensori21TfLiteFusedActivationPKT_iPS6_S8_f.constprop.0+0x364>)
10000612:	701a      	strb	r2, [r3, #0]
10000614:	e770      	b.n	100004f8 <_ZN6tflite7testing12_GLOBAL__N_119ValidateSVDFGoldensIaEEviiiiP12TfLiteTensori21TfLiteFusedActivationPKT_iPS6_S8_f.constprop.0+0x164>
10000616:	465b      	mov	r3, fp
10000618:	4642      	mov	r2, r8
1000061a:	1a98      	subs	r0, r3, r2
1000061c:	f004 fe66 	bl	100052ec <__wrap___aeabi_i2f>
10000620:	21fe      	movs	r1, #254	@ 0xfe
10000622:	0589      	lsls	r1, r1, #22
10000624:	f004 fe58 	bl	100052d8 <__wrap___aeabi_fcmpgt>
10000628:	2800      	cmp	r0, #0
1000062a:	d100      	bne.n	1000062e <_ZN6tflite7testing12_GLOBAL__N_119ValidateSVDFGoldensIaEEviiiiP12TfLiteTensori21TfLiteFusedActivationPKT_iPS6_S8_f.constprop.0+0x29a>
1000062c:	e759      	b.n	100004e2 <_ZN6tflite7testing12_GLOBAL__N_119ValidateSVDFGoldensIaEEviiiiP12TfLiteTensori21TfLiteFusedActivationPKT_iPS6_S8_f.constprop.0+0x14e>
1000062e:	4658      	mov	r0, fp
10000630:	f004 fa20 	bl	10004a74 <__wrap___aeabi_i2d>
10000634:	4b31      	ldr	r3, [pc, #196]	@ (100006fc <_ZN6tflite7testing12_GLOBAL__N_119ValidateSVDFGoldensIaEEviiiiP12TfLiteTensori21TfLiteFusedActivationPKT_iPS6_S8_f.constprop.0+0x368>)
10000636:	9004      	str	r0, [sp, #16]
10000638:	9105      	str	r1, [sp, #20]
1000063a:	9303      	str	r3, [sp, #12]
1000063c:	4b2b      	ldr	r3, [pc, #172]	@ (100006ec <_ZN6tflite7testing12_GLOBAL__N_119ValidateSVDFGoldensIaEEviiiiP12TfLiteTensori21TfLiteFusedActivationPKT_iPS6_S8_f.constprop.0+0x358>)
1000063e:	4640      	mov	r0, r8
10000640:	9302      	str	r3, [sp, #8]
10000642:	f004 fa17 	bl	10004a74 <__wrap___aeabi_i2d>
10000646:	9a04      	ldr	r2, [sp, #16]
10000648:	9b05      	ldr	r3, [sp, #20]
1000064a:	9000      	str	r0, [sp, #0]
1000064c:	9101      	str	r1, [sp, #4]
1000064e:	482c      	ldr	r0, [pc, #176]	@ (10000700 <_ZN6tflite7testing12_GLOBAL__N_119ValidateSVDFGoldensIaEEviiiiP12TfLiteTensori21TfLiteFusedActivationPKT_iPS6_S8_f.constprop.0+0x36c>)
10000650:	f008 fe42 	bl	100092d8 <_Z11MicroPrintfPKcz>
10000654:	2201      	movs	r2, #1
10000656:	4b28      	ldr	r3, [pc, #160]	@ (100006f8 <_ZN6tflite7testing12_GLOBAL__N_119ValidateSVDFGoldensIaEEviiiiP12TfLiteTensori21TfLiteFusedActivationPKT_iPS6_S8_f.constprop.0+0x364>)
10000658:	701a      	strb	r2, [r3, #0]
1000065a:	e742      	b.n	100004e2 <_ZN6tflite7testing12_GLOBAL__N_119ValidateSVDFGoldensIaEEviiiiP12TfLiteTensori21TfLiteFusedActivationPKT_iPS6_S8_f.constprop.0+0x14e>
1000065c:	465b      	mov	r3, fp
1000065e:	4642      	mov	r2, r8
10000660:	1a98      	subs	r0, r3, r2
10000662:	f004 fe43 	bl	100052ec <__wrap___aeabi_i2f>
10000666:	21fe      	movs	r1, #254	@ 0xfe
10000668:	0589      	lsls	r1, r1, #22
1000066a:	f004 fe35 	bl	100052d8 <__wrap___aeabi_fcmpgt>
1000066e:	2800      	cmp	r0, #0
10000670:	d100      	bne.n	10000674 <_ZN6tflite7testing12_GLOBAL__N_119ValidateSVDFGoldensIaEEviiiiP12TfLiteTensori21TfLiteFusedActivationPKT_iPS6_S8_f.constprop.0+0x2e0>
10000672:	e72b      	b.n	100004cc <_ZN6tflite7testing12_GLOBAL__N_119ValidateSVDFGoldensIaEEviiiiP12TfLiteTensori21TfLiteFusedActivationPKT_iPS6_S8_f.constprop.0+0x138>
10000674:	4658      	mov	r0, fp
10000676:	f004 f9fd 	bl	10004a74 <__wrap___aeabi_i2d>
1000067a:	4b20      	ldr	r3, [pc, #128]	@ (100006fc <_ZN6tflite7testing12_GLOBAL__N_119ValidateSVDFGoldensIaEEviiiiP12TfLiteTensori21TfLiteFusedActivationPKT_iPS6_S8_f.constprop.0+0x368>)
1000067c:	9004      	str	r0, [sp, #16]
1000067e:	9105      	str	r1, [sp, #20]
10000680:	9303      	str	r3, [sp, #12]
10000682:	4b1a      	ldr	r3, [pc, #104]	@ (100006ec <_ZN6tflite7testing12_GLOBAL__N_119ValidateSVDFGoldensIaEEviiiiP12TfLiteTensori21TfLiteFusedActivationPKT_iPS6_S8_f.constprop.0+0x358>)
10000684:	4640      	mov	r0, r8
10000686:	9302      	str	r3, [sp, #8]
10000688:	f004 f9f4 	bl	10004a74 <__wrap___aeabi_i2d>
1000068c:	9a04      	ldr	r2, [sp, #16]
1000068e:	9b05      	ldr	r3, [sp, #20]
10000690:	9000      	str	r0, [sp, #0]
10000692:	9101      	str	r1, [sp, #4]
10000694:	481a      	ldr	r0, [pc, #104]	@ (10000700 <_ZN6tflite7testing12_GLOBAL__N_119ValidateSVDFGoldensIaEEviiiiP12TfLiteTensori21TfLiteFusedActivationPKT_iPS6_S8_f.constprop.0+0x36c>)
10000696:	f008 fe1f 	bl	100092d8 <_Z11MicroPrintfPKcz>
1000069a:	2201      	movs	r2, #1
1000069c:	4b16      	ldr	r3, [pc, #88]	@ (100006f8 <_ZN6tflite7testing12_GLOBAL__N_119ValidateSVDFGoldensIaEEviiiiP12TfLiteTensori21TfLiteFusedActivationPKT_iPS6_S8_f.constprop.0+0x364>)
1000069e:	701a      	strb	r2, [r3, #0]
100006a0:	e714      	b.n	100004cc <_ZN6tflite7testing12_GLOBAL__N_119ValidateSVDFGoldensIaEEviiiiP12TfLiteTensori21TfLiteFusedActivationPKT_iPS6_S8_f.constprop.0+0x138>
100006a2:	465b      	mov	r3, fp
100006a4:	4642      	mov	r2, r8
100006a6:	1a98      	subs	r0, r3, r2
100006a8:	f004 fe20 	bl	100052ec <__wrap___aeabi_i2f>
100006ac:	21fe      	movs	r1, #254	@ 0xfe
100006ae:	0589      	lsls	r1, r1, #22
100006b0:	f004 fe12 	bl	100052d8 <__wrap___aeabi_fcmpgt>
100006b4:	2800      	cmp	r0, #0
100006b6:	d100      	bne.n	100006ba <_ZN6tflite7testing12_GLOBAL__N_119ValidateSVDFGoldensIaEEviiiiP12TfLiteTensori21TfLiteFusedActivationPKT_iPS6_S8_f.constprop.0+0x326>
100006b8:	e6fd      	b.n	100004b6 <_ZN6tflite7testing12_GLOBAL__N_119ValidateSVDFGoldensIaEEviiiiP12TfLiteTensori21TfLiteFusedActivationPKT_iPS6_S8_f.constprop.0+0x122>
100006ba:	4658      	mov	r0, fp
100006bc:	f004 f9da 	bl	10004a74 <__wrap___aeabi_i2d>
100006c0:	4b0e      	ldr	r3, [pc, #56]	@ (100006fc <_ZN6tflite7testing12_GLOBAL__N_119ValidateSVDFGoldensIaEEviiiiP12TfLiteTensori21TfLiteFusedActivationPKT_iPS6_S8_f.constprop.0+0x368>)
100006c2:	9004      	str	r0, [sp, #16]
100006c4:	9105      	str	r1, [sp, #20]
100006c6:	9303      	str	r3, [sp, #12]
100006c8:	4b08      	ldr	r3, [pc, #32]	@ (100006ec <_ZN6tflite7testing12_GLOBAL__N_119ValidateSVDFGoldensIaEEviiiiP12TfLiteTensori21TfLiteFusedActivationPKT_iPS6_S8_f.constprop.0+0x358>)
100006ca:	4640      	mov	r0, r8
100006cc:	9302      	str	r3, [sp, #8]
100006ce:	f004 f9d1 	bl	10004a74 <__wrap___aeabi_i2d>
100006d2:	9a04      	ldr	r2, [sp, #16]
100006d4:	9b05      	ldr	r3, [sp, #20]
100006d6:	9000      	str	r0, [sp, #0]
100006d8:	9101      	str	r1, [sp, #4]
100006da:	4809      	ldr	r0, [pc, #36]	@ (10000700 <_ZN6tflite7testing12_GLOBAL__N_119ValidateSVDFGoldensIaEEviiiiP12TfLiteTensori21TfLiteFusedActivationPKT_iPS6_S8_f.constprop.0+0x36c>)
100006dc:	f008 fdfc 	bl	100092d8 <_Z11MicroPrintfPKcz>
100006e0:	2201      	movs	r2, #1
100006e2:	4b05      	ldr	r3, [pc, #20]	@ (100006f8 <_ZN6tflite7testing12_GLOBAL__N_119ValidateSVDFGoldensIaEEviiiiP12TfLiteTensori21TfLiteFusedActivationPKT_iPS6_S8_f.constprop.0+0x364>)
100006e4:	701a      	strb	r2, [r3, #0]
100006e6:	e6e6      	b.n	100004b6 <_ZN6tflite7testing12_GLOBAL__N_119ValidateSVDFGoldensIaEEviiiiP12TfLiteTensori21TfLiteFusedActivationPKT_iPS6_S8_f.constprop.0+0x122>
100006e8:	10013d0c 	.word	0x10013d0c
100006ec:	10010330 	.word	0x10010330
100006f0:	0000020a 	.word	0x0000020a
100006f4:	10010418 	.word	0x10010418
100006f8:	200051dd 	.word	0x200051dd
100006fc:	00000211 	.word	0x00000211
10000700:	100103cc 	.word	0x100103cc
10000704:	465b      	mov	r3, fp
10000706:	4642      	mov	r2, r8
10000708:	1a98      	subs	r0, r3, r2
1000070a:	f004 fdef 	bl	100052ec <__wrap___aeabi_i2f>
1000070e:	21fe      	movs	r1, #254	@ 0xfe
10000710:	0589      	lsls	r1, r1, #22
10000712:	f004 fde1 	bl	100052d8 <__wrap___aeabi_fcmpgt>
10000716:	2800      	cmp	r0, #0
10000718:	d100      	bne.n	1000071c <_ZN6tflite7testing12_GLOBAL__N_119ValidateSVDFGoldensIaEEviiiiP12TfLiteTensori21TfLiteFusedActivationPKT_iPS6_S8_f.constprop.0+0x388>
1000071a:	e6c1      	b.n	100004a0 <_ZN6tflite7testing12_GLOBAL__N_119ValidateSVDFGoldensIaEEviiiiP12TfLiteTensori21TfLiteFusedActivationPKT_iPS6_S8_f.constprop.0+0x10c>
1000071c:	4658      	mov	r0, fp
1000071e:	f004 f9a9 	bl	10004a74 <__wrap___aeabi_i2d>
10000722:	4b3d      	ldr	r3, [pc, #244]	@ (10000818 <_ZN6tflite7testing12_GLOBAL__N_119ValidateSVDFGoldensIaEEviiiiP12TfLiteTensori21TfLiteFusedActivationPKT_iPS6_S8_f.constprop.0+0x484>)
10000724:	9004      	str	r0, [sp, #16]
10000726:	9105      	str	r1, [sp, #20]
10000728:	9303      	str	r3, [sp, #12]
1000072a:	4b3c      	ldr	r3, [pc, #240]	@ (1000081c <_ZN6tflite7testing12_GLOBAL__N_119ValidateSVDFGoldensIaEEviiiiP12TfLiteTensori21TfLiteFusedActivationPKT_iPS6_S8_f.constprop.0+0x488>)
1000072c:	4640      	mov	r0, r8
1000072e:	9302      	str	r3, [sp, #8]
10000730:	f004 f9a0 	bl	10004a74 <__wrap___aeabi_i2d>
10000734:	9a04      	ldr	r2, [sp, #16]
10000736:	9b05      	ldr	r3, [sp, #20]
10000738:	9000      	str	r0, [sp, #0]
1000073a:	9101      	str	r1, [sp, #4]
1000073c:	4838      	ldr	r0, [pc, #224]	@ (10000820 <_ZN6tflite7testing12_GLOBAL__N_119ValidateSVDFGoldensIaEEviiiiP12TfLiteTensori21TfLiteFusedActivationPKT_iPS6_S8_f.constprop.0+0x48c>)
1000073e:	f008 fdcb 	bl	100092d8 <_Z11MicroPrintfPKcz>
10000742:	2201      	movs	r2, #1
10000744:	4b37      	ldr	r3, [pc, #220]	@ (10000824 <_ZN6tflite7testing12_GLOBAL__N_119ValidateSVDFGoldensIaEEviiiiP12TfLiteTensori21TfLiteFusedActivationPKT_iPS6_S8_f.constprop.0+0x490>)
10000746:	701a      	strb	r2, [r3, #0]
10000748:	e6aa      	b.n	100004a0 <_ZN6tflite7testing12_GLOBAL__N_119ValidateSVDFGoldensIaEEviiiiP12TfLiteTensori21TfLiteFusedActivationPKT_iPS6_S8_f.constprop.0+0x10c>
1000074a:	465b      	mov	r3, fp
1000074c:	4642      	mov	r2, r8
1000074e:	1a98      	subs	r0, r3, r2
10000750:	f004 fdcc 	bl	100052ec <__wrap___aeabi_i2f>
10000754:	21fe      	movs	r1, #254	@ 0xfe
10000756:	0589      	lsls	r1, r1, #22
10000758:	f004 fdbe 	bl	100052d8 <__wrap___aeabi_fcmpgt>
1000075c:	2800      	cmp	r0, #0
1000075e:	d100      	bne.n	10000762 <_ZN6tflite7testing12_GLOBAL__N_119ValidateSVDFGoldensIaEEviiiiP12TfLiteTensori21TfLiteFusedActivationPKT_iPS6_S8_f.constprop.0+0x3ce>
10000760:	e693      	b.n	1000048a <_ZN6tflite7testing12_GLOBAL__N_119ValidateSVDFGoldensIaEEviiiiP12TfLiteTensori21TfLiteFusedActivationPKT_iPS6_S8_f.constprop.0+0xf6>
10000762:	4658      	mov	r0, fp
10000764:	f004 f986 	bl	10004a74 <__wrap___aeabi_i2d>
10000768:	4b2b      	ldr	r3, [pc, #172]	@ (10000818 <_ZN6tflite7testing12_GLOBAL__N_119ValidateSVDFGoldensIaEEviiiiP12TfLiteTensori21TfLiteFusedActivationPKT_iPS6_S8_f.constprop.0+0x484>)
1000076a:	9004      	str	r0, [sp, #16]
1000076c:	9105      	str	r1, [sp, #20]
1000076e:	9303      	str	r3, [sp, #12]
10000770:	4b2a      	ldr	r3, [pc, #168]	@ (1000081c <_ZN6tflite7testing12_GLOBAL__N_119ValidateSVDFGoldensIaEEviiiiP12TfLiteTensori21TfLiteFusedActivationPKT_iPS6_S8_f.constprop.0+0x488>)
10000772:	4640      	mov	r0, r8
10000774:	9302      	str	r3, [sp, #8]
10000776:	f004 f97d 	bl	10004a74 <__wrap___aeabi_i2d>
1000077a:	9a04      	ldr	r2, [sp, #16]
1000077c:	9b05      	ldr	r3, [sp, #20]
1000077e:	9000      	str	r0, [sp, #0]
10000780:	9101      	str	r1, [sp, #4]
10000782:	4827      	ldr	r0, [pc, #156]	@ (10000820 <_ZN6tflite7testing12_GLOBAL__N_119ValidateSVDFGoldensIaEEviiiiP12TfLiteTensori21TfLiteFusedActivationPKT_iPS6_S8_f.constprop.0+0x48c>)
10000784:	f008 fda8 	bl	100092d8 <_Z11MicroPrintfPKcz>
10000788:	2201      	movs	r2, #1
1000078a:	4b26      	ldr	r3, [pc, #152]	@ (10000824 <_ZN6tflite7testing12_GLOBAL__N_119ValidateSVDFGoldensIaEEviiiiP12TfLiteTensori21TfLiteFusedActivationPKT_iPS6_S8_f.constprop.0+0x490>)
1000078c:	701a      	strb	r2, [r3, #0]
1000078e:	e67c      	b.n	1000048a <_ZN6tflite7testing12_GLOBAL__N_119ValidateSVDFGoldensIaEEviiiiP12TfLiteTensori21TfLiteFusedActivationPKT_iPS6_S8_f.constprop.0+0xf6>
10000790:	22fc      	movs	r2, #252	@ 0xfc
10000792:	4922      	ldr	r1, [pc, #136]	@ (1000081c <_ZN6tflite7testing12_GLOBAL__N_119ValidateSVDFGoldensIaEEviiiiP12TfLiteTensori21TfLiteFusedActivationPKT_iPS6_S8_f.constprop.0+0x488>)
10000794:	32ff      	adds	r2, #255	@ 0xff
10000796:	4824      	ldr	r0, [pc, #144]	@ (10000828 <_ZN6tflite7testing12_GLOBAL__N_119ValidateSVDFGoldensIaEEviiiiP12TfLiteTensori21TfLiteFusedActivationPKT_iPS6_S8_f.constprop.0+0x494>)
10000798:	f008 fd9e 	bl	100092d8 <_Z11MicroPrintfPKcz>
1000079c:	465a      	mov	r2, fp
1000079e:	4b21      	ldr	r3, [pc, #132]	@ (10000824 <_ZN6tflite7testing12_GLOBAL__N_119ValidateSVDFGoldensIaEEviiiiP12TfLiteTensori21TfLiteFusedActivationPKT_iPS6_S8_f.constprop.0+0x490>)
100007a0:	701a      	strb	r2, [r3, #0]
100007a2:	e63b      	b.n	1000041c <_ZN6tflite7testing12_GLOBAL__N_119ValidateSVDFGoldensIaEEviiiiP12TfLiteTensori21TfLiteFusedActivationPKT_iPS6_S8_f.constprop.0+0x88>
100007a4:	4a21      	ldr	r2, [pc, #132]	@ (1000082c <_ZN6tflite7testing12_GLOBAL__N_119ValidateSVDFGoldensIaEEviiiiP12TfLiteTensori21TfLiteFusedActivationPKT_iPS6_S8_f.constprop.0+0x498>)
100007a6:	491d      	ldr	r1, [pc, #116]	@ (1000081c <_ZN6tflite7testing12_GLOBAL__N_119ValidateSVDFGoldensIaEEviiiiP12TfLiteTensori21TfLiteFusedActivationPKT_iPS6_S8_f.constprop.0+0x488>)
100007a8:	481f      	ldr	r0, [pc, #124]	@ (10000828 <_ZN6tflite7testing12_GLOBAL__N_119ValidateSVDFGoldensIaEEviiiiP12TfLiteTensori21TfLiteFusedActivationPKT_iPS6_S8_f.constprop.0+0x494>)
100007aa:	f008 fd95 	bl	100092d8 <_Z11MicroPrintfPKcz>
100007ae:	2201      	movs	r2, #1
100007b0:	4b1c      	ldr	r3, [pc, #112]	@ (10000824 <_ZN6tflite7testing12_GLOBAL__N_119ValidateSVDFGoldensIaEEviiiiP12TfLiteTensori21TfLiteFusedActivationPKT_iPS6_S8_f.constprop.0+0x490>)
100007b2:	701a      	strb	r2, [r3, #0]
100007b4:	e6d5      	b.n	10000562 <_ZN6tflite7testing12_GLOBAL__N_119ValidateSVDFGoldensIaEEviiiiP12TfLiteTensori21TfLiteFusedActivationPKT_iPS6_S8_f.constprop.0+0x1ce>
100007b6:	465a      	mov	r2, fp
100007b8:	1a98      	subs	r0, r3, r2
100007ba:	e6dc      	b.n	10000576 <_ZN6tflite7testing12_GLOBAL__N_119ValidateSVDFGoldensIaEEviiiiP12TfLiteTensori21TfLiteFusedActivationPKT_iPS6_S8_f.constprop.0+0x1e2>
100007bc:	465a      	mov	r2, fp
100007be:	1a98      	subs	r0, r3, r2
100007c0:	e709      	b.n	100005d6 <_ZN6tflite7testing12_GLOBAL__N_119ValidateSVDFGoldensIaEEviiiiP12TfLiteTensori21TfLiteFusedActivationPKT_iPS6_S8_f.constprop.0+0x242>
100007c2:	465a      	mov	r2, fp
100007c4:	1a98      	subs	r0, r3, r2
100007c6:	e729      	b.n	1000061c <_ZN6tflite7testing12_GLOBAL__N_119ValidateSVDFGoldensIaEEviiiiP12TfLiteTensori21TfLiteFusedActivationPKT_iPS6_S8_f.constprop.0+0x288>
100007c8:	465a      	mov	r2, fp
100007ca:	1a98      	subs	r0, r3, r2
100007cc:	e749      	b.n	10000662 <_ZN6tflite7testing12_GLOBAL__N_119ValidateSVDFGoldensIaEEviiiiP12TfLiteTensori21TfLiteFusedActivationPKT_iPS6_S8_f.constprop.0+0x2ce>
100007ce:	465a      	mov	r2, fp
100007d0:	1a98      	subs	r0, r3, r2
100007d2:	e769      	b.n	100006a8 <_ZN6tflite7testing12_GLOBAL__N_119ValidateSVDFGoldensIaEEviiiiP12TfLiteTensori21TfLiteFusedActivationPKT_iPS6_S8_f.constprop.0+0x314>
100007d4:	465a      	mov	r2, fp
100007d6:	1a98      	subs	r0, r3, r2
100007d8:	e797      	b.n	1000070a <_ZN6tflite7testing12_GLOBAL__N_119ValidateSVDFGoldensIaEEviiiiP12TfLiteTensori21TfLiteFusedActivationPKT_iPS6_S8_f.constprop.0+0x376>
100007da:	465a      	mov	r2, fp
100007dc:	1a98      	subs	r0, r3, r2
100007de:	e7b7      	b.n	10000750 <_ZN6tflite7testing12_GLOBAL__N_119ValidateSVDFGoldensIaEEviiiiP12TfLiteTensori21TfLiteFusedActivationPKT_iPS6_S8_f.constprop.0+0x3bc>
100007e0:	22fd      	movs	r2, #253	@ 0xfd
100007e2:	4c13      	ldr	r4, [pc, #76]	@ (10000830 <_ZN6tflite7testing12_GLOBAL__N_119ValidateSVDFGoldensIaEEviiiiP12TfLiteTensori21TfLiteFusedActivationPKT_iPS6_S8_f.constprop.0+0x49c>)
100007e4:	4d0d      	ldr	r5, [pc, #52]	@ (1000081c <_ZN6tflite7testing12_GLOBAL__N_119ValidateSVDFGoldensIaEEviiiiP12TfLiteTensori21TfLiteFusedActivationPKT_iPS6_S8_f.constprop.0+0x488>)
100007e6:	2300      	movs	r3, #0
100007e8:	9000      	str	r0, [sp, #0]
100007ea:	0029      	movs	r1, r5
100007ec:	0020      	movs	r0, r4
100007ee:	0052      	lsls	r2, r2, #1
100007f0:	f008 fd72 	bl	100092d8 <_Z11MicroPrintfPKcz>
100007f4:	465b      	mov	r3, fp
100007f6:	4c0b      	ldr	r4, [pc, #44]	@ (10000824 <_ZN6tflite7testing12_GLOBAL__N_119ValidateSVDFGoldensIaEEviiiiP12TfLiteTensori21TfLiteFusedActivationPKT_iPS6_S8_f.constprop.0+0x490>)
100007f8:	a818      	add	r0, sp, #96	@ 0x60
100007fa:	7023      	strb	r3, [r4, #0]
100007fc:	f008 fa14 	bl	10008c28 <_ZN6tflite5micro12KernelRunner29ValidateTempBufferDeallocatedEv>
10000800:	2800      	cmp	r0, #0
10000802:	d000      	beq.n	10000806 <_ZN6tflite7testing12_GLOBAL__N_119ValidateSVDFGoldensIaEEviiiiP12TfLiteTensori21TfLiteFusedActivationPKT_iPS6_S8_f.constprop.0+0x472>
10000804:	e6ad      	b.n	10000562 <_ZN6tflite7testing12_GLOBAL__N_119ValidateSVDFGoldensIaEEviiiiP12TfLiteTensori21TfLiteFusedActivationPKT_iPS6_S8_f.constprop.0+0x1ce>
10000806:	22fc      	movs	r2, #252	@ 0xfc
10000808:	0029      	movs	r1, r5
1000080a:	4807      	ldr	r0, [pc, #28]	@ (10000828 <_ZN6tflite7testing12_GLOBAL__N_119ValidateSVDFGoldensIaEEviiiiP12TfLiteTensori21TfLiteFusedActivationPKT_iPS6_S8_f.constprop.0+0x494>)
1000080c:	32ff      	adds	r2, #255	@ 0xff
1000080e:	f008 fd63 	bl	100092d8 <_Z11MicroPrintfPKcz>
10000812:	465b      	mov	r3, fp
10000814:	7023      	strb	r3, [r4, #0]
10000816:	e6a4      	b.n	10000562 <_ZN6tflite7testing12_GLOBAL__N_119ValidateSVDFGoldensIaEEviiiiP12TfLiteTensori21TfLiteFusedActivationPKT_iPS6_S8_f.constprop.0+0x1ce>
10000818:	00000211 	.word	0x00000211
1000081c:	10010330 	.word	0x10010330
10000820:	100103cc 	.word	0x100103cc
10000824:	200051dd 	.word	0x200051dd
10000828:	10010448 	.word	0x10010448
1000082c:	00000217 	.word	0x00000217
10000830:	1001038c 	.word	0x1001038c

10000834 <_ZN6tflite7testing12_GLOBAL__N_119ValidateSVDFGoldensIaEEviiiiP12TfLiteTensori21TfLiteFusedActivationPKT_iPS6_S8_f.constprop.1>:
10000834:	b5f0      	push	{r4, r5, r6, r7, lr}
10000836:	46de      	mov	lr, fp
10000838:	4645      	mov	r5, r8
1000083a:	4657      	mov	r7, sl
1000083c:	464e      	mov	r6, r9
1000083e:	4698      	mov	r8, r3
10000840:	2301      	movs	r3, #1
10000842:	b5e0      	push	{r5, r6, r7, lr}
10000844:	4c5e      	ldr	r4, [pc, #376]	@ (100009c0 <_ZN6tflite7testing12_GLOBAL__N_119ValidateSVDFGoldensIaEEviiiiP12TfLiteTensori21TfLiteFusedActivationPKT_iPS6_S8_f.constprop.1+0x18c>)
10000846:	4692      	mov	sl, r2
10000848:	0022      	movs	r2, r4
1000084a:	b0db      	sub	sp, #364	@ 0x16c
1000084c:	9305      	str	r3, [sp, #20]
1000084e:	469b      	mov	fp, r3
10000850:	ab09      	add	r3, sp, #36	@ 0x24
10000852:	469c      	mov	ip, r3
10000854:	af05      	add	r7, sp, #20
10000856:	7139      	strb	r1, [r7, #4]
10000858:	0006      	movs	r6, r0
1000085a:	ca23      	ldmia	r2!, {r0, r1, r5}
1000085c:	c323      	stmia	r3!, {r0, r1, r5}
1000085e:	ca23      	ldmia	r2!, {r0, r1, r5}
10000860:	c323      	stmia	r3!, {r0, r1, r5}
10000862:	4660      	mov	r0, ip
10000864:	f008 fdc0 	bl	100093e8 <_ZN6tflite7testing16IntArrayFromIntsEPKi>
10000868:	4681      	mov	r9, r0
1000086a:	a807      	add	r0, sp, #28
1000086c:	0003      	movs	r3, r0
1000086e:	3418      	adds	r4, #24
10000870:	cc06      	ldmia	r4!, {r1, r2}
10000872:	c306      	stmia	r3!, {r1, r2}
10000874:	f008 fdb8 	bl	100093e8 <_ZN6tflite7testing16IntArrayFromIntsEPKi>
10000878:	0004      	movs	r4, r0
1000087a:	a80f      	add	r0, sp, #60	@ 0x3c
1000087c:	f008 f94c 	bl	10008b18 <_ZN6tflite13Register_SVDFEv>
10000880:	2300      	movs	r3, #0
10000882:	9303      	str	r3, [sp, #12]
10000884:	464b      	mov	r3, r9
10000886:	0032      	movs	r2, r6
10000888:	9300      	str	r3, [sp, #0]
1000088a:	a90f      	add	r1, sp, #60	@ 0x3c
1000088c:	2306      	movs	r3, #6
1000088e:	9702      	str	r7, [sp, #8]
10000890:	9401      	str	r4, [sp, #4]
10000892:	a816      	add	r0, sp, #88	@ 0x58
10000894:	f008 f97a 	bl	10008b8c <_ZN6tflite5micro12KernelRunnerC1ERK16TFLMRegistrationP12TfLiteTensoriP14TfLiteIntArrayS8_PKvS8_>
10000898:	2200      	movs	r2, #0
1000089a:	2100      	movs	r1, #0
1000089c:	a816      	add	r0, sp, #88	@ 0x58
1000089e:	f008 f9c9 	bl	10008c34 <_ZN6tflite5micro12KernelRunner14InitAndPrepareEPKcj>
100008a2:	2800      	cmp	r0, #0
100008a4:	d168      	bne.n	10000978 <_ZN6tflite7testing12_GLOBAL__N_119ValidateSVDFGoldensIaEEviiiiP12TfLiteTensori21TfLiteFusedActivationPKT_iPS6_S8_f.constprop.1+0x144>
100008a6:	a816      	add	r0, sp, #88	@ 0x58
100008a8:	f008 f9be 	bl	10008c28 <_ZN6tflite5micro12KernelRunner29ValidateTempBufferDeallocatedEv>
100008ac:	2800      	cmp	r0, #0
100008ae:	d059      	beq.n	10000964 <_ZN6tflite7testing12_GLOBAL__N_119ValidateSVDFGoldensIaEEviiiiP12TfLiteTensori21TfLiteFusedActivationPKT_iPS6_S8_f.constprop.1+0x130>
100008b0:	4651      	mov	r1, sl
100008b2:	6930      	ldr	r0, [r6, #16]
100008b4:	69b2      	ldr	r2, [r6, #24]
100008b6:	f004 fdfd 	bl	100054b4 <__wrap___aeabi_memcpy>
100008ba:	a816      	add	r0, sp, #88	@ 0x58
100008bc:	f008 fa0e 	bl	10008cdc <_ZN6tflite5micro12KernelRunner6InvokeEv>
100008c0:	2800      	cmp	r0, #0
100008c2:	d016      	beq.n	100008f2 <_ZN6tflite7testing12_GLOBAL__N_119ValidateSVDFGoldensIaEEviiiiP12TfLiteTensori21TfLiteFusedActivationPKT_iPS6_S8_f.constprop.1+0xbe>
100008c4:	4c3f      	ldr	r4, [pc, #252]	@ (100009c4 <_ZN6tflite7testing12_GLOBAL__N_119ValidateSVDFGoldensIaEEviiiiP12TfLiteTensori21TfLiteFusedActivationPKT_iPS6_S8_f.constprop.1+0x190>)
100008c6:	2300      	movs	r3, #0
100008c8:	4a3f      	ldr	r2, [pc, #252]	@ (100009c8 <_ZN6tflite7testing12_GLOBAL__N_119ValidateSVDFGoldensIaEEviiiiP12TfLiteTensori21TfLiteFusedActivationPKT_iPS6_S8_f.constprop.1+0x194>)
100008ca:	9000      	str	r0, [sp, #0]
100008cc:	493f      	ldr	r1, [pc, #252]	@ (100009cc <_ZN6tflite7testing12_GLOBAL__N_119ValidateSVDFGoldensIaEEviiiiP12TfLiteTensori21TfLiteFusedActivationPKT_iPS6_S8_f.constprop.1+0x198>)
100008ce:	0020      	movs	r0, r4
100008d0:	f008 fd02 	bl	100092d8 <_Z11MicroPrintfPKcz>
100008d4:	2201      	movs	r2, #1
100008d6:	4b3e      	ldr	r3, [pc, #248]	@ (100009d0 <_ZN6tflite7testing12_GLOBAL__N_119ValidateSVDFGoldensIaEEviiiiP12TfLiteTensori21TfLiteFusedActivationPKT_iPS6_S8_f.constprop.1+0x19c>)
100008d8:	701a      	strb	r2, [r3, #0]
100008da:	a816      	add	r0, sp, #88	@ 0x58
100008dc:	f008 f9a4 	bl	10008c28 <_ZN6tflite5micro12KernelRunner29ValidateTempBufferDeallocatedEv>
100008e0:	2800      	cmp	r0, #0
100008e2:	d064      	beq.n	100009ae <_ZN6tflite7testing12_GLOBAL__N_119ValidateSVDFGoldensIaEEviiiiP12TfLiteTensori21TfLiteFusedActivationPKT_iPS6_S8_f.constprop.1+0x17a>
100008e4:	b05b      	add	sp, #364	@ 0x16c
100008e6:	bcf0      	pop	{r4, r5, r6, r7}
100008e8:	46bb      	mov	fp, r7
100008ea:	46b2      	mov	sl, r6
100008ec:	46a9      	mov	r9, r5
100008ee:	46a0      	mov	r8, r4
100008f0:	bdf0      	pop	{r4, r5, r6, r7, pc}
100008f2:	4b38      	ldr	r3, [pc, #224]	@ (100009d4 <_ZN6tflite7testing12_GLOBAL__N_119ValidateSVDFGoldensIaEEviiiiP12TfLiteTensori21TfLiteFusedActivationPKT_iPS6_S8_f.constprop.1+0x1a0>)
100008f4:	2400      	movs	r4, #0
100008f6:	469b      	mov	fp, r3
100008f8:	4b34      	ldr	r3, [pc, #208]	@ (100009cc <_ZN6tflite7testing12_GLOBAL__N_119ValidateSVDFGoldensIaEEviiiiP12TfLiteTensori21TfLiteFusedActivationPKT_iPS6_S8_f.constprop.1+0x198>)
100008fa:	4699      	mov	r9, r3
100008fc:	e00b      	b.n	10000916 <_ZN6tflite7testing12_GLOBAL__N_119ValidateSVDFGoldensIaEEviiiiP12TfLiteTensori21TfLiteFusedActivationPKT_iPS6_S8_f.constprop.1+0xe2>
100008fe:	1b70      	subs	r0, r6, r5
10000900:	f004 fcf4 	bl	100052ec <__wrap___aeabi_i2f>
10000904:	21fe      	movs	r1, #254	@ 0xfe
10000906:	0589      	lsls	r1, r1, #22
10000908:	f004 fce6 	bl	100052d8 <__wrap___aeabi_fcmpgt>
1000090c:	2800      	cmp	r0, #0
1000090e:	d112      	bne.n	10000936 <_ZN6tflite7testing12_GLOBAL__N_119ValidateSVDFGoldensIaEEviiiiP12TfLiteTensori21TfLiteFusedActivationPKT_iPS6_S8_f.constprop.1+0x102>
10000910:	3401      	adds	r4, #1
10000912:	2c40      	cmp	r4, #64	@ 0x40
10000914:	d0e1      	beq.n	100008da <_ZN6tflite7testing12_GLOBAL__N_119ValidateSVDFGoldensIaEEviiiiP12TfLiteTensori21TfLiteFusedActivationPKT_iPS6_S8_f.constprop.1+0xa6>
10000916:	9b64      	ldr	r3, [sp, #400]	@ 0x190
10000918:	571e      	ldrsb	r6, [r3, r4]
1000091a:	4643      	mov	r3, r8
1000091c:	571d      	ldrsb	r5, [r3, r4]
1000091e:	42ae      	cmp	r6, r5
10000920:	dced      	bgt.n	100008fe <_ZN6tflite7testing12_GLOBAL__N_119ValidateSVDFGoldensIaEEviiiiP12TfLiteTensori21TfLiteFusedActivationPKT_iPS6_S8_f.constprop.1+0xca>
10000922:	d0f5      	beq.n	10000910 <_ZN6tflite7testing12_GLOBAL__N_119ValidateSVDFGoldensIaEEviiiiP12TfLiteTensori21TfLiteFusedActivationPKT_iPS6_S8_f.constprop.1+0xdc>
10000924:	1ba8      	subs	r0, r5, r6
10000926:	f004 fce1 	bl	100052ec <__wrap___aeabi_i2f>
1000092a:	21fe      	movs	r1, #254	@ 0xfe
1000092c:	0589      	lsls	r1, r1, #22
1000092e:	f004 fcd3 	bl	100052d8 <__wrap___aeabi_fcmpgt>
10000932:	2800      	cmp	r0, #0
10000934:	d0ec      	beq.n	10000910 <_ZN6tflite7testing12_GLOBAL__N_119ValidateSVDFGoldensIaEEviiiiP12TfLiteTensori21TfLiteFusedActivationPKT_iPS6_S8_f.constprop.1+0xdc>
10000936:	0030      	movs	r0, r6
10000938:	f004 f89c 	bl	10004a74 <__wrap___aeabi_i2d>
1000093c:	4b26      	ldr	r3, [pc, #152]	@ (100009d8 <_ZN6tflite7testing12_GLOBAL__N_119ValidateSVDFGoldensIaEEviiiiP12TfLiteTensori21TfLiteFusedActivationPKT_iPS6_S8_f.constprop.1+0x1a4>)
1000093e:	0006      	movs	r6, r0
10000940:	9303      	str	r3, [sp, #12]
10000942:	464b      	mov	r3, r9
10000944:	0028      	movs	r0, r5
10000946:	000f      	movs	r7, r1
10000948:	9302      	str	r3, [sp, #8]
1000094a:	f004 f893 	bl	10004a74 <__wrap___aeabi_i2d>
1000094e:	0032      	movs	r2, r6
10000950:	003b      	movs	r3, r7
10000952:	9000      	str	r0, [sp, #0]
10000954:	9101      	str	r1, [sp, #4]
10000956:	4658      	mov	r0, fp
10000958:	f008 fcbe 	bl	100092d8 <_Z11MicroPrintfPKcz>
1000095c:	2201      	movs	r2, #1
1000095e:	4b1c      	ldr	r3, [pc, #112]	@ (100009d0 <_ZN6tflite7testing12_GLOBAL__N_119ValidateSVDFGoldensIaEEviiiiP12TfLiteTensori21TfLiteFusedActivationPKT_iPS6_S8_f.constprop.1+0x19c>)
10000960:	701a      	strb	r2, [r3, #0]
10000962:	e7d5      	b.n	10000910 <_ZN6tflite7testing12_GLOBAL__N_119ValidateSVDFGoldensIaEEviiiiP12TfLiteTensori21TfLiteFusedActivationPKT_iPS6_S8_f.constprop.1+0xdc>
10000964:	22fc      	movs	r2, #252	@ 0xfc
10000966:	4919      	ldr	r1, [pc, #100]	@ (100009cc <_ZN6tflite7testing12_GLOBAL__N_119ValidateSVDFGoldensIaEEviiiiP12TfLiteTensori21TfLiteFusedActivationPKT_iPS6_S8_f.constprop.1+0x198>)
10000968:	32ff      	adds	r2, #255	@ 0xff
1000096a:	481c      	ldr	r0, [pc, #112]	@ (100009dc <_ZN6tflite7testing12_GLOBAL__N_119ValidateSVDFGoldensIaEEviiiiP12TfLiteTensori21TfLiteFusedActivationPKT_iPS6_S8_f.constprop.1+0x1a8>)
1000096c:	f008 fcb4 	bl	100092d8 <_Z11MicroPrintfPKcz>
10000970:	465a      	mov	r2, fp
10000972:	4b17      	ldr	r3, [pc, #92]	@ (100009d0 <_ZN6tflite7testing12_GLOBAL__N_119ValidateSVDFGoldensIaEEviiiiP12TfLiteTensori21TfLiteFusedActivationPKT_iPS6_S8_f.constprop.1+0x19c>)
10000974:	701a      	strb	r2, [r3, #0]
10000976:	e79b      	b.n	100008b0 <_ZN6tflite7testing12_GLOBAL__N_119ValidateSVDFGoldensIaEEviiiiP12TfLiteTensori21TfLiteFusedActivationPKT_iPS6_S8_f.constprop.1+0x7c>
10000978:	22fd      	movs	r2, #253	@ 0xfd
1000097a:	4c19      	ldr	r4, [pc, #100]	@ (100009e0 <_ZN6tflite7testing12_GLOBAL__N_119ValidateSVDFGoldensIaEEviiiiP12TfLiteTensori21TfLiteFusedActivationPKT_iPS6_S8_f.constprop.1+0x1ac>)
1000097c:	4e13      	ldr	r6, [pc, #76]	@ (100009cc <_ZN6tflite7testing12_GLOBAL__N_119ValidateSVDFGoldensIaEEviiiiP12TfLiteTensori21TfLiteFusedActivationPKT_iPS6_S8_f.constprop.1+0x198>)
1000097e:	2300      	movs	r3, #0
10000980:	9000      	str	r0, [sp, #0]
10000982:	0031      	movs	r1, r6
10000984:	0020      	movs	r0, r4
10000986:	0052      	lsls	r2, r2, #1
10000988:	f008 fca6 	bl	100092d8 <_Z11MicroPrintfPKcz>
1000098c:	465b      	mov	r3, fp
1000098e:	4c10      	ldr	r4, [pc, #64]	@ (100009d0 <_ZN6tflite7testing12_GLOBAL__N_119ValidateSVDFGoldensIaEEviiiiP12TfLiteTensori21TfLiteFusedActivationPKT_iPS6_S8_f.constprop.1+0x19c>)
10000990:	a816      	add	r0, sp, #88	@ 0x58
10000992:	7023      	strb	r3, [r4, #0]
10000994:	f008 f948 	bl	10008c28 <_ZN6tflite5micro12KernelRunner29ValidateTempBufferDeallocatedEv>
10000998:	2800      	cmp	r0, #0
1000099a:	d1a3      	bne.n	100008e4 <_ZN6tflite7testing12_GLOBAL__N_119ValidateSVDFGoldensIaEEviiiiP12TfLiteTensori21TfLiteFusedActivationPKT_iPS6_S8_f.constprop.1+0xb0>
1000099c:	22fc      	movs	r2, #252	@ 0xfc
1000099e:	0031      	movs	r1, r6
100009a0:	480e      	ldr	r0, [pc, #56]	@ (100009dc <_ZN6tflite7testing12_GLOBAL__N_119ValidateSVDFGoldensIaEEviiiiP12TfLiteTensori21TfLiteFusedActivationPKT_iPS6_S8_f.constprop.1+0x1a8>)
100009a2:	32ff      	adds	r2, #255	@ 0xff
100009a4:	f008 fc98 	bl	100092d8 <_Z11MicroPrintfPKcz>
100009a8:	465b      	mov	r3, fp
100009aa:	7023      	strb	r3, [r4, #0]
100009ac:	e79a      	b.n	100008e4 <_ZN6tflite7testing12_GLOBAL__N_119ValidateSVDFGoldensIaEEviiiiP12TfLiteTensori21TfLiteFusedActivationPKT_iPS6_S8_f.constprop.1+0xb0>
100009ae:	4a0d      	ldr	r2, [pc, #52]	@ (100009e4 <_ZN6tflite7testing12_GLOBAL__N_119ValidateSVDFGoldensIaEEviiiiP12TfLiteTensori21TfLiteFusedActivationPKT_iPS6_S8_f.constprop.1+0x1b0>)
100009b0:	4906      	ldr	r1, [pc, #24]	@ (100009cc <_ZN6tflite7testing12_GLOBAL__N_119ValidateSVDFGoldensIaEEviiiiP12TfLiteTensori21TfLiteFusedActivationPKT_iPS6_S8_f.constprop.1+0x198>)
100009b2:	480a      	ldr	r0, [pc, #40]	@ (100009dc <_ZN6tflite7testing12_GLOBAL__N_119ValidateSVDFGoldensIaEEviiiiP12TfLiteTensori21TfLiteFusedActivationPKT_iPS6_S8_f.constprop.1+0x1a8>)
100009b4:	f008 fc90 	bl	100092d8 <_Z11MicroPrintfPKcz>
100009b8:	2201      	movs	r2, #1
100009ba:	4b05      	ldr	r3, [pc, #20]	@ (100009d0 <_ZN6tflite7testing12_GLOBAL__N_119ValidateSVDFGoldensIaEEviiiiP12TfLiteTensori21TfLiteFusedActivationPKT_iPS6_S8_f.constprop.1+0x19c>)
100009bc:	701a      	strb	r2, [r3, #0]
100009be:	e791      	b.n	100008e4 <_ZN6tflite7testing12_GLOBAL__N_119ValidateSVDFGoldensIaEEviiiiP12TfLiteTensori21TfLiteFusedActivationPKT_iPS6_S8_f.constprop.1+0xb0>
100009c0:	10013d0c 	.word	0x10013d0c
100009c4:	10010418 	.word	0x10010418
100009c8:	0000020a 	.word	0x0000020a
100009cc:	10010330 	.word	0x10010330
100009d0:	200051dd 	.word	0x200051dd
100009d4:	100103cc 	.word	0x100103cc
100009d8:	00000211 	.word	0x00000211
100009dc:	10010448 	.word	0x10010448
100009e0:	1001038c 	.word	0x1001038c
100009e4:	00000217 	.word	0x00000217

100009e8 <_ZN6tflite7testing12_GLOBAL__N_18TestSVDFEiiiii21TfLiteFusedActivationPfPKfS5_S3_S5_S3_S3_S5_iS5_f.constprop.0>:
100009e8:	b5f0      	push	{r4, r5, r6, r7, lr}
100009ea:	46de      	mov	lr, fp
100009ec:	4657      	mov	r7, sl
100009ee:	464e      	mov	r6, r9
100009f0:	4645      	mov	r5, r8
100009f2:	b5e0      	push	{r5, r6, r7, lr}
100009f4:	4cd9      	ldr	r4, [pc, #868]	@ (10000d5c <_ZN6tflite7testing12_GLOBAL__N_18TestSVDFEiiiii21TfLiteFusedActivationPfPKfS5_S3_S5_S3_S3_S5_iS5_f.constprop.0+0x374>)
100009f6:	2601      	movs	r6, #1
100009f8:	44a5      	add	sp, r4
100009fa:	9307      	str	r3, [sp, #28]
100009fc:	2310      	movs	r3, #16
100009fe:	2402      	movs	r4, #2
10000a00:	4698      	mov	r8, r3
10000a02:	9312      	str	r3, [sp, #72]	@ 0x48
10000a04:	ab10      	add	r3, sp, #64	@ 0x40
10000a06:	9008      	str	r0, [sp, #32]
10000a08:	0018      	movs	r0, r3
10000a0a:	468b      	mov	fp, r1
10000a0c:	9209      	str	r2, [sp, #36]	@ 0x24
10000a0e:	9410      	str	r4, [sp, #64]	@ 0x40
10000a10:	9611      	str	r6, [sp, #68]	@ 0x44
10000a12:	f008 fce9 	bl	100093e8 <_ZN6tflite7testing16IntArrayFromIntsEPKi>
10000a16:	4643      	mov	r3, r8
10000a18:	2540      	movs	r5, #64	@ 0x40
10000a1a:	9315      	str	r3, [sp, #84]	@ 0x54
10000a1c:	ab13      	add	r3, sp, #76	@ 0x4c
10000a1e:	4682      	mov	sl, r0
10000a20:	0018      	movs	r0, r3
10000a22:	9413      	str	r4, [sp, #76]	@ 0x4c
10000a24:	9514      	str	r5, [sp, #80]	@ 0x50
10000a26:	f008 fcdf 	bl	100093e8 <_ZN6tflite7testing16IntArrayFromIntsEPKi>
10000a2a:	2308      	movs	r3, #8
10000a2c:	9318      	str	r3, [sp, #96]	@ 0x60
10000a2e:	ab16      	add	r3, sp, #88	@ 0x58
10000a30:	4681      	mov	r9, r0
10000a32:	0018      	movs	r0, r3
10000a34:	9416      	str	r4, [sp, #88]	@ 0x58
10000a36:	9517      	str	r5, [sp, #92]	@ 0x5c
10000a38:	f008 fcd6 	bl	100093e8 <_ZN6tflite7testing16IntArrayFromIntsEPKi>
10000a3c:	2380      	movs	r3, #128	@ 0x80
10000a3e:	009b      	lsls	r3, r3, #2
10000a40:	931b      	str	r3, [sp, #108]	@ 0x6c
10000a42:	ab19      	add	r3, sp, #100	@ 0x64
10000a44:	4680      	mov	r8, r0
10000a46:	0018      	movs	r0, r3
10000a48:	9419      	str	r4, [sp, #100]	@ 0x64
10000a4a:	961a      	str	r6, [sp, #104]	@ 0x68
10000a4c:	f008 fccc 	bl	100093e8 <_ZN6tflite7testing16IntArrayFromIntsEPKi>
10000a50:	ab0a      	add	r3, sp, #40	@ 0x28
10000a52:	9004      	str	r0, [sp, #16]
10000a54:	0018      	movs	r0, r3
10000a56:	960a      	str	r6, [sp, #40]	@ 0x28
10000a58:	950b      	str	r5, [sp, #44]	@ 0x2c
10000a5a:	f008 fcc5 	bl	100093e8 <_ZN6tflite7testing16IntArrayFromIntsEPKi>
10000a5e:	941c      	str	r4, [sp, #112]	@ 0x70
10000a60:	ac1c      	add	r4, sp, #112	@ 0x70
10000a62:	9006      	str	r0, [sp, #24]
10000a64:	0020      	movs	r0, r4
10000a66:	961d      	str	r6, [sp, #116]	@ 0x74
10000a68:	951e      	str	r5, [sp, #120]	@ 0x78
10000a6a:	f008 fcbd 	bl	100093e8 <_ZN6tflite7testing16IntArrayFromIntsEPKi>
10000a6e:	4655      	mov	r5, sl
10000a70:	0007      	movs	r7, r0
10000a72:	2208      	movs	r2, #8
10000a74:	2100      	movs	r1, #0
10000a76:	a82e      	add	r0, sp, #184	@ 0xb8
10000a78:	9531      	str	r5, [sp, #196]	@ 0xc4
10000a7a:	f004 fd15 	bl	100054a8 <__wrap_memset>
10000a7e:	465b      	mov	r3, fp
10000a80:	2500      	movs	r5, #0
10000a82:	9330      	str	r3, [sp, #192]	@ 0xc0
10000a84:	2301      	movs	r3, #1
10000a86:	ac2c      	add	r4, sp, #176	@ 0xb0
10000a88:	4650      	mov	r0, sl
10000a8a:	469b      	mov	fp, r3
10000a8c:	83a6      	strh	r6, [r4, #28]
10000a8e:	952c      	str	r5, [sp, #176]	@ 0xb0
10000a90:	77a5      	strb	r5, [r4, #30]
10000a92:	6065      	str	r5, [r4, #4]
10000a94:	f008 fc32 	bl	100092fc <_ZN6tflite12ElementCountERK14TfLiteIntArray>
10000a98:	4682      	mov	sl, r0
10000a9a:	7f20      	ldrb	r0, [r4, #28]
10000a9c:	f007 fb44 	bl	10008128 <_ZN6tflite17TfLiteTypeGetSizeE10TfLiteType>
10000aa0:	4653      	mov	r3, sl
10000aa2:	4358      	muls	r0, r3
10000aa4:	464b      	mov	r3, r9
10000aa6:	2208      	movs	r2, #8
10000aa8:	2100      	movs	r1, #0
10000aaa:	61a0      	str	r0, [r4, #24]
10000aac:	a836      	add	r0, sp, #216	@ 0xd8
10000aae:	6363      	str	r3, [r4, #52]	@ 0x34
10000ab0:	f004 fcfa 	bl	100054a8 <__wrap_memset>
10000ab4:	233e      	movs	r3, #62	@ 0x3e
10000ab6:	54e5      	strb	r5, [r4, r3]
10000ab8:	4ba9      	ldr	r3, [pc, #676]	@ (10000d60 <_ZN6tflite7testing12_GLOBAL__N_18TestSVDFEiiiii21TfLiteFusedActivationPfPKfS5_S3_S5_S3_S3_S5_iS5_f.constprop.0+0x378>)
10000aba:	4648      	mov	r0, r9
10000abc:	6323      	str	r3, [r4, #48]	@ 0x30
10000abe:	87a6      	strh	r6, [r4, #60]	@ 0x3c
10000ac0:	6225      	str	r5, [r4, #32]
10000ac2:	6265      	str	r5, [r4, #36]	@ 0x24
10000ac4:	f008 fc1a 	bl	100092fc <_ZN6tflite12ElementCountERK14TfLiteIntArray>
10000ac8:	233c      	movs	r3, #60	@ 0x3c
10000aca:	4681      	mov	r9, r0
10000acc:	5ce0      	ldrb	r0, [r4, r3]
10000ace:	f007 fb2b 	bl	10008128 <_ZN6tflite17TfLiteTypeGetSizeE10TfLiteType>
10000ad2:	464b      	mov	r3, r9
10000ad4:	4358      	muls	r0, r3
10000ad6:	4643      	mov	r3, r8
10000ad8:	2208      	movs	r2, #8
10000ada:	2100      	movs	r1, #0
10000adc:	63a0      	str	r0, [r4, #56]	@ 0x38
10000ade:	a83e      	add	r0, sp, #248	@ 0xf8
10000ae0:	6563      	str	r3, [r4, #84]	@ 0x54
10000ae2:	f004 fce1 	bl	100054a8 <__wrap_memset>
10000ae6:	235e      	movs	r3, #94	@ 0x5e
10000ae8:	54e5      	strb	r5, [r4, r3]
10000aea:	4b9e      	ldr	r3, [pc, #632]	@ (10000d64 <_ZN6tflite7testing12_GLOBAL__N_18TestSVDFEiiiii21TfLiteFusedActivationPfPKfS5_S3_S5_S3_S3_S5_iS5_f.constprop.0+0x37c>)
10000aec:	4640      	mov	r0, r8
10000aee:	6523      	str	r3, [r4, #80]	@ 0x50
10000af0:	235c      	movs	r3, #92	@ 0x5c
10000af2:	4699      	mov	r9, r3
10000af4:	52e6      	strh	r6, [r4, r3]
10000af6:	6425      	str	r5, [r4, #64]	@ 0x40
10000af8:	6465      	str	r5, [r4, #68]	@ 0x44
10000afa:	f008 fbff 	bl	100092fc <_ZN6tflite12ElementCountERK14TfLiteIntArray>
10000afe:	464b      	mov	r3, r9
10000b00:	4680      	mov	r8, r0
10000b02:	5ce0      	ldrb	r0, [r4, r3]
10000b04:	f007 fb10 	bl	10008128 <_ZN6tflite17TfLiteTypeGetSizeE10TfLiteType>
10000b08:	4643      	mov	r3, r8
10000b0a:	4358      	muls	r0, r3
10000b0c:	9b06      	ldr	r3, [sp, #24]
10000b0e:	2208      	movs	r2, #8
10000b10:	2100      	movs	r1, #0
10000b12:	65a0      	str	r0, [r4, #88]	@ 0x58
10000b14:	a846      	add	r0, sp, #280	@ 0x118
10000b16:	6763      	str	r3, [r4, #116]	@ 0x74
10000b18:	f004 fcc6 	bl	100054a8 <__wrap_memset>
10000b1c:	237e      	movs	r3, #126	@ 0x7e
10000b1e:	217c      	movs	r1, #124	@ 0x7c
10000b20:	54e5      	strb	r5, [r4, r3]
10000b22:	4b91      	ldr	r3, [pc, #580]	@ (10000d68 <_ZN6tflite7testing12_GLOBAL__N_18TestSVDFEiiiii21TfLiteFusedActivationPfPKfS5_S3_S5_S3_S3_S5_iS5_f.constprop.0+0x380>)
10000b24:	4688      	mov	r8, r1
10000b26:	9806      	ldr	r0, [sp, #24]
10000b28:	5266      	strh	r6, [r4, r1]
10000b2a:	6723      	str	r3, [r4, #112]	@ 0x70
10000b2c:	6625      	str	r5, [r4, #96]	@ 0x60
10000b2e:	6665      	str	r5, [r4, #100]	@ 0x64
10000b30:	f008 fbe4 	bl	100092fc <_ZN6tflite12ElementCountERK14TfLiteIntArray>
10000b34:	4643      	mov	r3, r8
10000b36:	4681      	mov	r9, r0
10000b38:	5ce0      	ldrb	r0, [r4, r3]
10000b3a:	f007 faf5 	bl	10008128 <_ZN6tflite17TfLiteTypeGetSizeE10TfLiteType>
10000b3e:	464b      	mov	r3, r9
10000b40:	4358      	muls	r0, r3
10000b42:	2394      	movs	r3, #148	@ 0x94
10000b44:	9904      	ldr	r1, [sp, #16]
10000b46:	2208      	movs	r2, #8
10000b48:	50e1      	str	r1, [r4, r3]
10000b4a:	67a0      	str	r0, [r4, #120]	@ 0x78
10000b4c:	2100      	movs	r1, #0
10000b4e:	a84e      	add	r0, sp, #312	@ 0x138
10000b50:	f004 fcaa 	bl	100054a8 <__wrap_memset>
10000b54:	2380      	movs	r3, #128	@ 0x80
10000b56:	4659      	mov	r1, fp
10000b58:	50e5      	str	r5, [r4, r3]
10000b5a:	3304      	adds	r3, #4
10000b5c:	50e5      	str	r5, [r4, r3]
10000b5e:	9a09      	ldr	r2, [sp, #36]	@ 0x24
10000b60:	331a      	adds	r3, #26
10000b62:	54e1      	strb	r1, [r4, r3]
10000b64:	3b0e      	subs	r3, #14
10000b66:	50e2      	str	r2, [r4, r3]
10000b68:	330c      	adds	r3, #12
10000b6a:	4698      	mov	r8, r3
10000b6c:	9804      	ldr	r0, [sp, #16]
10000b6e:	52e6      	strh	r6, [r4, r3]
10000b70:	f008 fbc4 	bl	100092fc <_ZN6tflite12ElementCountERK14TfLiteIntArray>
10000b74:	4643      	mov	r3, r8
10000b76:	4681      	mov	r9, r0
10000b78:	5ce0      	ldrb	r0, [r4, r3]
10000b7a:	f007 fad5 	bl	10008128 <_ZN6tflite17TfLiteTypeGetSizeE10TfLiteType>
10000b7e:	464b      	mov	r3, r9
10000b80:	4358      	muls	r0, r3
10000b82:	2398      	movs	r3, #152	@ 0x98
10000b84:	2100      	movs	r1, #0
10000b86:	50e0      	str	r0, [r4, r3]
10000b88:	2208      	movs	r2, #8
10000b8a:	331c      	adds	r3, #28
10000b8c:	a856      	add	r0, sp, #344	@ 0x158
10000b8e:	50e7      	str	r7, [r4, r3]
10000b90:	f004 fc8a 	bl	100054a8 <__wrap_memset>
10000b94:	23a0      	movs	r3, #160	@ 0xa0
10000b96:	50e5      	str	r5, [r4, r3]
10000b98:	3304      	adds	r3, #4
10000b9a:	50e5      	str	r5, [r4, r3]
10000b9c:	9a07      	ldr	r2, [sp, #28]
10000b9e:	331a      	adds	r3, #26
10000ba0:	54e5      	strb	r5, [r4, r3]
10000ba2:	3b0e      	subs	r3, #14
10000ba4:	50e2      	str	r2, [r4, r3]
10000ba6:	330c      	adds	r3, #12
10000ba8:	4698      	mov	r8, r3
10000baa:	0038      	movs	r0, r7
10000bac:	52e6      	strh	r6, [r4, r3]
10000bae:	f008 fba5 	bl	100092fc <_ZN6tflite12ElementCountERK14TfLiteIntArray>
10000bb2:	4643      	mov	r3, r8
10000bb4:	4681      	mov	r9, r0
10000bb6:	5ce0      	ldrb	r0, [r4, r3]
10000bb8:	f007 fab6 	bl	10008128 <_ZN6tflite17TfLiteTypeGetSizeE10TfLiteType>
10000bbc:	464b      	mov	r3, r9
10000bbe:	4358      	muls	r0, r3
10000bc0:	23b8      	movs	r3, #184	@ 0xb8
10000bc2:	9a08      	ldr	r2, [sp, #32]
10000bc4:	960c      	str	r6, [sp, #48]	@ 0x30
10000bc6:	4e69      	ldr	r6, [pc, #420]	@ (10000d6c <_ZN6tflite7testing12_GLOBAL__N_18TestSVDFEiiiii21TfLiteFusedActivationPfPKfS5_S3_S5_S3_S3_S5_iS5_f.constprop.0+0x384>)
10000bc8:	50e0      	str	r0, [r4, r3]
10000bca:	ab06      	add	r3, sp, #24
10000bcc:	771a      	strb	r2, [r3, #28]
10000bce:	0032      	movs	r2, r6
10000bd0:	ab1f      	add	r3, sp, #124	@ 0x7c
10000bd2:	469c      	mov	ip, r3
10000bd4:	ca83      	ldmia	r2!, {r0, r1, r7}
10000bd6:	c383      	stmia	r3!, {r0, r1, r7}
10000bd8:	ca83      	ldmia	r2!, {r0, r1, r7}
10000bda:	c383      	stmia	r3!, {r0, r1, r7}
10000bdc:	4660      	mov	r0, ip
10000bde:	f008 fc03 	bl	100093e8 <_ZN6tflite7testing16IntArrayFromIntsEPKi>
10000be2:	4680      	mov	r8, r0
10000be4:	a80e      	add	r0, sp, #56	@ 0x38
10000be6:	0003      	movs	r3, r0
10000be8:	3618      	adds	r6, #24
10000bea:	ce06      	ldmia	r6!, {r1, r2}
10000bec:	c306      	stmia	r3!, {r1, r2}
10000bee:	f008 fbfb 	bl	100093e8 <_ZN6tflite7testing16IntArrayFromIntsEPKi>
10000bf2:	0006      	movs	r6, r0
10000bf4:	a825      	add	r0, sp, #148	@ 0x94
10000bf6:	f007 ff8f 	bl	10008b18 <_ZN6tflite13Register_SVDFEv>
10000bfa:	ab0c      	add	r3, sp, #48	@ 0x30
10000bfc:	9302      	str	r3, [sp, #8]
10000bfe:	4643      	mov	r3, r8
10000c00:	0022      	movs	r2, r4
10000c02:	9300      	str	r3, [sp, #0]
10000c04:	a925      	add	r1, sp, #148	@ 0x94
10000c06:	2306      	movs	r3, #6
10000c08:	9503      	str	r5, [sp, #12]
10000c0a:	9601      	str	r6, [sp, #4]
10000c0c:	a85c      	add	r0, sp, #368	@ 0x170
10000c0e:	f007 ffbd 	bl	10008b8c <_ZN6tflite5micro12KernelRunnerC1ERK16TFLMRegistrationP12TfLiteTensoriP14TfLiteIntArrayS8_PKvS8_>
10000c12:	2200      	movs	r2, #0
10000c14:	2100      	movs	r1, #0
10000c16:	a85c      	add	r0, sp, #368	@ 0x170
10000c18:	f008 f80c 	bl	10008c34 <_ZN6tflite5micro12KernelRunner14InitAndPrepareEPKcj>
10000c1c:	2800      	cmp	r0, #0
10000c1e:	d000      	beq.n	10000c22 <_ZN6tflite7testing12_GLOBAL__N_18TestSVDFEiiiii21TfLiteFusedActivationPfPKfS5_S3_S5_S3_S3_S5_iS5_f.constprop.0+0x23a>
10000c20:	e078      	b.n	10000d14 <_ZN6tflite7testing12_GLOBAL__N_18TestSVDFEiiiii21TfLiteFusedActivationPfPKfS5_S3_S5_S3_S3_S5_iS5_f.constprop.0+0x32c>
10000c22:	a85c      	add	r0, sp, #368	@ 0x170
10000c24:	f008 f800 	bl	10008c28 <_ZN6tflite5micro12KernelRunner29ValidateTempBufferDeallocatedEv>
10000c28:	2800      	cmp	r0, #0
10000c2a:	d069      	beq.n	10000d00 <_ZN6tflite7testing12_GLOBAL__N_18TestSVDFEiiiii21TfLiteFusedActivationPfPKfS5_S3_S5_S3_S3_S5_iS5_f.constprop.0+0x318>
10000c2c:	6920      	ldr	r0, [r4, #16]
10000c2e:	4950      	ldr	r1, [pc, #320]	@ (10000d70 <_ZN6tflite7testing12_GLOBAL__N_18TestSVDFEiiiii21TfLiteFusedActivationPfPKfS5_S3_S5_S3_S3_S5_iS5_f.constprop.0+0x388>)
10000c30:	69a2      	ldr	r2, [r4, #24]
10000c32:	f004 fc3f 	bl	100054b4 <__wrap___aeabi_memcpy>
10000c36:	a85c      	add	r0, sp, #368	@ 0x170
10000c38:	f008 f850 	bl	10008cdc <_ZN6tflite5micro12KernelRunner6InvokeEv>
10000c3c:	2800      	cmp	r0, #0
10000c3e:	d019      	beq.n	10000c74 <_ZN6tflite7testing12_GLOBAL__N_18TestSVDFEiiiii21TfLiteFusedActivationPfPKfS5_S3_S5_S3_S3_S5_iS5_f.constprop.0+0x28c>
10000c40:	4c4c      	ldr	r4, [pc, #304]	@ (10000d74 <_ZN6tflite7testing12_GLOBAL__N_18TestSVDFEiiiii21TfLiteFusedActivationPfPKfS5_S3_S5_S3_S3_S5_iS5_f.constprop.0+0x38c>)
10000c42:	2300      	movs	r3, #0
10000c44:	4a4c      	ldr	r2, [pc, #304]	@ (10000d78 <_ZN6tflite7testing12_GLOBAL__N_18TestSVDFEiiiii21TfLiteFusedActivationPfPKfS5_S3_S5_S3_S3_S5_iS5_f.constprop.0+0x390>)
10000c46:	9000      	str	r0, [sp, #0]
10000c48:	494c      	ldr	r1, [pc, #304]	@ (10000d7c <_ZN6tflite7testing12_GLOBAL__N_18TestSVDFEiiiii21TfLiteFusedActivationPfPKfS5_S3_S5_S3_S3_S5_iS5_f.constprop.0+0x394>)
10000c4a:	0020      	movs	r0, r4
10000c4c:	f008 fb44 	bl	100092d8 <_Z11MicroPrintfPKcz>
10000c50:	2201      	movs	r2, #1
10000c52:	4b4b      	ldr	r3, [pc, #300]	@ (10000d80 <_ZN6tflite7testing12_GLOBAL__N_18TestSVDFEiiiii21TfLiteFusedActivationPfPKfS5_S3_S5_S3_S3_S5_iS5_f.constprop.0+0x398>)
10000c54:	701a      	strb	r2, [r3, #0]
10000c56:	a85c      	add	r0, sp, #368	@ 0x170
10000c58:	f007 ffe6 	bl	10008c28 <_ZN6tflite5micro12KernelRunner29ValidateTempBufferDeallocatedEv>
10000c5c:	2800      	cmp	r0, #0
10000c5e:	d100      	bne.n	10000c62 <_ZN6tflite7testing12_GLOBAL__N_18TestSVDFEiiiii21TfLiteFusedActivationPfPKfS5_S3_S5_S3_S3_S5_iS5_f.constprop.0+0x27a>
10000c60:	e073      	b.n	10000d4a <_ZN6tflite7testing12_GLOBAL__N_18TestSVDFEiiiii21TfLiteFusedActivationPfPKfS5_S3_S5_S3_S3_S5_iS5_f.constprop.0+0x362>
10000c62:	23a1      	movs	r3, #161	@ 0xa1
10000c64:	009b      	lsls	r3, r3, #2
10000c66:	449d      	add	sp, r3
10000c68:	bcf0      	pop	{r4, r5, r6, r7}
10000c6a:	46bb      	mov	fp, r7
10000c6c:	46b2      	mov	sl, r6
10000c6e:	46a9      	mov	r9, r5
10000c70:	46a0      	mov	r8, r4
10000c72:	bdf0      	pop	{r4, r5, r6, r7, pc}
10000c74:	4b43      	ldr	r3, [pc, #268]	@ (10000d84 <_ZN6tflite7testing12_GLOBAL__N_18TestSVDFEiiiii21TfLiteFusedActivationPfPKfS5_S3_S5_S3_S3_S5_iS5_f.constprop.0+0x39c>)
10000c76:	2600      	movs	r6, #0
10000c78:	469a      	mov	sl, r3
10000c7a:	4b40      	ldr	r3, [pc, #256]	@ (10000d7c <_ZN6tflite7testing12_GLOBAL__N_18TestSVDFEiiiii21TfLiteFusedActivationPfPKfS5_S3_S5_S3_S3_S5_iS5_f.constprop.0+0x394>)
10000c7c:	9faa      	ldr	r7, [sp, #680]	@ 0x2a8
10000c7e:	4699      	mov	r9, r3
10000c80:	9b07      	ldr	r3, [sp, #28]
10000c82:	469b      	mov	fp, r3
10000c84:	e00d      	b.n	10000ca2 <_ZN6tflite7testing12_GLOBAL__N_18TestSVDFEiiiii21TfLiteFusedActivationPfPKfS5_S3_S5_S3_S3_S5_iS5_f.constprop.0+0x2ba>
10000c86:	1c29      	adds	r1, r5, #0
10000c88:	1c20      	adds	r0, r4, #0
10000c8a:	f004 face 	bl	1000522a <__wrap___aeabi_fsub>
10000c8e:	493e      	ldr	r1, [pc, #248]	@ (10000d88 <_ZN6tflite7testing12_GLOBAL__N_18TestSVDFEiiiii21TfLiteFusedActivationPfPKfS5_S3_S5_S3_S3_S5_iS5_f.constprop.0+0x3a0>)
10000c90:	f004 fb22 	bl	100052d8 <__wrap___aeabi_fcmpgt>
10000c94:	2800      	cmp	r0, #0
10000c96:	d11c      	bne.n	10000cd2 <_ZN6tflite7testing12_GLOBAL__N_18TestSVDFEiiiii21TfLiteFusedActivationPfPKfS5_S3_S5_S3_S3_S5_iS5_f.constprop.0+0x2ea>
10000c98:	2380      	movs	r3, #128	@ 0x80
10000c9a:	3604      	adds	r6, #4
10000c9c:	005b      	lsls	r3, r3, #1
10000c9e:	429e      	cmp	r6, r3
10000ca0:	d0d9      	beq.n	10000c56 <_ZN6tflite7testing12_GLOBAL__N_18TestSVDFEiiiii21TfLiteFusedActivationPfPKfS5_S3_S5_S3_S3_S5_iS5_f.constprop.0+0x26e>
10000ca2:	465b      	mov	r3, fp
10000ca4:	59bc      	ldr	r4, [r7, r6]
10000ca6:	599d      	ldr	r5, [r3, r6]
10000ca8:	1c20      	adds	r0, r4, #0
10000caa:	1c29      	adds	r1, r5, #0
10000cac:	f004 fb14 	bl	100052d8 <__wrap___aeabi_fcmpgt>
10000cb0:	2800      	cmp	r0, #0
10000cb2:	d1e8      	bne.n	10000c86 <_ZN6tflite7testing12_GLOBAL__N_18TestSVDFEiiiii21TfLiteFusedActivationPfPKfS5_S3_S5_S3_S3_S5_iS5_f.constprop.0+0x29e>
10000cb4:	1c29      	adds	r1, r5, #0
10000cb6:	1c20      	adds	r0, r4, #0
10000cb8:	f004 fb00 	bl	100052bc <__wrap___aeabi_fcmpeq>
10000cbc:	2800      	cmp	r0, #0
10000cbe:	d1eb      	bne.n	10000c98 <_ZN6tflite7testing12_GLOBAL__N_18TestSVDFEiiiii21TfLiteFusedActivationPfPKfS5_S3_S5_S3_S3_S5_iS5_f.constprop.0+0x2b0>
10000cc0:	1c21      	adds	r1, r4, #0
10000cc2:	1c28      	adds	r0, r5, #0
10000cc4:	f004 fab1 	bl	1000522a <__wrap___aeabi_fsub>
10000cc8:	492f      	ldr	r1, [pc, #188]	@ (10000d88 <_ZN6tflite7testing12_GLOBAL__N_18TestSVDFEiiiii21TfLiteFusedActivationPfPKfS5_S3_S5_S3_S3_S5_iS5_f.constprop.0+0x3a0>)
10000cca:	f004 fb05 	bl	100052d8 <__wrap___aeabi_fcmpgt>
10000cce:	2800      	cmp	r0, #0
10000cd0:	d0e2      	beq.n	10000c98 <_ZN6tflite7testing12_GLOBAL__N_18TestSVDFEiiiii21TfLiteFusedActivationPfPKfS5_S3_S5_S3_S3_S5_iS5_f.constprop.0+0x2b0>
10000cd2:	1c20      	adds	r0, r4, #0
10000cd4:	f004 fb2c 	bl	10005330 <__wrap___aeabi_f2d>
10000cd8:	4b2c      	ldr	r3, [pc, #176]	@ (10000d8c <_ZN6tflite7testing12_GLOBAL__N_18TestSVDFEiiiii21TfLiteFusedActivationPfPKfS5_S3_S5_S3_S3_S5_iS5_f.constprop.0+0x3a4>)
10000cda:	9004      	str	r0, [sp, #16]
10000cdc:	9105      	str	r1, [sp, #20]
10000cde:	9303      	str	r3, [sp, #12]
10000ce0:	464b      	mov	r3, r9
10000ce2:	1c28      	adds	r0, r5, #0
10000ce4:	9302      	str	r3, [sp, #8]
10000ce6:	f004 fb23 	bl	10005330 <__wrap___aeabi_f2d>
10000cea:	9a04      	ldr	r2, [sp, #16]
10000cec:	9b05      	ldr	r3, [sp, #20]
10000cee:	9000      	str	r0, [sp, #0]
10000cf0:	9101      	str	r1, [sp, #4]
10000cf2:	4650      	mov	r0, sl
10000cf4:	f008 faf0 	bl	100092d8 <_Z11MicroPrintfPKcz>
10000cf8:	2201      	movs	r2, #1
10000cfa:	4b21      	ldr	r3, [pc, #132]	@ (10000d80 <_ZN6tflite7testing12_GLOBAL__N_18TestSVDFEiiiii21TfLiteFusedActivationPfPKfS5_S3_S5_S3_S3_S5_iS5_f.constprop.0+0x398>)
10000cfc:	701a      	strb	r2, [r3, #0]
10000cfe:	e7cb      	b.n	10000c98 <_ZN6tflite7testing12_GLOBAL__N_18TestSVDFEiiiii21TfLiteFusedActivationPfPKfS5_S3_S5_S3_S3_S5_iS5_f.constprop.0+0x2b0>
10000d00:	22fc      	movs	r2, #252	@ 0xfc
10000d02:	491e      	ldr	r1, [pc, #120]	@ (10000d7c <_ZN6tflite7testing12_GLOBAL__N_18TestSVDFEiiiii21TfLiteFusedActivationPfPKfS5_S3_S5_S3_S3_S5_iS5_f.constprop.0+0x394>)
10000d04:	32ff      	adds	r2, #255	@ 0xff
10000d06:	4822      	ldr	r0, [pc, #136]	@ (10000d90 <_ZN6tflite7testing12_GLOBAL__N_18TestSVDFEiiiii21TfLiteFusedActivationPfPKfS5_S3_S5_S3_S3_S5_iS5_f.constprop.0+0x3a8>)
10000d08:	f008 fae6 	bl	100092d8 <_Z11MicroPrintfPKcz>
10000d0c:	465a      	mov	r2, fp
10000d0e:	4b1c      	ldr	r3, [pc, #112]	@ (10000d80 <_ZN6tflite7testing12_GLOBAL__N_18TestSVDFEiiiii21TfLiteFusedActivationPfPKfS5_S3_S5_S3_S3_S5_iS5_f.constprop.0+0x398>)
10000d10:	701a      	strb	r2, [r3, #0]
10000d12:	e78b      	b.n	10000c2c <_ZN6tflite7testing12_GLOBAL__N_18TestSVDFEiiiii21TfLiteFusedActivationPfPKfS5_S3_S5_S3_S3_S5_iS5_f.constprop.0+0x244>
10000d14:	22fd      	movs	r2, #253	@ 0xfd
10000d16:	4c1f      	ldr	r4, [pc, #124]	@ (10000d94 <_ZN6tflite7testing12_GLOBAL__N_18TestSVDFEiiiii21TfLiteFusedActivationPfPKfS5_S3_S5_S3_S3_S5_iS5_f.constprop.0+0x3ac>)
10000d18:	4d18      	ldr	r5, [pc, #96]	@ (10000d7c <_ZN6tflite7testing12_GLOBAL__N_18TestSVDFEiiiii21TfLiteFusedActivationPfPKfS5_S3_S5_S3_S3_S5_iS5_f.constprop.0+0x394>)
10000d1a:	2300      	movs	r3, #0
10000d1c:	9000      	str	r0, [sp, #0]
10000d1e:	0029      	movs	r1, r5
10000d20:	0020      	movs	r0, r4
10000d22:	0052      	lsls	r2, r2, #1
10000d24:	f008 fad8 	bl	100092d8 <_Z11MicroPrintfPKcz>
10000d28:	465b      	mov	r3, fp
10000d2a:	4c15      	ldr	r4, [pc, #84]	@ (10000d80 <_ZN6tflite7testing12_GLOBAL__N_18TestSVDFEiiiii21TfLiteFusedActivationPfPKfS5_S3_S5_S3_S3_S5_iS5_f.constprop.0+0x398>)
10000d2c:	a85c      	add	r0, sp, #368	@ 0x170
10000d2e:	7023      	strb	r3, [r4, #0]
10000d30:	f007 ff7a 	bl	10008c28 <_ZN6tflite5micro12KernelRunner29ValidateTempBufferDeallocatedEv>
10000d34:	2800      	cmp	r0, #0
10000d36:	d194      	bne.n	10000c62 <_ZN6tflite7testing12_GLOBAL__N_18TestSVDFEiiiii21TfLiteFusedActivationPfPKfS5_S3_S5_S3_S3_S5_iS5_f.constprop.0+0x27a>
10000d38:	22fc      	movs	r2, #252	@ 0xfc
10000d3a:	0029      	movs	r1, r5
10000d3c:	4814      	ldr	r0, [pc, #80]	@ (10000d90 <_ZN6tflite7testing12_GLOBAL__N_18TestSVDFEiiiii21TfLiteFusedActivationPfPKfS5_S3_S5_S3_S3_S5_iS5_f.constprop.0+0x3a8>)
10000d3e:	32ff      	adds	r2, #255	@ 0xff
10000d40:	f008 faca 	bl	100092d8 <_Z11MicroPrintfPKcz>
10000d44:	465b      	mov	r3, fp
10000d46:	7023      	strb	r3, [r4, #0]
10000d48:	e78b      	b.n	10000c62 <_ZN6tflite7testing12_GLOBAL__N_18TestSVDFEiiiii21TfLiteFusedActivationPfPKfS5_S3_S5_S3_S3_S5_iS5_f.constprop.0+0x27a>
10000d4a:	4a13      	ldr	r2, [pc, #76]	@ (10000d98 <_ZN6tflite7testing12_GLOBAL__N_18TestSVDFEiiiii21TfLiteFusedActivationPfPKfS5_S3_S5_S3_S3_S5_iS5_f.constprop.0+0x3b0>)
10000d4c:	490b      	ldr	r1, [pc, #44]	@ (10000d7c <_ZN6tflite7testing12_GLOBAL__N_18TestSVDFEiiiii21TfLiteFusedActivationPfPKfS5_S3_S5_S3_S3_S5_iS5_f.constprop.0+0x394>)
10000d4e:	4810      	ldr	r0, [pc, #64]	@ (10000d90 <_ZN6tflite7testing12_GLOBAL__N_18TestSVDFEiiiii21TfLiteFusedActivationPfPKfS5_S3_S5_S3_S3_S5_iS5_f.constprop.0+0x3a8>)
10000d50:	f008 fac2 	bl	100092d8 <_Z11MicroPrintfPKcz>
10000d54:	2201      	movs	r2, #1
10000d56:	4b0a      	ldr	r3, [pc, #40]	@ (10000d80 <_ZN6tflite7testing12_GLOBAL__N_18TestSVDFEiiiii21TfLiteFusedActivationPfPKfS5_S3_S5_S3_S3_S5_iS5_f.constprop.0+0x398>)
10000d58:	701a      	strb	r2, [r3, #0]
10000d5a:	e782      	b.n	10000c62 <_ZN6tflite7testing12_GLOBAL__N_18TestSVDFEiiiii21TfLiteFusedActivationPfPKfS5_S3_S5_S3_S3_S5_iS5_f.constprop.0+0x27a>
10000d5c:	fffffd7c 	.word	0xfffffd7c
10000d60:	100126cc 	.word	0x100126cc
10000d64:	10011ecc 	.word	0x10011ecc
10000d68:	10011dcc 	.word	0x10011dcc
10000d6c:	10013d0c 	.word	0x10013d0c
10000d70:	100136cc 	.word	0x100136cc
10000d74:	10010418 	.word	0x10010418
10000d78:	0000020a 	.word	0x0000020a
10000d7c:	10010330 	.word	0x10010330
10000d80:	200051dd 	.word	0x200051dd
10000d84:	100103cc 	.word	0x100103cc
10000d88:	3727c5ac 	.word	0x3727c5ac
10000d8c:	00000211 	.word	0x00000211
10000d90:	10010448 	.word	0x10010448
10000d94:	1001038c 	.word	0x1001038c
10000d98:	00000217 	.word	0x00000217

10000d9c <_ZN6tflite7testing25CreateQuantizedBiasTensorIlEE12TfLiteTensorPKfPT_P14TfLiteIntArrayffb>:
10000d9c:	b5f0      	push	{r4, r5, r6, r7, lr}
10000d9e:	4657      	mov	r7, sl
10000da0:	464e      	mov	r6, r9
10000da2:	46de      	mov	lr, fp
10000da4:	4645      	mov	r5, r8
10000da6:	b5e0      	push	{r5, r6, r7, lr}
10000da8:	b083      	sub	sp, #12
10000daa:	469a      	mov	sl, r3
10000dac:	ab0e      	add	r3, sp, #56	@ 0x38
10000dae:	781b      	ldrb	r3, [r3, #0]
10000db0:	0005      	movs	r5, r0
10000db2:	000f      	movs	r7, r1
10000db4:	980c      	ldr	r0, [sp, #48]	@ 0x30
10000db6:	990d      	ldr	r1, [sp, #52]	@ 0x34
10000db8:	0016      	movs	r6, r2
10000dba:	9301      	str	r3, [sp, #4]
10000dbc:	f004 fa4f 	bl	1000525e <__wrap___aeabi_fmul>
10000dc0:	4681      	mov	r9, r0
10000dc2:	4650      	mov	r0, sl
10000dc4:	f008 fa9a 	bl	100092fc <_ZN6tflite12ElementCountERK14TfLiteIntArray>
10000dc8:	2800      	cmp	r0, #0
10000dca:	dd16      	ble.n	10000dfa <_ZN6tflite7testing25CreateQuantizedBiasTensorIlEE12TfLiteTensorPKfPT_P14TfLiteIntArrayffb+0x5e>
10000dcc:	0083      	lsls	r3, r0, #2
10000dce:	4698      	mov	r8, r3
10000dd0:	2380      	movs	r3, #128	@ 0x80
10000dd2:	061b      	lsls	r3, r3, #24
10000dd4:	2400      	movs	r4, #0
10000dd6:	469b      	mov	fp, r3
10000dd8:	4649      	mov	r1, r9
10000dda:	5938      	ldr	r0, [r7, r4]
10000ddc:	f004 fa2b 	bl	10005236 <__wrap___aeabi_fdiv>
10000de0:	f004 faa6 	bl	10005330 <__wrap___aeabi_f2d>
10000de4:	f003 ff00 	bl	10004be8 <__wrap_round>
10000de8:	f003 fe80 	bl	10004aec <__wrap___aeabi_d2lz>
10000dec:	2900      	cmp	r1, #0
10000dee:	dd23      	ble.n	10000e38 <_ZN6tflite7testing25CreateQuantizedBiasTensorIlEE12TfLiteTensorPKfPT_P14TfLiteIntArrayffb+0x9c>
10000df0:	4818      	ldr	r0, [pc, #96]	@ (10000e54 <_ZN6tflite7testing25CreateQuantizedBiasTensorIlEE12TfLiteTensorPKfPT_P14TfLiteIntArrayffb+0xb8>)
10000df2:	5130      	str	r0, [r6, r4]
10000df4:	3404      	adds	r4, #4
10000df6:	4544      	cmp	r4, r8
10000df8:	d1ee      	bne.n	10000dd8 <_ZN6tflite7testing25CreateQuantizedBiasTensorIlEE12TfLiteTensorPKfPT_P14TfLiteIntArrayffb+0x3c>
10000dfa:	4653      	mov	r3, sl
10000dfc:	616b      	str	r3, [r5, #20]
10000dfe:	2300      	movs	r3, #0
10000e00:	60eb      	str	r3, [r5, #12]
10000e02:	606b      	str	r3, [r5, #4]
10000e04:	9b01      	ldr	r3, [sp, #4]
10000e06:	4650      	mov	r0, sl
10000e08:	77ab      	strb	r3, [r5, #30]
10000e0a:	2302      	movs	r3, #2
10000e0c:	612e      	str	r6, [r5, #16]
10000e0e:	83ab      	strh	r3, [r5, #28]
10000e10:	f008 fa74 	bl	100092fc <_ZN6tflite12ElementCountERK14TfLiteIntArray>
10000e14:	0004      	movs	r4, r0
10000e16:	2002      	movs	r0, #2
10000e18:	f007 f986 	bl	10008128 <_ZN6tflite17TfLiteTypeGetSizeE10TfLiteType>
10000e1c:	464b      	mov	r3, r9
10000e1e:	4360      	muls	r0, r4
10000e20:	60ab      	str	r3, [r5, #8]
10000e22:	61a8      	str	r0, [r5, #24]
10000e24:	2301      	movs	r3, #1
10000e26:	0028      	movs	r0, r5
10000e28:	602b      	str	r3, [r5, #0]
10000e2a:	b003      	add	sp, #12
10000e2c:	bcf0      	pop	{r4, r5, r6, r7}
10000e2e:	46bb      	mov	fp, r7
10000e30:	46b2      	mov	sl, r6
10000e32:	46a9      	mov	r9, r5
10000e34:	46a0      	mov	r8, r4
10000e36:	bdf0      	pop	{r4, r5, r6, r7, pc}
10000e38:	2900      	cmp	r1, #0
10000e3a:	d102      	bne.n	10000e42 <_ZN6tflite7testing25CreateQuantizedBiasTensorIlEE12TfLiteTensorPKfPT_P14TfLiteIntArrayffb+0xa6>
10000e3c:	4558      	cmp	r0, fp
10000e3e:	d3d8      	bcc.n	10000df2 <_ZN6tflite7testing25CreateQuantizedBiasTensorIlEE12TfLiteTensorPKfPT_P14TfLiteIntArrayffb+0x56>
10000e40:	e7d6      	b.n	10000df0 <_ZN6tflite7testing25CreateQuantizedBiasTensorIlEE12TfLiteTensorPKfPT_P14TfLiteIntArrayffb+0x54>
10000e42:	1c4b      	adds	r3, r1, #1
10000e44:	db03      	blt.n	10000e4e <_ZN6tflite7testing25CreateQuantizedBiasTensorIlEE12TfLiteTensorPKfPT_P14TfLiteIntArrayffb+0xb2>
10000e46:	3101      	adds	r1, #1
10000e48:	d1d3      	bne.n	10000df2 <_ZN6tflite7testing25CreateQuantizedBiasTensorIlEE12TfLiteTensorPKfPT_P14TfLiteIntArrayffb+0x56>
10000e4a:	4558      	cmp	r0, fp
10000e4c:	d8d1      	bhi.n	10000df2 <_ZN6tflite7testing25CreateQuantizedBiasTensorIlEE12TfLiteTensorPKfPT_P14TfLiteIntArrayffb+0x56>
10000e4e:	4802      	ldr	r0, [pc, #8]	@ (10000e58 <_ZN6tflite7testing25CreateQuantizedBiasTensorIlEE12TfLiteTensorPKfPT_P14TfLiteIntArrayffb+0xbc>)
10000e50:	e7cf      	b.n	10000df2 <_ZN6tflite7testing25CreateQuantizedBiasTensorIlEE12TfLiteTensorPKfPT_P14TfLiteIntArrayffb+0x56>
10000e52:	46c0      	nop			@ (mov r8, r8)
10000e54:	7fffffff 	.word	0x7fffffff
10000e58:	80000001 	.word	0x80000001

10000e5c <main>:
10000e5c:	b5f0      	push	{r4, r5, r6, r7, lr}
10000e5e:	46de      	mov	lr, fp
10000e60:	4657      	mov	r7, sl
10000e62:	464e      	mov	r6, r9
10000e64:	4645      	mov	r5, r8
10000e66:	b5e0      	push	{r5, r6, r7, lr}
10000e68:	4cf5      	ldr	r4, [pc, #980]	@ (10001240 <main+0x3e4>)
10000e6a:	44a5      	add	sp, r4
10000e6c:	f008 faac 	bl	100093c8 <_ZN6tflite16InitializeTargetEv>
10000e70:	4bf4      	ldr	r3, [pc, #976]	@ (10001244 <main+0x3e8>)
10000e72:	af66      	add	r7, sp, #408	@ 0x198
10000e74:	9305      	str	r3, [sp, #20]
10000e76:	4bf4      	ldr	r3, [pc, #976]	@ (10001248 <main+0x3ec>)
10000e78:	4699      	mov	r9, r3
10000e7a:	4bf4      	ldr	r3, [pc, #976]	@ (1000124c <main+0x3f0>)
10000e7c:	9327      	str	r3, [sp, #156]	@ 0x9c
10000e7e:	4bf4      	ldr	r3, [pc, #976]	@ (10001250 <main+0x3f4>)
10000e80:	9306      	str	r3, [sp, #24]
10000e82:	4bf4      	ldr	r3, [pc, #976]	@ (10001254 <main+0x3f8>)
10000e84:	9304      	str	r3, [sp, #16]
10000e86:	4bf4      	ldr	r3, [pc, #976]	@ (10001258 <main+0x3fc>)
10000e88:	9316      	str	r3, [sp, #88]	@ 0x58
10000e8a:	4bf4      	ldr	r3, [pc, #976]	@ (1000125c <main+0x400>)
10000e8c:	9328      	str	r3, [sp, #160]	@ 0xa0
10000e8e:	4bf4      	ldr	r3, [pc, #976]	@ (10001260 <main+0x404>)
10000e90:	9317      	str	r3, [sp, #92]	@ 0x5c
10000e92:	4bf4      	ldr	r3, [pc, #976]	@ (10001264 <main+0x408>)
10000e94:	9311      	str	r3, [sp, #68]	@ 0x44
10000e96:	4bf4      	ldr	r3, [pc, #976]	@ (10001268 <main+0x40c>)
10000e98:	9329      	str	r3, [sp, #164]	@ 0xa4
10000e9a:	4bf4      	ldr	r3, [pc, #976]	@ (1000126c <main+0x410>)
10000e9c:	9307      	str	r3, [sp, #28]
10000e9e:	4bf4      	ldr	r3, [pc, #976]	@ (10001270 <main+0x414>)
10000ea0:	9326      	str	r3, [sp, #152]	@ 0x98
10000ea2:	4bf4      	ldr	r3, [pc, #976]	@ (10001274 <main+0x418>)
10000ea4:	9323      	str	r3, [sp, #140]	@ 0x8c
10000ea6:	4bf4      	ldr	r3, [pc, #976]	@ (10001278 <main+0x41c>)
10000ea8:	9324      	str	r3, [sp, #144]	@ 0x90
10000eaa:	4bf4      	ldr	r3, [pc, #976]	@ (1000127c <main+0x420>)
10000eac:	930e      	str	r3, [sp, #56]	@ 0x38
10000eae:	4bf4      	ldr	r3, [pc, #976]	@ (10001280 <main+0x424>)
10000eb0:	930d      	str	r3, [sp, #52]	@ 0x34
10000eb2:	4bf4      	ldr	r3, [pc, #976]	@ (10001284 <main+0x428>)
10000eb4:	9325      	str	r3, [sp, #148]	@ 0x94
10000eb6:	4bf4      	ldr	r3, [pc, #976]	@ (10001288 <main+0x42c>)
10000eb8:	9318      	str	r3, [sp, #96]	@ 0x60
10000eba:	4bf4      	ldr	r3, [pc, #976]	@ (1000128c <main+0x430>)
10000ebc:	9319      	str	r3, [sp, #100]	@ 0x64
10000ebe:	4bf4      	ldr	r3, [pc, #976]	@ (10001290 <main+0x434>)
10000ec0:	931a      	str	r3, [sp, #104]	@ 0x68
10000ec2:	4bf4      	ldr	r3, [pc, #976]	@ (10001294 <main+0x438>)
10000ec4:	9308      	str	r3, [sp, #32]
10000ec6:	4bf4      	ldr	r3, [pc, #976]	@ (10001298 <main+0x43c>)
10000ec8:	931b      	str	r3, [sp, #108]	@ 0x6c
10000eca:	4bf4      	ldr	r3, [pc, #976]	@ (1000129c <main+0x440>)
10000ecc:	931c      	str	r3, [sp, #112]	@ 0x70
10000ece:	4bf4      	ldr	r3, [pc, #976]	@ (100012a0 <main+0x444>)
10000ed0:	931d      	str	r3, [sp, #116]	@ 0x74
10000ed2:	4bf4      	ldr	r3, [pc, #976]	@ (100012a4 <main+0x448>)
10000ed4:	931e      	str	r3, [sp, #120]	@ 0x78
10000ed6:	4bf4      	ldr	r3, [pc, #976]	@ (100012a8 <main+0x44c>)
10000ed8:	930c      	str	r3, [sp, #48]	@ 0x30
10000eda:	4bf4      	ldr	r3, [pc, #976]	@ (100012ac <main+0x450>)
10000edc:	9315      	str	r3, [sp, #84]	@ 0x54
10000ede:	4bf4      	ldr	r3, [pc, #976]	@ (100012b0 <main+0x454>)
10000ee0:	9309      	str	r3, [sp, #36]	@ 0x24
10000ee2:	4bf4      	ldr	r3, [pc, #976]	@ (100012b4 <main+0x458>)
10000ee4:	931f      	str	r3, [sp, #124]	@ 0x7c
10000ee6:	4bf4      	ldr	r3, [pc, #976]	@ (100012b8 <main+0x45c>)
10000ee8:	9320      	str	r3, [sp, #128]	@ 0x80
10000eea:	4bf4      	ldr	r3, [pc, #976]	@ (100012bc <main+0x460>)
10000eec:	9321      	str	r3, [sp, #132]	@ 0x84
10000eee:	4bf4      	ldr	r3, [pc, #976]	@ (100012c0 <main+0x464>)
10000ef0:	9322      	str	r3, [sp, #136]	@ 0x88
10000ef2:	4bf4      	ldr	r3, [pc, #976]	@ (100012c4 <main+0x468>)
10000ef4:	932a      	str	r3, [sp, #168]	@ 0xa8
10000ef6:	4bf4      	ldr	r3, [pc, #976]	@ (100012c8 <main+0x46c>)
10000ef8:	932b      	str	r3, [sp, #172]	@ 0xac
10000efa:	2300      	movs	r3, #0
10000efc:	469a      	mov	sl, r3
10000efe:	3301      	adds	r3, #1
10000f00:	469b      	mov	fp, r3
10000f02:	4652      	mov	r2, sl
10000f04:	9b05      	ldr	r3, [sp, #20]
10000f06:	9827      	ldr	r0, [sp, #156]	@ 0x9c
10000f08:	601a      	str	r2, [r3, #0]
10000f0a:	464b      	mov	r3, r9
10000f0c:	601a      	str	r2, [r3, #0]
10000f0e:	f008 f9e3 	bl	100092d8 <_Z11MicroPrintfPKcz>
10000f12:	4652      	mov	r2, sl
10000f14:	9b06      	ldr	r3, [sp, #24]
10000f16:	a828      	add	r0, sp, #160	@ 0xa0
10000f18:	701a      	strb	r2, [r3, #0]
10000f1a:	9b04      	ldr	r3, [sp, #16]
10000f1c:	4684      	mov	ip, r0
10000f1e:	701a      	strb	r2, [r3, #0]
10000f20:	22a0      	movs	r2, #160	@ 0xa0
10000f22:	2602      	movs	r6, #2
10000f24:	4be9      	ldr	r3, [pc, #932]	@ (100012cc <main+0x470>)
10000f26:	9916      	ldr	r1, [sp, #88]	@ 0x58
10000f28:	4463      	add	r3, ip
10000f2a:	0092      	lsls	r2, r2, #2
10000f2c:	0018      	movs	r0, r3
10000f2e:	f004 fac1 	bl	100054b4 <__wrap___aeabi_memcpy>
10000f32:	a835      	add	r0, sp, #212	@ 0xd4
10000f34:	9635      	str	r6, [sp, #212]	@ 0xd4
10000f36:	9636      	str	r6, [sp, #216]	@ 0xd8
10000f38:	9637      	str	r6, [sp, #220]	@ 0xdc
10000f3a:	f008 fa55 	bl	100093e8 <_ZN6tflite7testing16IntArrayFromIntsEPKi>
10000f3e:	2408      	movs	r4, #8
10000f40:	0005      	movs	r5, r0
10000f42:	a838      	add	r0, sp, #224	@ 0xe0
10000f44:	9439      	str	r4, [sp, #228]	@ 0xe4
10000f46:	9638      	str	r6, [sp, #224]	@ 0xe0
10000f48:	963a      	str	r6, [sp, #232]	@ 0xe8
10000f4a:	f008 fa4d 	bl	100093e8 <_ZN6tflite7testing16IntArrayFromIntsEPKi>
10000f4e:	230a      	movs	r3, #10
10000f50:	933d      	str	r3, [sp, #244]	@ 0xf4
10000f52:	ab3b      	add	r3, sp, #236	@ 0xec
10000f54:	9013      	str	r0, [sp, #76]	@ 0x4c
10000f56:	0018      	movs	r0, r3
10000f58:	943c      	str	r4, [sp, #240]	@ 0xf0
10000f5a:	963b      	str	r6, [sp, #236]	@ 0xec
10000f5c:	f008 fa44 	bl	100093e8 <_ZN6tflite7testing16IntArrayFromIntsEPKi>
10000f60:	2350      	movs	r3, #80	@ 0x50
10000f62:	aa3e      	add	r2, sp, #248	@ 0xf8
10000f64:	900a      	str	r0, [sp, #40]	@ 0x28
10000f66:	0010      	movs	r0, r2
10000f68:	9340      	str	r3, [sp, #256]	@ 0x100
10000f6a:	963e      	str	r6, [sp, #248]	@ 0xf8
10000f6c:	963f      	str	r6, [sp, #252]	@ 0xfc
10000f6e:	f008 fa3b 	bl	100093e8 <_ZN6tflite7testing16IntArrayFromIntsEPKi>
10000f72:	4659      	mov	r1, fp
10000f74:	912d      	str	r1, [sp, #180]	@ 0xb4
10000f76:	a92d      	add	r1, sp, #180	@ 0xb4
10000f78:	3c04      	subs	r4, #4
10000f7a:	900f      	str	r0, [sp, #60]	@ 0x3c
10000f7c:	0008      	movs	r0, r1
10000f7e:	942e      	str	r4, [sp, #184]	@ 0xb8
10000f80:	f008 fa32 	bl	100093e8 <_ZN6tflite7testing16IntArrayFromIntsEPKi>
10000f84:	a942      	add	r1, sp, #264	@ 0x108
10000f86:	9010      	str	r0, [sp, #64]	@ 0x40
10000f88:	0008      	movs	r0, r1
10000f8a:	9444      	str	r4, [sp, #272]	@ 0x110
10000f8c:	9642      	str	r6, [sp, #264]	@ 0x108
10000f8e:	9643      	str	r6, [sp, #268]	@ 0x10c
10000f90:	f008 fa2a 	bl	100093e8 <_ZN6tflite7testing16IntArrayFromIntsEPKi>
10000f94:	abd8      	add	r3, sp, #864	@ 0x360
10000f96:	2208      	movs	r2, #8
10000f98:	2100      	movs	r1, #0
10000f9a:	9012      	str	r0, [sp, #72]	@ 0x48
10000f9c:	0018      	movs	r0, r3
10000f9e:	95db      	str	r5, [sp, #876]	@ 0x36c
10000fa0:	f004 fa82 	bl	100054a8 <__wrap_memset>
10000fa4:	4651      	mov	r1, sl
10000fa6:	4bca      	ldr	r3, [pc, #808]	@ (100012d0 <main+0x474>)
10000fa8:	91d6      	str	r1, [sp, #856]	@ 0x358
10000faa:	91d7      	str	r1, [sp, #860]	@ 0x35c
10000fac:	a928      	add	r1, sp, #160	@ 0xa0
10000fae:	18c9      	adds	r1, r1, r3
10000fb0:	4653      	mov	r3, sl
10000fb2:	700b      	strb	r3, [r1, #0]
10000fb4:	a946      	add	r1, sp, #280	@ 0x118
10000fb6:	91da      	str	r1, [sp, #872]	@ 0x368
10000fb8:	23b5      	movs	r3, #181	@ 0xb5
10000fba:	2101      	movs	r1, #1
10000fbc:	465c      	mov	r4, fp
10000fbe:	009b      	lsls	r3, r3, #2
10000fc0:	4688      	mov	r8, r1
10000fc2:	a928      	add	r1, sp, #160	@ 0xa0
10000fc4:	18c9      	adds	r1, r1, r3
10000fc6:	800c      	strh	r4, [r1, #0]
10000fc8:	0028      	movs	r0, r5
10000fca:	f008 f997 	bl	100092fc <_ZN6tflite12ElementCountERK14TfLiteIntArray>
10000fce:	23b5      	movs	r3, #181	@ 0xb5
10000fd0:	a928      	add	r1, sp, #160	@ 0xa0
10000fd2:	009b      	lsls	r3, r3, #2
10000fd4:	18c9      	adds	r1, r1, r3
10000fd6:	0004      	movs	r4, r0
10000fd8:	7808      	ldrb	r0, [r1, #0]
10000fda:	f007 f8a5 	bl	10008128 <_ZN6tflite17TfLiteTypeGetSizeE10TfLiteType>
10000fde:	4360      	muls	r0, r4
10000fe0:	ade0      	add	r5, sp, #896	@ 0x380
10000fe2:	9c13      	ldr	r4, [sp, #76]	@ 0x4c
10000fe4:	2208      	movs	r2, #8
10000fe6:	2100      	movs	r1, #0
10000fe8:	90dc      	str	r0, [sp, #880]	@ 0x370
10000fea:	0028      	movs	r0, r5
10000fec:	94e3      	str	r4, [sp, #908]	@ 0x38c
10000fee:	25ae      	movs	r5, #174	@ 0xae
10000ff0:	f004 fa5a 	bl	100054a8 <__wrap_memset>
10000ff4:	4651      	mov	r1, sl
10000ff6:	4652      	mov	r2, sl
10000ff8:	233e      	movs	r3, #62	@ 0x3e
10000ffa:	00ad      	lsls	r5, r5, #2
10000ffc:	91de      	str	r1, [sp, #888]	@ 0x378
10000ffe:	91df      	str	r1, [sp, #892]	@ 0x37c
10001000:	a928      	add	r1, sp, #160	@ 0xa0
10001002:	1949      	adds	r1, r1, r5
10001004:	54ca      	strb	r2, [r1, r3]
10001006:	23bd      	movs	r3, #189	@ 0xbd
10001008:	9928      	ldr	r1, [sp, #160]	@ 0xa0
1000100a:	009b      	lsls	r3, r3, #2
1000100c:	91e2      	str	r1, [sp, #904]	@ 0x388
1000100e:	a928      	add	r1, sp, #160	@ 0xa0
10001010:	18c9      	adds	r1, r1, r3
10001012:	465b      	mov	r3, fp
10001014:	0020      	movs	r0, r4
10001016:	800b      	strh	r3, [r1, #0]
10001018:	f008 f970 	bl	100092fc <_ZN6tflite12ElementCountERK14TfLiteIntArray>
1000101c:	233c      	movs	r3, #60	@ 0x3c
1000101e:	a928      	add	r1, sp, #160	@ 0xa0
10001020:	1949      	adds	r1, r1, r5
10001022:	0004      	movs	r4, r0
10001024:	5cc8      	ldrb	r0, [r1, r3]
10001026:	f007 f87f 	bl	10008128 <_ZN6tflite17TfLiteTypeGetSizeE10TfLiteType>
1000102a:	4360      	muls	r0, r4
1000102c:	9b0a      	ldr	r3, [sp, #40]	@ 0x28
1000102e:	ace8      	add	r4, sp, #928	@ 0x3a0
10001030:	2208      	movs	r2, #8
10001032:	2100      	movs	r1, #0
10001034:	90e4      	str	r0, [sp, #912]	@ 0x390
10001036:	0020      	movs	r0, r4
10001038:	93eb      	str	r3, [sp, #940]	@ 0x3ac
1000103a:	f004 fa35 	bl	100054a8 <__wrap_memset>
1000103e:	4651      	mov	r1, sl
10001040:	91e6      	str	r1, [sp, #920]	@ 0x398
10001042:	91e7      	str	r1, [sp, #924]	@ 0x39c
10001044:	a928      	add	r1, sp, #160	@ 0xa0
10001046:	235e      	movs	r3, #94	@ 0x5e
10001048:	002c      	movs	r4, r5
1000104a:	1949      	adds	r1, r1, r5
1000104c:	4655      	mov	r5, sl
1000104e:	465a      	mov	r2, fp
10001050:	54cd      	strb	r5, [r1, r3]
10001052:	255c      	movs	r5, #92	@ 0x5c
10001054:	9917      	ldr	r1, [sp, #92]	@ 0x5c
10001056:	980a      	ldr	r0, [sp, #40]	@ 0x28
10001058:	91ea      	str	r1, [sp, #936]	@ 0x3a8
1000105a:	a928      	add	r1, sp, #160	@ 0xa0
1000105c:	1909      	adds	r1, r1, r4
1000105e:	534a      	strh	r2, [r1, r5]
10001060:	f008 f94c 	bl	100092fc <_ZN6tflite12ElementCountERK14TfLiteIntArray>
10001064:	23ae      	movs	r3, #174	@ 0xae
10001066:	a928      	add	r1, sp, #160	@ 0xa0
10001068:	009b      	lsls	r3, r3, #2
1000106a:	18c9      	adds	r1, r1, r3
1000106c:	0004      	movs	r4, r0
1000106e:	5d48      	ldrb	r0, [r1, r5]
10001070:	f007 f85a 	bl	10008128 <_ZN6tflite17TfLiteTypeGetSizeE10TfLiteType>
10001074:	4360      	muls	r0, r4
10001076:	9a10      	ldr	r2, [sp, #64]	@ 0x40
10001078:	adf0      	add	r5, sp, #960	@ 0x3c0
1000107a:	2100      	movs	r1, #0
1000107c:	90ec      	str	r0, [sp, #944]	@ 0x3b0
1000107e:	92f3      	str	r2, [sp, #972]	@ 0x3cc
10001080:	0028      	movs	r0, r5
10001082:	2208      	movs	r2, #8
10001084:	f004 fa10 	bl	100054a8 <__wrap_memset>
10001088:	24ae      	movs	r4, #174	@ 0xae
1000108a:	4651      	mov	r1, sl
1000108c:	237e      	movs	r3, #126	@ 0x7e
1000108e:	4655      	mov	r5, sl
10001090:	91ee      	str	r1, [sp, #952]	@ 0x3b8
10001092:	91ef      	str	r1, [sp, #956]	@ 0x3bc
10001094:	00a4      	lsls	r4, r4, #2
10001096:	a928      	add	r1, sp, #160	@ 0xa0
10001098:	1909      	adds	r1, r1, r4
1000109a:	54cd      	strb	r5, [r1, r3]
1000109c:	9b11      	ldr	r3, [sp, #68]	@ 0x44
1000109e:	257c      	movs	r5, #124	@ 0x7c
100010a0:	93f2      	str	r3, [sp, #968]	@ 0x3c8
100010a2:	465b      	mov	r3, fp
100010a4:	a928      	add	r1, sp, #160	@ 0xa0
100010a6:	1909      	adds	r1, r1, r4
100010a8:	534b      	strh	r3, [r1, r5]
100010aa:	9810      	ldr	r0, [sp, #64]	@ 0x40
100010ac:	f008 f926 	bl	100092fc <_ZN6tflite12ElementCountERK14TfLiteIntArray>
100010b0:	23ae      	movs	r3, #174	@ 0xae
100010b2:	a928      	add	r1, sp, #160	@ 0xa0
100010b4:	009b      	lsls	r3, r3, #2
100010b6:	18c9      	adds	r1, r1, r3
100010b8:	0004      	movs	r4, r0
100010ba:	5d48      	ldrb	r0, [r1, r5]
100010bc:	f007 f834 	bl	10008128 <_ZN6tflite17TfLiteTypeGetSizeE10TfLiteType>
100010c0:	4360      	muls	r0, r4
100010c2:	24ae      	movs	r4, #174	@ 0xae
100010c4:	2394      	movs	r3, #148	@ 0x94
100010c6:	00a4      	lsls	r4, r4, #2
100010c8:	9a0f      	ldr	r2, [sp, #60]	@ 0x3c
100010ca:	a928      	add	r1, sp, #160	@ 0xa0
100010cc:	1909      	adds	r1, r1, r4
100010ce:	90f4      	str	r0, [sp, #976]	@ 0x3d0
100010d0:	50ca      	str	r2, [r1, r3]
100010d2:	abf8      	add	r3, sp, #992	@ 0x3e0
100010d4:	2208      	movs	r2, #8
100010d6:	2100      	movs	r1, #0
100010d8:	0018      	movs	r0, r3
100010da:	f004 f9e5 	bl	100054a8 <__wrap_memset>
100010de:	a928      	add	r1, sp, #160	@ 0xa0
100010e0:	0022      	movs	r2, r4
100010e2:	1909      	adds	r1, r1, r4
100010e4:	2380      	movs	r3, #128	@ 0x80
100010e6:	4654      	mov	r4, sl
100010e8:	50cc      	str	r4, [r1, r3]
100010ea:	a928      	add	r1, sp, #160	@ 0xa0
100010ec:	1889      	adds	r1, r1, r2
100010ee:	3304      	adds	r3, #4
100010f0:	50cc      	str	r4, [r1, r3]
100010f2:	4644      	mov	r4, r8
100010f4:	a828      	add	r0, sp, #160	@ 0xa0
100010f6:	4684      	mov	ip, r0
100010f8:	a928      	add	r1, sp, #160	@ 0xa0
100010fa:	1889      	adds	r1, r1, r2
100010fc:	331a      	adds	r3, #26
100010fe:	54cc      	strb	r4, [r1, r3]
10001100:	a928      	add	r1, sp, #160	@ 0xa0
10001102:	188c      	adds	r4, r1, r2
10001104:	4971      	ldr	r1, [pc, #452]	@ (100012cc <main+0x470>)
10001106:	3b0e      	subs	r3, #14
10001108:	4461      	add	r1, ip
1000110a:	50e1      	str	r1, [r4, r3]
1000110c:	4659      	mov	r1, fp
1000110e:	3520      	adds	r5, #32
10001110:	5361      	strh	r1, [r4, r5]
10001112:	980f      	ldr	r0, [sp, #60]	@ 0x3c
10001114:	f008 f8f2 	bl	100092fc <_ZN6tflite12ElementCountERK14TfLiteIntArray>
10001118:	22ae      	movs	r2, #174	@ 0xae
1000111a:	ab28      	add	r3, sp, #160	@ 0xa0
1000111c:	0092      	lsls	r2, r2, #2
1000111e:	189b      	adds	r3, r3, r2
10001120:	0004      	movs	r4, r0
10001122:	5d58      	ldrb	r0, [r3, r5]
10001124:	f007 f800 	bl	10008128 <_ZN6tflite17TfLiteTypeGetSizeE10TfLiteType>
10001128:	4360      	muls	r0, r4
1000112a:	24ae      	movs	r4, #174	@ 0xae
1000112c:	2398      	movs	r3, #152	@ 0x98
1000112e:	00a4      	lsls	r4, r4, #2
10001130:	a928      	add	r1, sp, #160	@ 0xa0
10001132:	1909      	adds	r1, r1, r4
10001134:	50c8      	str	r0, [r1, r3]
10001136:	9a12      	ldr	r2, [sp, #72]	@ 0x48
10001138:	a928      	add	r1, sp, #160	@ 0xa0
1000113a:	1909      	adds	r1, r1, r4
1000113c:	331c      	adds	r3, #28
1000113e:	50ca      	str	r2, [r1, r3]
10001140:	abff      	add	r3, sp, #1020	@ 0x3fc
10001142:	3304      	adds	r3, #4
10001144:	2208      	movs	r2, #8
10001146:	2100      	movs	r1, #0
10001148:	0018      	movs	r0, r3
1000114a:	f004 f9ad 	bl	100054a8 <__wrap_memset>
1000114e:	a928      	add	r1, sp, #160	@ 0xa0
10001150:	0022      	movs	r2, r4
10001152:	1909      	adds	r1, r1, r4
10001154:	23a0      	movs	r3, #160	@ 0xa0
10001156:	4654      	mov	r4, sl
10001158:	50cc      	str	r4, [r1, r3]
1000115a:	a928      	add	r1, sp, #160	@ 0xa0
1000115c:	1889      	adds	r1, r1, r2
1000115e:	3304      	adds	r3, #4
10001160:	50cc      	str	r4, [r1, r3]
10001162:	a928      	add	r1, sp, #160	@ 0xa0
10001164:	1889      	adds	r1, r1, r2
10001166:	331a      	adds	r3, #26
10001168:	54cc      	strb	r4, [r1, r3]
1000116a:	a928      	add	r1, sp, #160	@ 0xa0
1000116c:	1889      	adds	r1, r1, r2
1000116e:	3b0e      	subs	r3, #14
10001170:	ac96      	add	r4, sp, #600	@ 0x258
10001172:	50cc      	str	r4, [r1, r3]
10001174:	000b      	movs	r3, r1
10001176:	4659      	mov	r1, fp
10001178:	3520      	adds	r5, #32
1000117a:	5359      	strh	r1, [r3, r5]
1000117c:	9812      	ldr	r0, [sp, #72]	@ 0x48
1000117e:	f008 f8bd 	bl	100092fc <_ZN6tflite12ElementCountERK14TfLiteIntArray>
10001182:	22ae      	movs	r2, #174	@ 0xae
10001184:	ab28      	add	r3, sp, #160	@ 0xa0
10001186:	0092      	lsls	r2, r2, #2
10001188:	189b      	adds	r3, r3, r2
1000118a:	0004      	movs	r4, r0
1000118c:	5d58      	ldrb	r0, [r3, r5]
1000118e:	f006 ffcb 	bl	10008128 <_ZN6tflite17TfLiteTypeGetSizeE10TfLiteType>
10001192:	22ae      	movs	r2, #174	@ 0xae
10001194:	23b8      	movs	r3, #184	@ 0xb8
10001196:	4360      	muls	r0, r4
10001198:	a928      	add	r1, sp, #160	@ 0xa0
1000119a:	0092      	lsls	r2, r2, #2
1000119c:	188a      	adds	r2, r1, r2
1000119e:	50d0      	str	r0, [r2, r3]
100011a0:	2220      	movs	r2, #32
100011a2:	188b      	adds	r3, r1, r2
100011a4:	4652      	mov	r2, sl
100011a6:	9d29      	ldr	r5, [sp, #164]	@ 0xa4
100011a8:	962f      	str	r6, [sp, #188]	@ 0xbc
100011aa:	701a      	strb	r2, [r3, #0]
100011ac:	002a      	movs	r2, r5
100011ae:	ab56      	add	r3, sp, #344	@ 0x158
100011b0:	ca13      	ldmia	r2!, {r0, r1, r4}
100011b2:	c313      	stmia	r3!, {r0, r1, r4}
100011b4:	ca13      	ldmia	r2!, {r0, r1, r4}
100011b6:	c313      	stmia	r3!, {r0, r1, r4}
100011b8:	a856      	add	r0, sp, #344	@ 0x158
100011ba:	f008 f915 	bl	100093e8 <_ZN6tflite7testing16IntArrayFromIntsEPKi>
100011be:	002b      	movs	r3, r5
100011c0:	aa32      	add	r2, sp, #200	@ 0xc8
100011c2:	3318      	adds	r3, #24
100011c4:	0004      	movs	r4, r0
100011c6:	cb03      	ldmia	r3!, {r0, r1}
100011c8:	c203      	stmia	r2!, {r0, r1}
100011ca:	a832      	add	r0, sp, #200	@ 0xc8
100011cc:	f008 f90c 	bl	100093e8 <_ZN6tflite7testing16IntArrayFromIntsEPKi>
100011d0:	0005      	movs	r5, r0
100011d2:	0038      	movs	r0, r7
100011d4:	f007 fca0 	bl	10008b18 <_ZN6tflite13Register_SVDFEv>
100011d8:	4653      	mov	r3, sl
100011da:	9400      	str	r4, [sp, #0]
100011dc:	20d7      	movs	r0, #215	@ 0xd7
100011de:	ac28      	add	r4, sp, #160	@ 0xa0
100011e0:	46a4      	mov	ip, r4
100011e2:	9303      	str	r3, [sp, #12]
100011e4:	00c0      	lsls	r0, r0, #3
100011e6:	ab2f      	add	r3, sp, #188	@ 0xbc
100011e8:	0039      	movs	r1, r7
100011ea:	9302      	str	r3, [sp, #8]
100011ec:	aad6      	add	r2, sp, #856	@ 0x358
100011ee:	2306      	movs	r3, #6
100011f0:	4460      	add	r0, ip
100011f2:	9501      	str	r5, [sp, #4]
100011f4:	f007 fcca 	bl	10008b8c <_ZN6tflite5micro12KernelRunnerC1ERK16TFLMRegistrationP12TfLiteTensoriP14TfLiteIntArrayS8_PKvS8_>
100011f8:	23d7      	movs	r3, #215	@ 0xd7
100011fa:	46a4      	mov	ip, r4
100011fc:	00db      	lsls	r3, r3, #3
100011fe:	4463      	add	r3, ip
10001200:	2200      	movs	r2, #0
10001202:	2100      	movs	r1, #0
10001204:	0018      	movs	r0, r3
10001206:	f007 fd15 	bl	10008c34 <_ZN6tflite5micro12KernelRunner14InitAndPrepareEPKcj>
1000120a:	2800      	cmp	r0, #0
1000120c:	d001      	beq.n	10001212 <main+0x3b6>
1000120e:	f001 ff31 	bl	10003074 <main+0x2218>
10001212:	23d7      	movs	r3, #215	@ 0xd7
10001214:	46a4      	mov	ip, r4
10001216:	00db      	lsls	r3, r3, #3
10001218:	4463      	add	r3, ip
1000121a:	0018      	movs	r0, r3
1000121c:	f007 fd04 	bl	10008c28 <_ZN6tflite5micro12KernelRunner29ValidateTempBufferDeallocatedEv>
10001220:	2800      	cmp	r0, #0
10001222:	d108      	bne.n	10001236 <main+0x3da>
10001224:	22fc      	movs	r2, #252	@ 0xfc
10001226:	9907      	ldr	r1, [sp, #28]
10001228:	32ff      	adds	r2, #255	@ 0xff
1000122a:	9825      	ldr	r0, [sp, #148]	@ 0x94
1000122c:	f008 f854 	bl	100092d8 <_Z11MicroPrintfPKcz>
10001230:	4642      	mov	r2, r8
10001232:	9b04      	ldr	r3, [sp, #16]
10001234:	701a      	strb	r2, [r3, #0]
10001236:	9d23      	ldr	r5, [sp, #140]	@ 0x8c
10001238:	9e24      	ldr	r6, [sp, #144]	@ 0x90
1000123a:	46a8      	mov	r8, r5
1000123c:	e05c      	b.n	100012f8 <main+0x49c>
1000123e:	46c0      	nop			@ (mov r8, r8)
10001240:	ffffeca4 	.word	0xffffeca4
10001244:	20001c4c 	.word	0x20001c4c
10001248:	20001c48 	.word	0x20001c48
1000124c:	10010480 	.word	0x10010480
10001250:	200051de 	.word	0x200051de
10001254:	200051dd 	.word	0x200051dd
10001258:	1001386c 	.word	0x1001386c
1000125c:	10013c2c 	.word	0x10013c2c
10001260:	10013aec 	.word	0x10013aec
10001264:	1001384c 	.word	0x1001384c
10001268:	10013d0c 	.word	0x10013d0c
1000126c:	10010330 	.word	0x10010330
10001270:	1001038c 	.word	0x1001038c
10001274:	10013c6c 	.word	0x10013c6c
10001278:	1001370c 	.word	0x1001370c
1000127c:	100103cc 	.word	0x100103cc
10001280:	10010418 	.word	0x10010418
10001284:	10010448 	.word	0x10010448
10001288:	100104b4 	.word	0x100104b4
1000128c:	100104f0 	.word	0x100104f0
10001290:	10010530 	.word	0x10010530
10001294:	100115cc 	.word	0x100115cc
10001298:	100114cc 	.word	0x100114cc
1000129c:	10010568 	.word	0x10010568
100012a0:	100113cc 	.word	0x100113cc
100012a4:	100105a4 	.word	0x100105a4
100012a8:	100126d0 	.word	0x100126d0
100012ac:	10011ed0 	.word	0x10011ed0
100012b0:	10011dcc 	.word	0x10011dcc
100012b4:	100105e4 	.word	0x100105e4
100012b8:	10010624 	.word	0x10010624
100012bc:	10010668 	.word	0x10010668
100012c0:	100106ac 	.word	0x100106ac
100012c4:	100106c0 	.word	0x100106c0
100012c8:	100106d8 	.word	0x100106d8
100012cc:	00000ab8 	.word	0x00000ab8
100012d0:	000002d6 	.word	0x000002d6
100012d4:	2300      	movs	r3, #0
100012d6:	4ac3      	ldr	r2, [pc, #780]	@ (100015e4 <main+0x788>)
100012d8:	9000      	str	r0, [sp, #0]
100012da:	9907      	ldr	r1, [sp, #28]
100012dc:	980d      	ldr	r0, [sp, #52]	@ 0x34
100012de:	f007 fffb 	bl	100092d8 <_Z11MicroPrintfPKcz>
100012e2:	465a      	mov	r2, fp
100012e4:	9b04      	ldr	r3, [sp, #16]
100012e6:	701a      	strb	r2, [r3, #0]
100012e8:	2310      	movs	r3, #16
100012ea:	469c      	mov	ip, r3
100012ec:	4bbe      	ldr	r3, [pc, #760]	@ (100015e8 <main+0x78c>)
100012ee:	3620      	adds	r6, #32
100012f0:	44e0      	add	r8, ip
100012f2:	429e      	cmp	r6, r3
100012f4:	d100      	bne.n	100012f8 <main+0x49c>
100012f6:	e0c5      	b.n	10001484 <main+0x628>
100012f8:	9adc      	ldr	r2, [sp, #880]	@ 0x370
100012fa:	4641      	mov	r1, r8
100012fc:	98da      	ldr	r0, [sp, #872]	@ 0x368
100012fe:	f004 f8d9 	bl	100054b4 <__wrap___aeabi_memcpy>
10001302:	23d7      	movs	r3, #215	@ 0xd7
10001304:	aa28      	add	r2, sp, #160	@ 0xa0
10001306:	4694      	mov	ip, r2
10001308:	00db      	lsls	r3, r3, #3
1000130a:	4463      	add	r3, ip
1000130c:	0018      	movs	r0, r3
1000130e:	f007 fce5 	bl	10008cdc <_ZN6tflite5micro12KernelRunner6InvokeEv>
10001312:	2800      	cmp	r0, #0
10001314:	d1de      	bne.n	100012d4 <main+0x478>
10001316:	6834      	ldr	r4, [r6, #0]
10001318:	9d96      	ldr	r5, [sp, #600]	@ 0x258
1000131a:	1c21      	adds	r1, r4, #0
1000131c:	1c28      	adds	r0, r5, #0
1000131e:	f003 ffd5 	bl	100052cc <__wrap___aeabi_fcmplt>
10001322:	2800      	cmp	r0, #0
10001324:	d001      	beq.n	1000132a <main+0x4ce>
10001326:	f001 fe58 	bl	10002fda <main+0x217e>
1000132a:	1c21      	adds	r1, r4, #0
1000132c:	1c28      	adds	r0, r5, #0
1000132e:	f003 ffc5 	bl	100052bc <__wrap___aeabi_fcmpeq>
10001332:	2800      	cmp	r0, #0
10001334:	d101      	bne.n	1000133a <main+0x4de>
10001336:	f001 fec2 	bl	100030be <main+0x2262>
1000133a:	9d97      	ldr	r5, [sp, #604]	@ 0x25c
1000133c:	6874      	ldr	r4, [r6, #4]
1000133e:	1c29      	adds	r1, r5, #0
10001340:	1c20      	adds	r0, r4, #0
10001342:	f003 ffc9 	bl	100052d8 <__wrap___aeabi_fcmpgt>
10001346:	1c29      	adds	r1, r5, #0
10001348:	2800      	cmp	r0, #0
1000134a:	d001      	beq.n	10001350 <main+0x4f4>
1000134c:	f001 fe23 	bl	10002f96 <main+0x213a>
10001350:	1c20      	adds	r0, r4, #0
10001352:	f003 ffb3 	bl	100052bc <__wrap___aeabi_fcmpeq>
10001356:	2800      	cmp	r0, #0
10001358:	d101      	bne.n	1000135e <main+0x502>
1000135a:	f001 feba 	bl	100030d2 <main+0x2276>
1000135e:	68b4      	ldr	r4, [r6, #8]
10001360:	9d98      	ldr	r5, [sp, #608]	@ 0x260
10001362:	1c21      	adds	r1, r4, #0
10001364:	1c28      	adds	r0, r5, #0
10001366:	f003 ffb1 	bl	100052cc <__wrap___aeabi_fcmplt>
1000136a:	2800      	cmp	r0, #0
1000136c:	d001      	beq.n	10001372 <main+0x516>
1000136e:	f001 fdef 	bl	10002f50 <main+0x20f4>
10001372:	1c21      	adds	r1, r4, #0
10001374:	1c28      	adds	r0, r5, #0
10001376:	f003 ffa1 	bl	100052bc <__wrap___aeabi_fcmpeq>
1000137a:	2800      	cmp	r0, #0
1000137c:	d101      	bne.n	10001382 <main+0x526>
1000137e:	f001 fea3 	bl	100030c8 <main+0x226c>
10001382:	68f4      	ldr	r4, [r6, #12]
10001384:	9d99      	ldr	r5, [sp, #612]	@ 0x264
10001386:	1c21      	adds	r1, r4, #0
10001388:	1c28      	adds	r0, r5, #0
1000138a:	f003 ff9f 	bl	100052cc <__wrap___aeabi_fcmplt>
1000138e:	2800      	cmp	r0, #0
10001390:	d001      	beq.n	10001396 <main+0x53a>
10001392:	f001 fdba 	bl	10002f0a <main+0x20ae>
10001396:	1c21      	adds	r1, r4, #0
10001398:	1c28      	adds	r0, r5, #0
1000139a:	f003 ff8f 	bl	100052bc <__wrap___aeabi_fcmpeq>
1000139e:	2800      	cmp	r0, #0
100013a0:	d101      	bne.n	100013a6 <main+0x54a>
100013a2:	f001 fea0 	bl	100030e6 <main+0x228a>
100013a6:	6934      	ldr	r4, [r6, #16]
100013a8:	9d9a      	ldr	r5, [sp, #616]	@ 0x268
100013aa:	1c21      	adds	r1, r4, #0
100013ac:	1c28      	adds	r0, r5, #0
100013ae:	f003 ff8d 	bl	100052cc <__wrap___aeabi_fcmplt>
100013b2:	2800      	cmp	r0, #0
100013b4:	d001      	beq.n	100013ba <main+0x55e>
100013b6:	f001 fd85 	bl	10002ec4 <main+0x2068>
100013ba:	1c21      	adds	r1, r4, #0
100013bc:	1c28      	adds	r0, r5, #0
100013be:	f003 ff7d 	bl	100052bc <__wrap___aeabi_fcmpeq>
100013c2:	2800      	cmp	r0, #0
100013c4:	d101      	bne.n	100013ca <main+0x56e>
100013c6:	f001 fe89 	bl	100030dc <main+0x2280>
100013ca:	6974      	ldr	r4, [r6, #20]
100013cc:	9d9b      	ldr	r5, [sp, #620]	@ 0x26c
100013ce:	1c21      	adds	r1, r4, #0
100013d0:	1c28      	adds	r0, r5, #0
100013d2:	f003 ff7b 	bl	100052cc <__wrap___aeabi_fcmplt>
100013d6:	2800      	cmp	r0, #0
100013d8:	d001      	beq.n	100013de <main+0x582>
100013da:	f001 fd50 	bl	10002e7e <main+0x2022>
100013de:	1c21      	adds	r1, r4, #0
100013e0:	1c28      	adds	r0, r5, #0
100013e2:	f003 ff6b 	bl	100052bc <__wrap___aeabi_fcmpeq>
100013e6:	2800      	cmp	r0, #0
100013e8:	d101      	bne.n	100013ee <main+0x592>
100013ea:	f001 fe86 	bl	100030fa <main+0x229e>
100013ee:	69b4      	ldr	r4, [r6, #24]
100013f0:	9d9c      	ldr	r5, [sp, #624]	@ 0x270
100013f2:	1c21      	adds	r1, r4, #0
100013f4:	1c28      	adds	r0, r5, #0
100013f6:	f003 ff69 	bl	100052cc <__wrap___aeabi_fcmplt>
100013fa:	2800      	cmp	r0, #0
100013fc:	d001      	beq.n	10001402 <main+0x5a6>
100013fe:	f001 fd1b 	bl	10002e38 <main+0x1fdc>
10001402:	1c21      	adds	r1, r4, #0
10001404:	1c28      	adds	r0, r5, #0
10001406:	f003 ff59 	bl	100052bc <__wrap___aeabi_fcmpeq>
1000140a:	2800      	cmp	r0, #0
1000140c:	d101      	bne.n	10001412 <main+0x5b6>
1000140e:	f001 fe6f 	bl	100030f0 <main+0x2294>
10001412:	9d9d      	ldr	r5, [sp, #628]	@ 0x274
10001414:	69f4      	ldr	r4, [r6, #28]
10001416:	1c29      	adds	r1, r5, #0
10001418:	1c20      	adds	r0, r4, #0
1000141a:	f003 ff5d 	bl	100052d8 <__wrap___aeabi_fcmpgt>
1000141e:	1c29      	adds	r1, r5, #0
10001420:	2800      	cmp	r0, #0
10001422:	d001      	beq.n	10001428 <main+0x5cc>
10001424:	f001 fd03 	bl	10002e2e <main+0x1fd2>
10001428:	1c20      	adds	r0, r4, #0
1000142a:	f003 ff47 	bl	100052bc <__wrap___aeabi_fcmpeq>
1000142e:	2800      	cmp	r0, #0
10001430:	d000      	beq.n	10001434 <main+0x5d8>
10001432:	e759      	b.n	100012e8 <main+0x48c>
10001434:	1c21      	adds	r1, r4, #0
10001436:	1c28      	adds	r0, r5, #0
10001438:	f003 fef7 	bl	1000522a <__wrap___aeabi_fsub>
1000143c:	496b      	ldr	r1, [pc, #428]	@ (100015ec <main+0x790>)
1000143e:	f003 ff4b 	bl	100052d8 <__wrap___aeabi_fcmpgt>
10001442:	2800      	cmp	r0, #0
10001444:	d100      	bne.n	10001448 <main+0x5ec>
10001446:	e74f      	b.n	100012e8 <main+0x48c>
10001448:	1c20      	adds	r0, r4, #0
1000144a:	f003 ff71 	bl	10005330 <__wrap___aeabi_f2d>
1000144e:	4b68      	ldr	r3, [pc, #416]	@ (100015f0 <main+0x794>)
10001450:	900a      	str	r0, [sp, #40]	@ 0x28
10001452:	910b      	str	r1, [sp, #44]	@ 0x2c
10001454:	9303      	str	r3, [sp, #12]
10001456:	9b07      	ldr	r3, [sp, #28]
10001458:	1c28      	adds	r0, r5, #0
1000145a:	9302      	str	r3, [sp, #8]
1000145c:	f003 ff68 	bl	10005330 <__wrap___aeabi_f2d>
10001460:	9a0a      	ldr	r2, [sp, #40]	@ 0x28
10001462:	9b0b      	ldr	r3, [sp, #44]	@ 0x2c
10001464:	9000      	str	r0, [sp, #0]
10001466:	9101      	str	r1, [sp, #4]
10001468:	980e      	ldr	r0, [sp, #56]	@ 0x38
1000146a:	f007 ff35 	bl	100092d8 <_Z11MicroPrintfPKcz>
1000146e:	465a      	mov	r2, fp
10001470:	9b04      	ldr	r3, [sp, #16]
10001472:	3620      	adds	r6, #32
10001474:	701a      	strb	r2, [r3, #0]
10001476:	2310      	movs	r3, #16
10001478:	469c      	mov	ip, r3
1000147a:	4b5b      	ldr	r3, [pc, #364]	@ (100015e8 <main+0x78c>)
1000147c:	44e0      	add	r8, ip
1000147e:	429e      	cmp	r6, r3
10001480:	d000      	beq.n	10001484 <main+0x628>
10001482:	e739      	b.n	100012f8 <main+0x49c>
10001484:	23d7      	movs	r3, #215	@ 0xd7
10001486:	aa28      	add	r2, sp, #160	@ 0xa0
10001488:	4694      	mov	ip, r2
1000148a:	00db      	lsls	r3, r3, #3
1000148c:	4463      	add	r3, ip
1000148e:	0018      	movs	r0, r3
10001490:	f007 fbca 	bl	10008c28 <_ZN6tflite5micro12KernelRunner29ValidateTempBufferDeallocatedEv>
10001494:	2800      	cmp	r0, #0
10001496:	d101      	bne.n	1000149c <main+0x640>
10001498:	f001 fe34 	bl	10003104 <main+0x22a8>
1000149c:	4659      	mov	r1, fp
1000149e:	9b04      	ldr	r3, [sp, #16]
100014a0:	781a      	ldrb	r2, [r3, #0]
100014a2:	9b06      	ldr	r3, [sp, #24]
100014a4:	7019      	strb	r1, [r3, #0]
100014a6:	9b05      	ldr	r3, [sp, #20]
100014a8:	681b      	ldr	r3, [r3, #0]
100014aa:	2a00      	cmp	r2, #0
100014ac:	d001      	beq.n	100014b2 <main+0x656>
100014ae:	f001 fe03 	bl	100030b8 <main+0x225c>
100014b2:	3301      	adds	r3, #1
100014b4:	9905      	ldr	r1, [sp, #20]
100014b6:	9818      	ldr	r0, [sp, #96]	@ 0x60
100014b8:	600b      	str	r3, [r1, #0]
100014ba:	464b      	mov	r3, r9
100014bc:	681b      	ldr	r3, [r3, #0]
100014be:	2402      	movs	r4, #2
100014c0:	189b      	adds	r3, r3, r2
100014c2:	464a      	mov	r2, r9
100014c4:	6013      	str	r3, [r2, #0]
100014c6:	f007 ff07 	bl	100092d8 <_Z11MicroPrintfPKcz>
100014ca:	4652      	mov	r2, sl
100014cc:	9b06      	ldr	r3, [sp, #24]
100014ce:	a835      	add	r0, sp, #212	@ 0xd4
100014d0:	701a      	strb	r2, [r3, #0]
100014d2:	9b04      	ldr	r3, [sp, #16]
100014d4:	9435      	str	r4, [sp, #212]	@ 0xd4
100014d6:	701a      	strb	r2, [r3, #0]
100014d8:	9436      	str	r4, [sp, #216]	@ 0xd8
100014da:	9437      	str	r4, [sp, #220]	@ 0xdc
100014dc:	f007 ff84 	bl	100093e8 <_ZN6tflite7testing16IntArrayFromIntsEPKi>
100014e0:	2608      	movs	r6, #8
100014e2:	0005      	movs	r5, r0
100014e4:	a838      	add	r0, sp, #224	@ 0xe0
100014e6:	9438      	str	r4, [sp, #224]	@ 0xe0
100014e8:	9639      	str	r6, [sp, #228]	@ 0xe4
100014ea:	943a      	str	r4, [sp, #232]	@ 0xe8
100014ec:	f007 ff7c 	bl	100093e8 <_ZN6tflite7testing16IntArrayFromIntsEPKi>
100014f0:	230a      	movs	r3, #10
100014f2:	4680      	mov	r8, r0
100014f4:	a83b      	add	r0, sp, #236	@ 0xec
100014f6:	943b      	str	r4, [sp, #236]	@ 0xec
100014f8:	963c      	str	r6, [sp, #240]	@ 0xf0
100014fa:	933d      	str	r3, [sp, #244]	@ 0xf4
100014fc:	f007 ff74 	bl	100093e8 <_ZN6tflite7testing16IntArrayFromIntsEPKi>
10001500:	465b      	mov	r3, fp
10001502:	3e04      	subs	r6, #4
10001504:	900f      	str	r0, [sp, #60]	@ 0x3c
10001506:	a832      	add	r0, sp, #200	@ 0xc8
10001508:	9332      	str	r3, [sp, #200]	@ 0xc8
1000150a:	9633      	str	r6, [sp, #204]	@ 0xcc
1000150c:	f007 ff6c 	bl	100093e8 <_ZN6tflite7testing16IntArrayFromIntsEPKi>
10001510:	2350      	movs	r3, #80	@ 0x50
10001512:	9012      	str	r0, [sp, #72]	@ 0x48
10001514:	a83e      	add	r0, sp, #248	@ 0xf8
10001516:	9340      	str	r3, [sp, #256]	@ 0x100
10001518:	943e      	str	r4, [sp, #248]	@ 0xf8
1000151a:	943f      	str	r4, [sp, #252]	@ 0xfc
1000151c:	f007 ff64 	bl	100093e8 <_ZN6tflite7testing16IntArrayFromIntsEPKi>
10001520:	900a      	str	r0, [sp, #40]	@ 0x28
10001522:	a842      	add	r0, sp, #264	@ 0x108
10001524:	9442      	str	r4, [sp, #264]	@ 0x108
10001526:	9443      	str	r4, [sp, #268]	@ 0x10c
10001528:	9644      	str	r6, [sp, #272]	@ 0x110
1000152a:	f007 ff5d 	bl	100093e8 <_ZN6tflite7testing16IntArrayFromIntsEPKi>
1000152e:	aa28      	add	r2, sp, #160	@ 0xa0
10001530:	4694      	mov	ip, r2
10001532:	4b30      	ldr	r3, [pc, #192]	@ (100015f4 <main+0x798>)
10001534:	2100      	movs	r1, #0
10001536:	4463      	add	r3, ip
10001538:	601d      	str	r5, [r3, #0]
1000153a:	23ac      	movs	r3, #172	@ 0xac
1000153c:	011b      	lsls	r3, r3, #4
1000153e:	4463      	add	r3, ip
10001540:	2208      	movs	r2, #8
10001542:	9010      	str	r0, [sp, #64]	@ 0x40
10001544:	0018      	movs	r0, r3
10001546:	f003 ffaf 	bl	100054a8 <__wrap_memset>
1000154a:	aa28      	add	r2, sp, #160	@ 0xa0
1000154c:	4694      	mov	ip, r2
1000154e:	4652      	mov	r2, sl
10001550:	4b29      	ldr	r3, [pc, #164]	@ (100015f8 <main+0x79c>)
10001552:	4e2a      	ldr	r6, [pc, #168]	@ (100015fc <main+0x7a0>)
10001554:	4463      	add	r3, ip
10001556:	601a      	str	r2, [r3, #0]
10001558:	4b29      	ldr	r3, [pc, #164]	@ (10001600 <main+0x7a4>)
1000155a:	0028      	movs	r0, r5
1000155c:	4463      	add	r3, ip
1000155e:	601a      	str	r2, [r3, #0]
10001560:	4663      	mov	r3, ip
10001562:	4a28      	ldr	r2, [pc, #160]	@ (10001604 <main+0x7a8>)
10001564:	189b      	adds	r3, r3, r2
10001566:	4652      	mov	r2, sl
10001568:	701a      	strb	r2, [r3, #0]
1000156a:	4b27      	ldr	r3, [pc, #156]	@ (10001608 <main+0x7ac>)
1000156c:	aa2d      	add	r2, sp, #180	@ 0xb4
1000156e:	4463      	add	r3, ip
10001570:	601a      	str	r2, [r3, #0]
10001572:	4663      	mov	r3, ip
10001574:	2209      	movs	r2, #9
10001576:	199b      	adds	r3, r3, r6
10001578:	801a      	strh	r2, [r3, #0]
1000157a:	f007 febf 	bl	100092fc <_ZN6tflite12ElementCountERK14TfLiteIntArray>
1000157e:	ab28      	add	r3, sp, #160	@ 0xa0
10001580:	199b      	adds	r3, r3, r6
10001582:	0004      	movs	r4, r0
10001584:	7818      	ldrb	r0, [r3, #0]
10001586:	f006 fdcf 	bl	10008128 <_ZN6tflite17TfLiteTypeGetSizeE10TfLiteType>
1000158a:	aa28      	add	r2, sp, #160	@ 0xa0
1000158c:	23ad      	movs	r3, #173	@ 0xad
1000158e:	4694      	mov	ip, r2
10001590:	22ac      	movs	r2, #172	@ 0xac
10001592:	4360      	muls	r0, r4
10001594:	011b      	lsls	r3, r3, #4
10001596:	4463      	add	r3, ip
10001598:	6018      	str	r0, [r3, #0]
1000159a:	0112      	lsls	r2, r2, #4
1000159c:	4b1b      	ldr	r3, [pc, #108]	@ (1000160c <main+0x7b0>)
1000159e:	4462      	add	r2, ip
100015a0:	6013      	str	r3, [r2, #0]
100015a2:	4652      	mov	r2, sl
100015a4:	4b1a      	ldr	r3, [pc, #104]	@ (10001610 <main+0x7b4>)
100015a6:	4640      	mov	r0, r8
100015a8:	4463      	add	r3, ip
100015aa:	601a      	str	r2, [r3, #0]
100015ac:	465a      	mov	r2, fp
100015ae:	4b12      	ldr	r3, [pc, #72]	@ (100015f8 <main+0x79c>)
100015b0:	4463      	add	r3, ip
100015b2:	601a      	str	r2, [r3, #0]
100015b4:	4652      	mov	r2, sl
100015b6:	4b12      	ldr	r3, [pc, #72]	@ (10001600 <main+0x7a4>)
100015b8:	4463      	add	r3, ip
100015ba:	601a      	str	r2, [r3, #0]
100015bc:	f007 fe9e 	bl	100092fc <_ZN6tflite12ElementCountERK14TfLiteIntArray>
100015c0:	2800      	cmp	r0, #0
100015c2:	dd49      	ble.n	10001658 <main+0x7fc>
100015c4:	2178      	movs	r1, #120	@ 0x78
100015c6:	23d7      	movs	r3, #215	@ 0xd7
100015c8:	aa28      	add	r2, sp, #160	@ 0xa0
100015ca:	1852      	adds	r2, r2, r1
100015cc:	7013      	strb	r3, [r2, #0]
100015ce:	aa28      	add	r2, sp, #160	@ 0xa0
100015d0:	4694      	mov	ip, r2
100015d2:	3b5e      	subs	r3, #94	@ 0x5e
100015d4:	4463      	add	r3, ip
100015d6:	001c      	movs	r4, r3
100015d8:	ab46      	add	r3, sp, #280	@ 0x118
100015da:	4d0e      	ldr	r5, [pc, #56]	@ (10001614 <main+0x7b8>)
100015dc:	181e      	adds	r6, r3, r0
100015de:	2801      	cmp	r0, #1
100015e0:	d120      	bne.n	10001624 <main+0x7c8>
100015e2:	e039      	b.n	10001658 <main+0x7fc>
100015e4:	0000020a 	.word	0x0000020a
100015e8:	1001384c 	.word	0x1001384c
100015ec:	3727c5ac 	.word	0x3727c5ac
100015f0:	00000211 	.word	0x00000211
100015f4:	00000acc 	.word	0x00000acc
100015f8:	00000ab8 	.word	0x00000ab8
100015fc:	00000ad4 	.word	0x00000ad4
10001600:	00000abc 	.word	0x00000abc
10001604:	00000ad6 	.word	0x00000ad6
10001608:	00000ac8 	.word	0x00000ac8
1000160c:	3ca14285 	.word	0x3ca14285
10001610:	00000ac4 	.word	0x00000ac4
10001614:	10013c30 	.word	0x10013c30
10001618:	207f      	movs	r0, #127	@ 0x7f
1000161a:	7020      	strb	r0, [r4, #0]
1000161c:	3401      	adds	r4, #1
1000161e:	3504      	adds	r5, #4
10001620:	42b4      	cmp	r4, r6
10001622:	d019      	beq.n	10001658 <main+0x7fc>
10001624:	49e0      	ldr	r1, [pc, #896]	@ (100019a8 <main+0xb4c>)
10001626:	6828      	ldr	r0, [r5, #0]
10001628:	f003 fe05 	bl	10005236 <__wrap___aeabi_fdiv>
1000162c:	f003 fe80 	bl	10005330 <__wrap___aeabi_f2d>
10001630:	f003 fada 	bl	10004be8 <__wrap_round>
10001634:	2200      	movs	r2, #0
10001636:	2300      	movs	r3, #0
10001638:	f003 f986 	bl	10004948 <__wrap___aeabi_dadd>
1000163c:	f003 fa32 	bl	10004aa4 <__wrap___aeabi_d2iz>
10001640:	287f      	cmp	r0, #127	@ 0x7f
10001642:	dce9      	bgt.n	10001618 <main+0x7bc>
10001644:	0003      	movs	r3, r0
10001646:	3380      	adds	r3, #128	@ 0x80
10001648:	dae7      	bge.n	1000161a <main+0x7be>
1000164a:	2080      	movs	r0, #128	@ 0x80
1000164c:	4240      	negs	r0, r0
1000164e:	7020      	strb	r0, [r4, #0]
10001650:	3401      	adds	r4, #1
10001652:	3504      	adds	r5, #4
10001654:	42b4      	cmp	r4, r6
10001656:	d1e5      	bne.n	10001624 <main+0x7c8>
10001658:	aa28      	add	r2, sp, #160	@ 0xa0
1000165a:	4694      	mov	ip, r2
1000165c:	4642      	mov	r2, r8
1000165e:	4bd3      	ldr	r3, [pc, #844]	@ (100019ac <main+0xb50>)
10001660:	2100      	movs	r1, #0
10001662:	4463      	add	r3, ip
10001664:	601a      	str	r2, [r3, #0]
10001666:	23ae      	movs	r3, #174	@ 0xae
10001668:	011b      	lsls	r3, r3, #4
1000166a:	4463      	add	r3, ip
1000166c:	2208      	movs	r2, #8
1000166e:	0018      	movs	r0, r3
10001670:	f003 ff1a 	bl	100054a8 <__wrap_memset>
10001674:	aa28      	add	r2, sp, #160	@ 0xa0
10001676:	4694      	mov	ip, r2
10001678:	4652      	mov	r2, sl
1000167a:	4bcd      	ldr	r3, [pc, #820]	@ (100019b0 <main+0xb54>)
1000167c:	4651      	mov	r1, sl
1000167e:	4463      	add	r3, ip
10001680:	601a      	str	r2, [r3, #0]
10001682:	4bcc      	ldr	r3, [pc, #816]	@ (100019b4 <main+0xb58>)
10001684:	4dcc      	ldr	r5, [pc, #816]	@ (100019b8 <main+0xb5c>)
10001686:	4463      	add	r3, ip
10001688:	601a      	str	r2, [r3, #0]
1000168a:	4662      	mov	r2, ip
1000168c:	233e      	movs	r3, #62	@ 0x3e
1000168e:	1952      	adds	r2, r2, r5
10001690:	54d1      	strb	r1, [r2, r3]
10001692:	4bca      	ldr	r3, [pc, #808]	@ (100019bc <main+0xb60>)
10001694:	aa46      	add	r2, sp, #280	@ 0x118
10001696:	4463      	add	r3, ip
10001698:	601a      	str	r2, [r3, #0]
1000169a:	4663      	mov	r3, ip
1000169c:	4ac8      	ldr	r2, [pc, #800]	@ (100019c0 <main+0xb64>)
1000169e:	4640      	mov	r0, r8
100016a0:	189b      	adds	r3, r3, r2
100016a2:	2209      	movs	r2, #9
100016a4:	801a      	strh	r2, [r3, #0]
100016a6:	f007 fe29 	bl	100092fc <_ZN6tflite12ElementCountERK14TfLiteIntArray>
100016aa:	233c      	movs	r3, #60	@ 0x3c
100016ac:	aa28      	add	r2, sp, #160	@ 0xa0
100016ae:	1952      	adds	r2, r2, r5
100016b0:	0004      	movs	r4, r0
100016b2:	5cd0      	ldrb	r0, [r2, r3]
100016b4:	f006 fd38 	bl	10008128 <_ZN6tflite17TfLiteTypeGetSizeE10TfLiteType>
100016b8:	aa28      	add	r2, sp, #160	@ 0xa0
100016ba:	23af      	movs	r3, #175	@ 0xaf
100016bc:	4694      	mov	ip, r2
100016be:	22ae      	movs	r2, #174	@ 0xae
100016c0:	4360      	muls	r0, r4
100016c2:	011b      	lsls	r3, r3, #4
100016c4:	4463      	add	r3, ip
100016c6:	6018      	str	r0, [r3, #0]
100016c8:	0112      	lsls	r2, r2, #4
100016ca:	4bb7      	ldr	r3, [pc, #732]	@ (100019a8 <main+0xb4c>)
100016cc:	4462      	add	r2, ip
100016ce:	6013      	str	r3, [r2, #0]
100016d0:	4652      	mov	r2, sl
100016d2:	4bbc      	ldr	r3, [pc, #752]	@ (100019c4 <main+0xb68>)
100016d4:	980f      	ldr	r0, [sp, #60]	@ 0x3c
100016d6:	4463      	add	r3, ip
100016d8:	601a      	str	r2, [r3, #0]
100016da:	465a      	mov	r2, fp
100016dc:	4bb4      	ldr	r3, [pc, #720]	@ (100019b0 <main+0xb54>)
100016de:	4463      	add	r3, ip
100016e0:	601a      	str	r2, [r3, #0]
100016e2:	4652      	mov	r2, sl
100016e4:	4bb3      	ldr	r3, [pc, #716]	@ (100019b4 <main+0xb58>)
100016e6:	4463      	add	r3, ip
100016e8:	601a      	str	r2, [r3, #0]
100016ea:	f007 fe07 	bl	100092fc <_ZN6tflite12ElementCountERK14TfLiteIntArray>
100016ee:	2800      	cmp	r0, #0
100016f0:	dd31      	ble.n	10001756 <main+0x8fa>
100016f2:	21dc      	movs	r1, #220	@ 0xdc
100016f4:	23d7      	movs	r3, #215	@ 0xd7
100016f6:	aa28      	add	r2, sp, #160	@ 0xa0
100016f8:	0049      	lsls	r1, r1, #1
100016fa:	1852      	adds	r2, r2, r1
100016fc:	7013      	strb	r3, [r2, #0]
100016fe:	23ba      	movs	r3, #186	@ 0xba
10001700:	aa28      	add	r2, sp, #160	@ 0xa0
10001702:	4694      	mov	ip, r2
10001704:	33ff      	adds	r3, #255	@ 0xff
10001706:	4463      	add	r3, ip
10001708:	001c      	movs	r4, r3
1000170a:	ab96      	add	r3, sp, #600	@ 0x258
1000170c:	4dae      	ldr	r5, [pc, #696]	@ (100019c8 <main+0xb6c>)
1000170e:	181e      	adds	r6, r3, r0
10001710:	2801      	cmp	r0, #1
10001712:	d106      	bne.n	10001722 <main+0x8c6>
10001714:	e01f      	b.n	10001756 <main+0x8fa>
10001716:	207f      	movs	r0, #127	@ 0x7f
10001718:	7020      	strb	r0, [r4, #0]
1000171a:	3401      	adds	r4, #1
1000171c:	3504      	adds	r5, #4
1000171e:	42b4      	cmp	r4, r6
10001720:	d019      	beq.n	10001756 <main+0x8fa>
10001722:	49a1      	ldr	r1, [pc, #644]	@ (100019a8 <main+0xb4c>)
10001724:	6828      	ldr	r0, [r5, #0]
10001726:	f003 fd86 	bl	10005236 <__wrap___aeabi_fdiv>
1000172a:	f003 fe01 	bl	10005330 <__wrap___aeabi_f2d>
1000172e:	f003 fa5b 	bl	10004be8 <__wrap_round>
10001732:	2200      	movs	r2, #0
10001734:	2300      	movs	r3, #0
10001736:	f003 f907 	bl	10004948 <__wrap___aeabi_dadd>
1000173a:	f003 f9b3 	bl	10004aa4 <__wrap___aeabi_d2iz>
1000173e:	287f      	cmp	r0, #127	@ 0x7f
10001740:	dce9      	bgt.n	10001716 <main+0x8ba>
10001742:	0003      	movs	r3, r0
10001744:	3380      	adds	r3, #128	@ 0x80
10001746:	dae7      	bge.n	10001718 <main+0x8bc>
10001748:	2080      	movs	r0, #128	@ 0x80
1000174a:	4240      	negs	r0, r0
1000174c:	7020      	strb	r0, [r4, #0]
1000174e:	3401      	adds	r4, #1
10001750:	3504      	adds	r5, #4
10001752:	42b4      	cmp	r4, r6
10001754:	d1e5      	bne.n	10001722 <main+0x8c6>
10001756:	aa28      	add	r2, sp, #160	@ 0xa0
10001758:	4694      	mov	ip, r2
1000175a:	4b9c      	ldr	r3, [pc, #624]	@ (100019cc <main+0xb70>)
1000175c:	9d0f      	ldr	r5, [sp, #60]	@ 0x3c
1000175e:	4463      	add	r3, ip
10001760:	601d      	str	r5, [r3, #0]
10001762:	23b0      	movs	r3, #176	@ 0xb0
10001764:	011b      	lsls	r3, r3, #4
10001766:	4463      	add	r3, ip
10001768:	2208      	movs	r2, #8
1000176a:	2100      	movs	r1, #0
1000176c:	0018      	movs	r0, r3
1000176e:	f003 fe9b 	bl	100054a8 <__wrap_memset>
10001772:	aa28      	add	r2, sp, #160	@ 0xa0
10001774:	4694      	mov	ip, r2
10001776:	4652      	mov	r2, sl
10001778:	4b95      	ldr	r3, [pc, #596]	@ (100019d0 <main+0xb74>)
1000177a:	4651      	mov	r1, sl
1000177c:	4463      	add	r3, ip
1000177e:	601a      	str	r2, [r3, #0]
10001780:	4b94      	ldr	r3, [pc, #592]	@ (100019d4 <main+0xb78>)
10001782:	4e8d      	ldr	r6, [pc, #564]	@ (100019b8 <main+0xb5c>)
10001784:	4463      	add	r3, ip
10001786:	601a      	str	r2, [r3, #0]
10001788:	4662      	mov	r2, ip
1000178a:	235e      	movs	r3, #94	@ 0x5e
1000178c:	1992      	adds	r2, r2, r6
1000178e:	54d1      	strb	r1, [r2, r3]
10001790:	4b91      	ldr	r3, [pc, #580]	@ (100019d8 <main+0xb7c>)
10001792:	aa96      	add	r2, sp, #600	@ 0x258
10001794:	4463      	add	r3, ip
10001796:	601a      	str	r2, [r3, #0]
10001798:	4663      	mov	r3, ip
1000179a:	2209      	movs	r2, #9
1000179c:	245c      	movs	r4, #92	@ 0x5c
1000179e:	199b      	adds	r3, r3, r6
100017a0:	531a      	strh	r2, [r3, r4]
100017a2:	0028      	movs	r0, r5
100017a4:	f007 fdaa 	bl	100092fc <_ZN6tflite12ElementCountERK14TfLiteIntArray>
100017a8:	ab28      	add	r3, sp, #160	@ 0xa0
100017aa:	199b      	adds	r3, r3, r6
100017ac:	0005      	movs	r5, r0
100017ae:	5d18      	ldrb	r0, [r3, r4]
100017b0:	f006 fcba 	bl	10008128 <_ZN6tflite17TfLiteTypeGetSizeE10TfLiteType>
100017b4:	aa28      	add	r2, sp, #160	@ 0xa0
100017b6:	23b1      	movs	r3, #177	@ 0xb1
100017b8:	4694      	mov	ip, r2
100017ba:	22b0      	movs	r2, #176	@ 0xb0
100017bc:	4651      	mov	r1, sl
100017be:	4368      	muls	r0, r5
100017c0:	011b      	lsls	r3, r3, #4
100017c2:	4463      	add	r3, ip
100017c4:	6018      	str	r0, [r3, #0]
100017c6:	0112      	lsls	r2, r2, #4
100017c8:	4b77      	ldr	r3, [pc, #476]	@ (100019a8 <main+0xb4c>)
100017ca:	4462      	add	r2, ip
100017cc:	6013      	str	r3, [r2, #0]
100017ce:	4a83      	ldr	r2, [pc, #524]	@ (100019dc <main+0xb80>)
100017d0:	4883      	ldr	r0, [pc, #524]	@ (100019e0 <main+0xb84>)
100017d2:	4462      	add	r2, ip
100017d4:	6011      	str	r1, [r2, #0]
100017d6:	4659      	mov	r1, fp
100017d8:	4a7d      	ldr	r2, [pc, #500]	@ (100019d0 <main+0xb74>)
100017da:	4460      	add	r0, ip
100017dc:	4462      	add	r2, ip
100017de:	6011      	str	r1, [r2, #0]
100017e0:	4651      	mov	r1, sl
100017e2:	4a7c      	ldr	r2, [pc, #496]	@ (100019d4 <main+0xb78>)
100017e4:	4664      	mov	r4, ip
100017e6:	4462      	add	r2, ip
100017e8:	6011      	str	r1, [r2, #0]
100017ea:	4a7e      	ldr	r2, [pc, #504]	@ (100019e4 <main+0xb88>)
100017ec:	9102      	str	r1, [sp, #8]
100017ee:	9201      	str	r2, [sp, #4]
100017f0:	9300      	str	r3, [sp, #0]
100017f2:	9911      	ldr	r1, [sp, #68]	@ 0x44
100017f4:	9b12      	ldr	r3, [sp, #72]	@ 0x48
100017f6:	aa56      	add	r2, sp, #344	@ 0x158
100017f8:	f7ff fad0 	bl	10000d9c <_ZN6tflite7testing25CreateQuantizedBiasTensorIlEE12TfLiteTensorPKfPT_P14TfLiteIntArrayffb>
100017fc:	980a      	ldr	r0, [sp, #40]	@ 0x28
100017fe:	f007 fd7d 	bl	100092fc <_ZN6tflite12ElementCountERK14TfLiteIntArray>
10001802:	2800      	cmp	r0, #0
10001804:	dd30      	ble.n	10001868 <main+0xa0c>
10001806:	22d7      	movs	r2, #215	@ 0xd7
10001808:	00d2      	lsls	r2, r2, #3
1000180a:	18a3      	adds	r3, r4, r2
1000180c:	4652      	mov	r2, sl
1000180e:	46a4      	mov	ip, r4
10001810:	701a      	strb	r2, [r3, #0]
10001812:	4b75      	ldr	r3, [pc, #468]	@ (100019e8 <main+0xb8c>)
10001814:	4d75      	ldr	r5, [pc, #468]	@ (100019ec <main+0xb90>)
10001816:	4463      	add	r3, ip
10001818:	001c      	movs	r4, r3
1000181a:	23d7      	movs	r3, #215	@ 0xd7
1000181c:	00db      	lsls	r3, r3, #3
1000181e:	4463      	add	r3, ip
10001820:	181e      	adds	r6, r3, r0
10001822:	2801      	cmp	r0, #1
10001824:	d106      	bne.n	10001834 <main+0x9d8>
10001826:	e01f      	b.n	10001868 <main+0xa0c>
10001828:	207f      	movs	r0, #127	@ 0x7f
1000182a:	7020      	strb	r0, [r4, #0]
1000182c:	3401      	adds	r4, #1
1000182e:	3504      	adds	r5, #4
10001830:	42b4      	cmp	r4, r6
10001832:	d019      	beq.n	10001868 <main+0xa0c>
10001834:	496b      	ldr	r1, [pc, #428]	@ (100019e4 <main+0xb88>)
10001836:	6828      	ldr	r0, [r5, #0]
10001838:	f003 fcfd 	bl	10005236 <__wrap___aeabi_fdiv>
1000183c:	f003 fd78 	bl	10005330 <__wrap___aeabi_f2d>
10001840:	f003 f9d2 	bl	10004be8 <__wrap_round>
10001844:	2200      	movs	r2, #0
10001846:	2300      	movs	r3, #0
10001848:	f003 f87e 	bl	10004948 <__wrap___aeabi_dadd>
1000184c:	f003 f92a 	bl	10004aa4 <__wrap___aeabi_d2iz>
10001850:	287f      	cmp	r0, #127	@ 0x7f
10001852:	dce9      	bgt.n	10001828 <main+0x9cc>
10001854:	0003      	movs	r3, r0
10001856:	3380      	adds	r3, #128	@ 0x80
10001858:	dae7      	bge.n	1000182a <main+0x9ce>
1000185a:	2080      	movs	r0, #128	@ 0x80
1000185c:	4240      	negs	r0, r0
1000185e:	7020      	strb	r0, [r4, #0]
10001860:	3401      	adds	r4, #1
10001862:	3504      	adds	r5, #4
10001864:	42b4      	cmp	r4, r6
10001866:	d1e5      	bne.n	10001834 <main+0x9d8>
10001868:	2394      	movs	r3, #148	@ 0x94
1000186a:	4c53      	ldr	r4, [pc, #332]	@ (100019b8 <main+0xb5c>)
1000186c:	aa28      	add	r2, sp, #160	@ 0xa0
1000186e:	1911      	adds	r1, r2, r4
10001870:	9a0a      	ldr	r2, [sp, #40]	@ 0x28
10001872:	a828      	add	r0, sp, #160	@ 0xa0
10001874:	50ca      	str	r2, [r1, r3]
10001876:	23b4      	movs	r3, #180	@ 0xb4
10001878:	4684      	mov	ip, r0
1000187a:	011b      	lsls	r3, r3, #4
1000187c:	4463      	add	r3, ip
1000187e:	2208      	movs	r2, #8
10001880:	2100      	movs	r1, #0
10001882:	0018      	movs	r0, r3
10001884:	f003 fe10 	bl	100054a8 <__wrap_memset>
10001888:	2580      	movs	r5, #128	@ 0x80
1000188a:	4651      	mov	r1, sl
1000188c:	0022      	movs	r2, r4
1000188e:	ab28      	add	r3, sp, #160	@ 0xa0
10001890:	191b      	adds	r3, r3, r4
10001892:	2484      	movs	r4, #132	@ 0x84
10001894:	5159      	str	r1, [r3, r5]
10001896:	ab28      	add	r3, sp, #160	@ 0xa0
10001898:	189b      	adds	r3, r3, r2
1000189a:	5119      	str	r1, [r3, r4]
1000189c:	465e      	mov	r6, fp
1000189e:	239e      	movs	r3, #158	@ 0x9e
100018a0:	a928      	add	r1, sp, #160	@ 0xa0
100018a2:	1889      	adds	r1, r1, r2
100018a4:	54ce      	strb	r6, [r1, r3]
100018a6:	a928      	add	r1, sp, #160	@ 0xa0
100018a8:	188e      	adds	r6, r1, r2
100018aa:	a828      	add	r0, sp, #160	@ 0xa0
100018ac:	21d7      	movs	r1, #215	@ 0xd7
100018ae:	4684      	mov	ip, r0
100018b0:	00c9      	lsls	r1, r1, #3
100018b2:	4461      	add	r1, ip
100018b4:	3b0e      	subs	r3, #14
100018b6:	50f1      	str	r1, [r6, r3]
100018b8:	2309      	movs	r3, #9
100018ba:	269c      	movs	r6, #156	@ 0x9c
100018bc:	1881      	adds	r1, r0, r2
100018be:	538b      	strh	r3, [r1, r6]
100018c0:	980a      	ldr	r0, [sp, #40]	@ 0x28
100018c2:	f007 fd1b 	bl	100092fc <_ZN6tflite12ElementCountERK14TfLiteIntArray>
100018c6:	4680      	mov	r8, r0
100018c8:	4a3b      	ldr	r2, [pc, #236]	@ (100019b8 <main+0xb5c>)
100018ca:	a828      	add	r0, sp, #160	@ 0xa0
100018cc:	1880      	adds	r0, r0, r2
100018ce:	5d80      	ldrb	r0, [r0, r6]
100018d0:	f006 fc2a 	bl	10008128 <_ZN6tflite17TfLiteTypeGetSizeE10TfLiteType>
100018d4:	4646      	mov	r6, r8
100018d6:	2398      	movs	r3, #152	@ 0x98
100018d8:	4370      	muls	r0, r6
100018da:	4937      	ldr	r1, [pc, #220]	@ (100019b8 <main+0xb5c>)
100018dc:	ae28      	add	r6, sp, #160	@ 0xa0
100018de:	1872      	adds	r2, r6, r1
100018e0:	50d0      	str	r0, [r2, r3]
100018e2:	4a40      	ldr	r2, [pc, #256]	@ (100019e4 <main+0xb88>)
100018e4:	1870      	adds	r0, r6, r1
100018e6:	3b10      	subs	r3, #16
100018e8:	50c2      	str	r2, [r0, r3]
100018ea:	4650      	mov	r0, sl
100018ec:	000a      	movs	r2, r1
100018ee:	3304      	adds	r3, #4
100018f0:	1871      	adds	r1, r6, r1
100018f2:	50c8      	str	r0, [r1, r3]
100018f4:	4658      	mov	r0, fp
100018f6:	18b1      	adds	r1, r6, r2
100018f8:	5148      	str	r0, [r1, r5]
100018fa:	4650      	mov	r0, sl
100018fc:	25b6      	movs	r5, #182	@ 0xb6
100018fe:	46b4      	mov	ip, r6
10001900:	18b1      	adds	r1, r6, r2
10001902:	5108      	str	r0, [r1, r4]
10001904:	0014      	movs	r4, r2
10001906:	18b1      	adds	r1, r6, r2
10001908:	012d      	lsls	r5, r5, #4
1000190a:	9a10      	ldr	r2, [sp, #64]	@ 0x40
1000190c:	4465      	add	r5, ip
1000190e:	3328      	adds	r3, #40	@ 0x28
10001910:	50ca      	str	r2, [r1, r3]
10001912:	0028      	movs	r0, r5
10001914:	2208      	movs	r2, #8
10001916:	2100      	movs	r1, #0
10001918:	f003 fdc6 	bl	100054a8 <__wrap_memset>
1000191c:	a928      	add	r1, sp, #160	@ 0xa0
1000191e:	0022      	movs	r2, r4
10001920:	1909      	adds	r1, r1, r4
10001922:	26a0      	movs	r6, #160	@ 0xa0
10001924:	4654      	mov	r4, sl
10001926:	25a4      	movs	r5, #164	@ 0xa4
10001928:	23be      	movs	r3, #190	@ 0xbe
1000192a:	518c      	str	r4, [r1, r6]
1000192c:	a928      	add	r1, sp, #160	@ 0xa0
1000192e:	1889      	adds	r1, r1, r2
10001930:	514c      	str	r4, [r1, r5]
10001932:	a928      	add	r1, sp, #160	@ 0xa0
10001934:	1889      	adds	r1, r1, r2
10001936:	54cc      	strb	r4, [r1, r3]
10001938:	a928      	add	r1, sp, #160	@ 0xa0
1000193a:	1889      	adds	r1, r1, r2
1000193c:	3b0e      	subs	r3, #14
1000193e:	ac2f      	add	r4, sp, #188	@ 0xbc
10001940:	50cc      	str	r4, [r1, r3]
10001942:	21bc      	movs	r1, #188	@ 0xbc
10001944:	ac28      	add	r4, sp, #160	@ 0xa0
10001946:	18a4      	adds	r4, r4, r2
10001948:	3ba7      	subs	r3, #167	@ 0xa7
1000194a:	5263      	strh	r3, [r4, r1]
1000194c:	9810      	ldr	r0, [sp, #64]	@ 0x40
1000194e:	4688      	mov	r8, r1
10001950:	f007 fcd4 	bl	100092fc <_ZN6tflite12ElementCountERK14TfLiteIntArray>
10001954:	0004      	movs	r4, r0
10001956:	4640      	mov	r0, r8
10001958:	4a17      	ldr	r2, [pc, #92]	@ (100019b8 <main+0xb5c>)
1000195a:	ab28      	add	r3, sp, #160	@ 0xa0
1000195c:	189b      	adds	r3, r3, r2
1000195e:	5c18      	ldrb	r0, [r3, r0]
10001960:	f006 fbe2 	bl	10008128 <_ZN6tflite17TfLiteTypeGetSizeE10TfLiteType>
10001964:	23b8      	movs	r3, #184	@ 0xb8
10001966:	4360      	muls	r0, r4
10001968:	4913      	ldr	r1, [pc, #76]	@ (100019b8 <main+0xb5c>)
1000196a:	ac28      	add	r4, sp, #160	@ 0xa0
1000196c:	1862      	adds	r2, r4, r1
1000196e:	50d0      	str	r0, [r2, r3]
10001970:	4a0d      	ldr	r2, [pc, #52]	@ (100019a8 <main+0xb4c>)
10001972:	1860      	adds	r0, r4, r1
10001974:	3b10      	subs	r3, #16
10001976:	50c2      	str	r2, [r0, r3]
10001978:	4650      	mov	r0, sl
1000197a:	000a      	movs	r2, r1
1000197c:	3304      	adds	r3, #4
1000197e:	1861      	adds	r1, r4, r1
10001980:	50c8      	str	r0, [r1, r3]
10001982:	4659      	mov	r1, fp
10001984:	0013      	movs	r3, r2
10001986:	18a2      	adds	r2, r4, r2
10001988:	5191      	str	r1, [r2, r6]
1000198a:	21ae      	movs	r1, #174	@ 0xae
1000198c:	18e3      	adds	r3, r4, r3
1000198e:	5158      	str	r0, [r3, r5]
10001990:	23fa      	movs	r3, #250	@ 0xfa
10001992:	0089      	lsls	r1, r1, #2
10001994:	1862      	adds	r2, r4, r1
10001996:	7013      	strb	r3, [r2, #0]
10001998:	4b15      	ldr	r3, [pc, #84]	@ (100019f0 <main+0xb94>)
1000199a:	46a4      	mov	ip, r4
1000199c:	4698      	mov	r8, r3
1000199e:	4b15      	ldr	r3, [pc, #84]	@ (100019f4 <main+0xb98>)
100019a0:	4644      	mov	r4, r8
100019a2:	4463      	add	r3, ip
100019a4:	001d      	movs	r5, r3
100019a6:	e02e      	b.n	10001a06 <main+0xbaa>
100019a8:	3c010204 	.word	0x3c010204
100019ac:	00000aec 	.word	0x00000aec
100019b0:	00000ad8 	.word	0x00000ad8
100019b4:	00000adc 	.word	0x00000adc
100019b8:	00000ab8 	.word	0x00000ab8
100019bc:	00000ae8 	.word	0x00000ae8
100019c0:	00000af4 	.word	0x00000af4
100019c4:	00000ae4 	.word	0x00000ae4
100019c8:	10013af0 	.word	0x10013af0
100019cc:	00000b0c 	.word	0x00000b0c
100019d0:	00000af8 	.word	0x00000af8
100019d4:	00000afc 	.word	0x00000afc
100019d8:	00000b08 	.word	0x00000b08
100019dc:	00000b04 	.word	0x00000b04
100019e0:	00000b18 	.word	0x00000b18
100019e4:	3c4038c3 	.word	0x3c4038c3
100019e8:	000006b9 	.word	0x000006b9
100019ec:	10013870 	.word	0x10013870
100019f0:	10013710 	.word	0x10013710
100019f4:	000002b9 	.word	0x000002b9
100019f8:	207f      	movs	r0, #127	@ 0x7f
100019fa:	4b84      	ldr	r3, [pc, #528]	@ (10001c0c <main+0xdb0>)
100019fc:	3404      	adds	r4, #4
100019fe:	7028      	strb	r0, [r5, #0]
10001a00:	3501      	adds	r5, #1
10001a02:	429c      	cmp	r4, r3
10001a04:	d01a      	beq.n	10001a3c <main+0xbe0>
10001a06:	4982      	ldr	r1, [pc, #520]	@ (10001c10 <main+0xdb4>)
10001a08:	6820      	ldr	r0, [r4, #0]
10001a0a:	f003 fc14 	bl	10005236 <__wrap___aeabi_fdiv>
10001a0e:	f003 fc8f 	bl	10005330 <__wrap___aeabi_f2d>
10001a12:	f003 f8e9 	bl	10004be8 <__wrap_round>
10001a16:	2200      	movs	r2, #0
10001a18:	2300      	movs	r3, #0
10001a1a:	f002 ff95 	bl	10004948 <__wrap___aeabi_dadd>
10001a1e:	f003 f841 	bl	10004aa4 <__wrap___aeabi_d2iz>
10001a22:	287f      	cmp	r0, #127	@ 0x7f
10001a24:	dce8      	bgt.n	100019f8 <main+0xb9c>
10001a26:	0003      	movs	r3, r0
10001a28:	3380      	adds	r3, #128	@ 0x80
10001a2a:	dae6      	bge.n	100019fa <main+0xb9e>
10001a2c:	2080      	movs	r0, #128	@ 0x80
10001a2e:	4b77      	ldr	r3, [pc, #476]	@ (10001c0c <main+0xdb0>)
10001a30:	4240      	negs	r0, r0
10001a32:	3404      	adds	r4, #4
10001a34:	7028      	strb	r0, [r5, #0]
10001a36:	3501      	adds	r5, #1
10001a38:	429c      	cmp	r4, r3
10001a3a:	d1e4      	bne.n	10001a06 <main+0xbaa>
10001a3c:	2306      	movs	r3, #6
10001a3e:	aa28      	add	r2, sp, #160	@ 0xa0
10001a40:	4694      	mov	ip, r2
10001a42:	4e74      	ldr	r6, [pc, #464]	@ (10001c14 <main+0xdb8>)
10001a44:	703b      	strb	r3, [r7, #0]
10001a46:	33f3      	adds	r3, #243	@ 0xf3
10001a48:	4463      	add	r3, ip
10001a4a:	001d      	movs	r5, r3
10001a4c:	0034      	movs	r4, r6
10001a4e:	e006      	b.n	10001a5e <main+0xc02>
10001a50:	207f      	movs	r0, #127	@ 0x7f
10001a52:	4b71      	ldr	r3, [pc, #452]	@ (10001c18 <main+0xdbc>)
10001a54:	3404      	adds	r4, #4
10001a56:	7028      	strb	r0, [r5, #0]
10001a58:	3501      	adds	r5, #1
10001a5a:	429c      	cmp	r4, r3
10001a5c:	d01a      	beq.n	10001a94 <main+0xc38>
10001a5e:	496f      	ldr	r1, [pc, #444]	@ (10001c1c <main+0xdc0>)
10001a60:	6820      	ldr	r0, [r4, #0]
10001a62:	f003 fbe8 	bl	10005236 <__wrap___aeabi_fdiv>
10001a66:	f003 fc63 	bl	10005330 <__wrap___aeabi_f2d>
10001a6a:	f003 f8bd 	bl	10004be8 <__wrap_round>
10001a6e:	2200      	movs	r2, #0
10001a70:	2300      	movs	r3, #0
10001a72:	f002 ff69 	bl	10004948 <__wrap___aeabi_dadd>
10001a76:	f003 f815 	bl	10004aa4 <__wrap___aeabi_d2iz>
10001a7a:	287f      	cmp	r0, #127	@ 0x7f
10001a7c:	dce8      	bgt.n	10001a50 <main+0xbf4>
10001a7e:	0003      	movs	r3, r0
10001a80:	3380      	adds	r3, #128	@ 0x80
10001a82:	dae6      	bge.n	10001a52 <main+0xbf6>
10001a84:	2080      	movs	r0, #128	@ 0x80
10001a86:	4b64      	ldr	r3, [pc, #400]	@ (10001c18 <main+0xdbc>)
10001a88:	4240      	negs	r0, r0
10001a8a:	3404      	adds	r4, #4
10001a8c:	7028      	strb	r0, [r5, #0]
10001a8e:	3501      	adds	r5, #1
10001a90:	429c      	cmp	r4, r3
10001a92:	d1e4      	bne.n	10001a5e <main+0xc02>
10001a94:	ac28      	add	r4, sp, #160	@ 0xa0
10001a96:	46a4      	mov	ip, r4
10001a98:	4861      	ldr	r0, [pc, #388]	@ (10001c20 <main+0xdc4>)
10001a9a:	abd6      	add	r3, sp, #856	@ 0x358
10001a9c:	aa2f      	add	r2, sp, #188	@ 0xbc
10001a9e:	0039      	movs	r1, r7
10001aa0:	4460      	add	r0, ip
10001aa2:	f7fe fc77 	bl	10000394 <_ZN6tflite7testing12_GLOBAL__N_119ValidateSVDFGoldensIaEEviiiiP12TfLiteTensori21TfLiteFusedActivationPKT_iPS6_S8_f.constprop.0>
10001aa6:	465a      	mov	r2, fp
10001aa8:	9b06      	ldr	r3, [sp, #24]
10001aaa:	701a      	strb	r2, [r3, #0]
10001aac:	9b04      	ldr	r3, [sp, #16]
10001aae:	781b      	ldrb	r3, [r3, #0]
10001ab0:	2b00      	cmp	r3, #0
10001ab2:	d001      	beq.n	10001ab8 <main+0xc5c>
10001ab4:	f001 fab4 	bl	10003020 <main+0x21c4>
10001ab8:	2200      	movs	r2, #0
10001aba:	9b05      	ldr	r3, [sp, #20]
10001abc:	681b      	ldr	r3, [r3, #0]
10001abe:	3301      	adds	r3, #1
10001ac0:	9905      	ldr	r1, [sp, #20]
10001ac2:	9819      	ldr	r0, [sp, #100]	@ 0x64
10001ac4:	600b      	str	r3, [r1, #0]
10001ac6:	464b      	mov	r3, r9
10001ac8:	681b      	ldr	r3, [r3, #0]
10001aca:	2402      	movs	r4, #2
10001acc:	189b      	adds	r3, r3, r2
10001ace:	464a      	mov	r2, r9
10001ad0:	6013      	str	r3, [r2, #0]
10001ad2:	f007 fc01 	bl	100092d8 <_Z11MicroPrintfPKcz>
10001ad6:	4652      	mov	r2, sl
10001ad8:	9b06      	ldr	r3, [sp, #24]
10001ada:	a835      	add	r0, sp, #212	@ 0xd4
10001adc:	701a      	strb	r2, [r3, #0]
10001ade:	9b04      	ldr	r3, [sp, #16]
10001ae0:	9435      	str	r4, [sp, #212]	@ 0xd4
10001ae2:	701a      	strb	r2, [r3, #0]
10001ae4:	9436      	str	r4, [sp, #216]	@ 0xd8
10001ae6:	9437      	str	r4, [sp, #220]	@ 0xdc
10001ae8:	f007 fc7e 	bl	100093e8 <_ZN6tflite7testing16IntArrayFromIntsEPKi>
10001aec:	2508      	movs	r5, #8
10001aee:	ab38      	add	r3, sp, #224	@ 0xe0
10001af0:	9010      	str	r0, [sp, #64]	@ 0x40
10001af2:	0018      	movs	r0, r3
10001af4:	9438      	str	r4, [sp, #224]	@ 0xe0
10001af6:	9539      	str	r5, [sp, #228]	@ 0xe4
10001af8:	943a      	str	r4, [sp, #232]	@ 0xe8
10001afa:	f007 fc75 	bl	100093e8 <_ZN6tflite7testing16IntArrayFromIntsEPKi>
10001afe:	230a      	movs	r3, #10
10001b00:	933d      	str	r3, [sp, #244]	@ 0xf4
10001b02:	ab3b      	add	r3, sp, #236	@ 0xec
10001b04:	900a      	str	r0, [sp, #40]	@ 0x28
10001b06:	0018      	movs	r0, r3
10001b08:	943b      	str	r4, [sp, #236]	@ 0xec
10001b0a:	953c      	str	r5, [sp, #240]	@ 0xf0
10001b0c:	f007 fc6c 	bl	100093e8 <_ZN6tflite7testing16IntArrayFromIntsEPKi>
10001b10:	465b      	mov	r3, fp
10001b12:	9332      	str	r3, [sp, #200]	@ 0xc8
10001b14:	ab32      	add	r3, sp, #200	@ 0xc8
10001b16:	3d04      	subs	r5, #4
10001b18:	9012      	str	r0, [sp, #72]	@ 0x48
10001b1a:	0018      	movs	r0, r3
10001b1c:	9533      	str	r5, [sp, #204]	@ 0xcc
10001b1e:	f007 fc63 	bl	100093e8 <_ZN6tflite7testing16IntArrayFromIntsEPKi>
10001b22:	2350      	movs	r3, #80	@ 0x50
10001b24:	9340      	str	r3, [sp, #256]	@ 0x100
10001b26:	ab3e      	add	r3, sp, #248	@ 0xf8
10001b28:	9013      	str	r0, [sp, #76]	@ 0x4c
10001b2a:	0018      	movs	r0, r3
10001b2c:	943e      	str	r4, [sp, #248]	@ 0xf8
10001b2e:	943f      	str	r4, [sp, #252]	@ 0xfc
10001b30:	f007 fc5a 	bl	100093e8 <_ZN6tflite7testing16IntArrayFromIntsEPKi>
10001b34:	ab42      	add	r3, sp, #264	@ 0x108
10001b36:	9014      	str	r0, [sp, #80]	@ 0x50
10001b38:	0018      	movs	r0, r3
10001b3a:	9442      	str	r4, [sp, #264]	@ 0x108
10001b3c:	9443      	str	r4, [sp, #268]	@ 0x10c
10001b3e:	9544      	str	r5, [sp, #272]	@ 0x110
10001b40:	f007 fc52 	bl	100093e8 <_ZN6tflite7testing16IntArrayFromIntsEPKi>
10001b44:	aa28      	add	r2, sp, #160	@ 0xa0
10001b46:	4694      	mov	ip, r2
10001b48:	4b36      	ldr	r3, [pc, #216]	@ (10001c24 <main+0xdc8>)
10001b4a:	9c10      	ldr	r4, [sp, #64]	@ 0x40
10001b4c:	4463      	add	r3, ip
10001b4e:	601c      	str	r4, [r3, #0]
10001b50:	23d8      	movs	r3, #216	@ 0xd8
10001b52:	00db      	lsls	r3, r3, #3
10001b54:	4463      	add	r3, ip
10001b56:	2100      	movs	r1, #0
10001b58:	2208      	movs	r2, #8
10001b5a:	900f      	str	r0, [sp, #60]	@ 0x3c
10001b5c:	0018      	movs	r0, r3
10001b5e:	f003 fca3 	bl	100054a8 <__wrap_memset>
10001b62:	aa28      	add	r2, sp, #160	@ 0xa0
10001b64:	23d7      	movs	r3, #215	@ 0xd7
10001b66:	4694      	mov	ip, r2
10001b68:	4652      	mov	r2, sl
10001b6a:	00db      	lsls	r3, r3, #3
10001b6c:	4463      	add	r3, ip
10001b6e:	601a      	str	r2, [r3, #0]
10001b70:	4b2d      	ldr	r3, [pc, #180]	@ (10001c28 <main+0xdcc>)
10001b72:	4d2e      	ldr	r5, [pc, #184]	@ (10001c2c <main+0xdd0>)
10001b74:	4463      	add	r3, ip
10001b76:	601a      	str	r2, [r3, #0]
10001b78:	4663      	mov	r3, ip
10001b7a:	4a2d      	ldr	r2, [pc, #180]	@ (10001c30 <main+0xdd4>)
10001b7c:	0020      	movs	r0, r4
10001b7e:	189b      	adds	r3, r3, r2
10001b80:	4652      	mov	r2, sl
10001b82:	701a      	strb	r2, [r3, #0]
10001b84:	23d9      	movs	r3, #217	@ 0xd9
10001b86:	00db      	lsls	r3, r3, #3
10001b88:	4463      	add	r3, ip
10001b8a:	aa2d      	add	r2, sp, #180	@ 0xb4
10001b8c:	601a      	str	r2, [r3, #0]
10001b8e:	4663      	mov	r3, ip
10001b90:	2209      	movs	r2, #9
10001b92:	195b      	adds	r3, r3, r5
10001b94:	801a      	strh	r2, [r3, #0]
10001b96:	f007 fbb1 	bl	100092fc <_ZN6tflite12ElementCountERK14TfLiteIntArray>
10001b9a:	ab28      	add	r3, sp, #160	@ 0xa0
10001b9c:	195b      	adds	r3, r3, r5
10001b9e:	0004      	movs	r4, r0
10001ba0:	7818      	ldrb	r0, [r3, #0]
10001ba2:	f006 fac1 	bl	10008128 <_ZN6tflite17TfLiteTypeGetSizeE10TfLiteType>
10001ba6:	aa28      	add	r2, sp, #160	@ 0xa0
10001ba8:	23da      	movs	r3, #218	@ 0xda
10001baa:	4694      	mov	ip, r2
10001bac:	22d8      	movs	r2, #216	@ 0xd8
10001bae:	4360      	muls	r0, r4
10001bb0:	00db      	lsls	r3, r3, #3
10001bb2:	4463      	add	r3, ip
10001bb4:	6018      	str	r0, [r3, #0]
10001bb6:	00d2      	lsls	r2, r2, #3
10001bb8:	4b18      	ldr	r3, [pc, #96]	@ (10001c1c <main+0xdc0>)
10001bba:	4462      	add	r2, ip
10001bbc:	6013      	str	r3, [r2, #0]
10001bbe:	4652      	mov	r2, sl
10001bc0:	4b1c      	ldr	r3, [pc, #112]	@ (10001c34 <main+0xdd8>)
10001bc2:	980a      	ldr	r0, [sp, #40]	@ 0x28
10001bc4:	4463      	add	r3, ip
10001bc6:	601a      	str	r2, [r3, #0]
10001bc8:	23d7      	movs	r3, #215	@ 0xd7
10001bca:	465a      	mov	r2, fp
10001bcc:	00db      	lsls	r3, r3, #3
10001bce:	4463      	add	r3, ip
10001bd0:	601a      	str	r2, [r3, #0]
10001bd2:	4652      	mov	r2, sl
10001bd4:	4b14      	ldr	r3, [pc, #80]	@ (10001c28 <main+0xdcc>)
10001bd6:	4463      	add	r3, ip
10001bd8:	601a      	str	r2, [r3, #0]
10001bda:	f007 fb8f 	bl	100092fc <_ZN6tflite12ElementCountERK14TfLiteIntArray>
10001bde:	2800      	cmp	r0, #0
10001be0:	dd4d      	ble.n	10001c7e <main+0xe22>
10001be2:	2178      	movs	r1, #120	@ 0x78
10001be4:	23d7      	movs	r3, #215	@ 0xd7
10001be6:	aa28      	add	r2, sp, #160	@ 0xa0
10001be8:	1852      	adds	r2, r2, r1
10001bea:	7013      	strb	r3, [r2, #0]
10001bec:	aa28      	add	r2, sp, #160	@ 0xa0
10001bee:	4694      	mov	ip, r2
10001bf0:	3b5e      	subs	r3, #94	@ 0x5e
10001bf2:	4463      	add	r3, ip
10001bf4:	001c      	movs	r4, r3
10001bf6:	ab46      	add	r3, sp, #280	@ 0x118
10001bf8:	469c      	mov	ip, r3
10001bfa:	4484      	add	ip, r0
10001bfc:	4663      	mov	r3, ip
10001bfe:	4d0e      	ldr	r5, [pc, #56]	@ (10001c38 <main+0xddc>)
10001c00:	2801      	cmp	r0, #1
10001c02:	d03c      	beq.n	10001c7e <main+0xe22>
10001c04:	9610      	str	r6, [sp, #64]	@ 0x40
10001c06:	001e      	movs	r6, r3
10001c08:	e01e      	b.n	10001c48 <main+0xdec>
10001c0a:	46c0      	nop			@ (mov r8, r8)
10001c0c:	1001384c 	.word	0x1001384c
10001c10:	3c010204 	.word	0x3c010204
10001c14:	10013c70 	.word	0x10013c70
10001c18:	10013d0c 	.word	0x10013d0c
10001c1c:	3ca14285 	.word	0x3ca14285
10001c20:	00000ab8 	.word	0x00000ab8
10001c24:	000006cc 	.word	0x000006cc
10001c28:	000006bc 	.word	0x000006bc
10001c2c:	000006d4 	.word	0x000006d4
10001c30:	000006d6 	.word	0x000006d6
10001c34:	000006c4 	.word	0x000006c4
10001c38:	10013c30 	.word	0x10013c30
10001c3c:	207f      	movs	r0, #127	@ 0x7f
10001c3e:	7020      	strb	r0, [r4, #0]
10001c40:	3401      	adds	r4, #1
10001c42:	3504      	adds	r5, #4
10001c44:	42b4      	cmp	r4, r6
10001c46:	d019      	beq.n	10001c7c <main+0xe20>
10001c48:	4989      	ldr	r1, [pc, #548]	@ (10001e70 <main+0x1014>)
10001c4a:	6828      	ldr	r0, [r5, #0]
10001c4c:	f003 faf3 	bl	10005236 <__wrap___aeabi_fdiv>
10001c50:	f003 fb6e 	bl	10005330 <__wrap___aeabi_f2d>
10001c54:	f002 ffc8 	bl	10004be8 <__wrap_round>
10001c58:	2200      	movs	r2, #0
10001c5a:	2300      	movs	r3, #0
10001c5c:	f002 fe74 	bl	10004948 <__wrap___aeabi_dadd>
10001c60:	f002 ff20 	bl	10004aa4 <__wrap___aeabi_d2iz>
10001c64:	287f      	cmp	r0, #127	@ 0x7f
10001c66:	dce9      	bgt.n	10001c3c <main+0xde0>
10001c68:	0003      	movs	r3, r0
10001c6a:	3380      	adds	r3, #128	@ 0x80
10001c6c:	dae7      	bge.n	10001c3e <main+0xde2>
10001c6e:	2080      	movs	r0, #128	@ 0x80
10001c70:	4240      	negs	r0, r0
10001c72:	7020      	strb	r0, [r4, #0]
10001c74:	3401      	adds	r4, #1
10001c76:	3504      	adds	r5, #4
10001c78:	42b4      	cmp	r4, r6
10001c7a:	d1e5      	bne.n	10001c48 <main+0xdec>
10001c7c:	9e10      	ldr	r6, [sp, #64]	@ 0x40
10001c7e:	aa28      	add	r2, sp, #160	@ 0xa0
10001c80:	4694      	mov	ip, r2
10001c82:	4b7c      	ldr	r3, [pc, #496]	@ (10001e74 <main+0x1018>)
10001c84:	9c0a      	ldr	r4, [sp, #40]	@ 0x28
10001c86:	4463      	add	r3, ip
10001c88:	601c      	str	r4, [r3, #0]
10001c8a:	23dc      	movs	r3, #220	@ 0xdc
10001c8c:	00db      	lsls	r3, r3, #3
10001c8e:	4463      	add	r3, ip
10001c90:	2208      	movs	r2, #8
10001c92:	2100      	movs	r1, #0
10001c94:	0018      	movs	r0, r3
10001c96:	f003 fc07 	bl	100054a8 <__wrap_memset>
10001c9a:	aa28      	add	r2, sp, #160	@ 0xa0
10001c9c:	23db      	movs	r3, #219	@ 0xdb
10001c9e:	4694      	mov	ip, r2
10001ca0:	4652      	mov	r2, sl
10001ca2:	00db      	lsls	r3, r3, #3
10001ca4:	4463      	add	r3, ip
10001ca6:	601a      	str	r2, [r3, #0]
10001ca8:	4b73      	ldr	r3, [pc, #460]	@ (10001e78 <main+0x101c>)
10001caa:	25d7      	movs	r5, #215	@ 0xd7
10001cac:	4463      	add	r3, ip
10001cae:	601a      	str	r2, [r3, #0]
10001cb0:	4662      	mov	r2, ip
10001cb2:	4651      	mov	r1, sl
10001cb4:	233e      	movs	r3, #62	@ 0x3e
10001cb6:	00ed      	lsls	r5, r5, #3
10001cb8:	1952      	adds	r2, r2, r5
10001cba:	54d1      	strb	r1, [r2, r3]
10001cbc:	23dd      	movs	r3, #221	@ 0xdd
10001cbe:	00db      	lsls	r3, r3, #3
10001cc0:	4463      	add	r3, ip
10001cc2:	aa46      	add	r2, sp, #280	@ 0x118
10001cc4:	601a      	str	r2, [r3, #0]
10001cc6:	4663      	mov	r3, ip
10001cc8:	4a6c      	ldr	r2, [pc, #432]	@ (10001e7c <main+0x1020>)
10001cca:	0020      	movs	r0, r4
10001ccc:	189a      	adds	r2, r3, r2
10001cce:	2309      	movs	r3, #9
10001cd0:	8013      	strh	r3, [r2, #0]
10001cd2:	f007 fb13 	bl	100092fc <_ZN6tflite12ElementCountERK14TfLiteIntArray>
10001cd6:	233c      	movs	r3, #60	@ 0x3c
10001cd8:	aa28      	add	r2, sp, #160	@ 0xa0
10001cda:	1952      	adds	r2, r2, r5
10001cdc:	0004      	movs	r4, r0
10001cde:	5cd0      	ldrb	r0, [r2, r3]
10001ce0:	f006 fa22 	bl	10008128 <_ZN6tflite17TfLiteTypeGetSizeE10TfLiteType>
10001ce4:	ab28      	add	r3, sp, #160	@ 0xa0
10001ce6:	22de      	movs	r2, #222	@ 0xde
10001ce8:	469c      	mov	ip, r3
10001cea:	4360      	muls	r0, r4
10001cec:	00d2      	lsls	r2, r2, #3
10001cee:	4462      	add	r2, ip
10001cf0:	6010      	str	r0, [r2, #0]
10001cf2:	22dc      	movs	r2, #220	@ 0xdc
10001cf4:	4650      	mov	r0, sl
10001cf6:	495e      	ldr	r1, [pc, #376]	@ (10001e70 <main+0x1014>)
10001cf8:	00d2      	lsls	r2, r2, #3
10001cfa:	4462      	add	r2, ip
10001cfc:	6011      	str	r1, [r2, #0]
10001cfe:	4a60      	ldr	r2, [pc, #384]	@ (10001e80 <main+0x1024>)
10001d00:	4d60      	ldr	r5, [pc, #384]	@ (10001e84 <main+0x1028>)
10001d02:	4462      	add	r2, ip
10001d04:	6010      	str	r0, [r2, #0]
10001d06:	22db      	movs	r2, #219	@ 0xdb
10001d08:	4658      	mov	r0, fp
10001d0a:	00d2      	lsls	r2, r2, #3
10001d0c:	4462      	add	r2, ip
10001d0e:	6010      	str	r0, [r2, #0]
10001d10:	4650      	mov	r0, sl
10001d12:	4a59      	ldr	r2, [pc, #356]	@ (10001e78 <main+0x101c>)
10001d14:	9b12      	ldr	r3, [sp, #72]	@ 0x48
10001d16:	4462      	add	r2, ip
10001d18:	6010      	str	r0, [r2, #0]
10001d1a:	9001      	str	r0, [sp, #4]
10001d1c:	20df      	movs	r0, #223	@ 0xdf
10001d1e:	00c0      	lsls	r0, r0, #3
10001d20:	4460      	add	r0, ip
10001d22:	9917      	ldr	r1, [sp, #92]	@ 0x5c
10001d24:	9500      	str	r5, [sp, #0]
10001d26:	aad6      	add	r2, sp, #856	@ 0x358
10001d28:	f7fe fad4 	bl	100002d4 <_ZN6tflite7testing21CreateQuantizedTensorIsEE12TfLiteTensorPKfPT_P14TfLiteIntArrayfib10TfLiteType.constprop.0>
10001d2c:	9500      	str	r5, [sp, #0]
10001d2e:	20e3      	movs	r0, #227	@ 0xe3
10001d30:	ad28      	add	r5, sp, #160	@ 0xa0
10001d32:	46ac      	mov	ip, r5
10001d34:	4652      	mov	r2, sl
10001d36:	4c54      	ldr	r4, [pc, #336]	@ (10001e88 <main+0x102c>)
10001d38:	00c0      	lsls	r0, r0, #3
10001d3a:	4460      	add	r0, ip
10001d3c:	9b13      	ldr	r3, [sp, #76]	@ 0x4c
10001d3e:	9911      	ldr	r1, [sp, #68]	@ 0x44
10001d40:	9202      	str	r2, [sp, #8]
10001d42:	9401      	str	r4, [sp, #4]
10001d44:	aa56      	add	r2, sp, #344	@ 0x158
10001d46:	f7ff f829 	bl	10000d9c <_ZN6tflite7testing25CreateQuantizedBiasTensorIlEE12TfLiteTensorPKfPT_P14TfLiteIntArrayffb>
10001d4a:	2201      	movs	r2, #1
10001d4c:	20e7      	movs	r0, #231	@ 0xe7
10001d4e:	46ac      	mov	ip, r5
10001d50:	9201      	str	r2, [sp, #4]
10001d52:	4a4e      	ldr	r2, [pc, #312]	@ (10001e8c <main+0x1030>)
10001d54:	9400      	str	r4, [sp, #0]
10001d56:	00c0      	lsls	r0, r0, #3
10001d58:	002c      	movs	r4, r5
10001d5a:	25d7      	movs	r5, #215	@ 0xd7
10001d5c:	4462      	add	r2, ip
10001d5e:	4460      	add	r0, ip
10001d60:	9b14      	ldr	r3, [sp, #80]	@ 0x50
10001d62:	9916      	ldr	r1, [sp, #88]	@ 0x58
10001d64:	f7fe fab6 	bl	100002d4 <_ZN6tflite7testing21CreateQuantizedTensorIsEE12TfLiteTensorPKfPT_P14TfLiteIntArrayfib10TfLiteType.constprop.0>
10001d68:	23b4      	movs	r3, #180	@ 0xb4
10001d6a:	9a0f      	ldr	r2, [sp, #60]	@ 0x3c
10001d6c:	00ed      	lsls	r5, r5, #3
10001d6e:	1964      	adds	r4, r4, r5
10001d70:	50e2      	str	r2, [r4, r3]
10001d72:	ab28      	add	r3, sp, #160	@ 0xa0
10001d74:	24ec      	movs	r4, #236	@ 0xec
10001d76:	469c      	mov	ip, r3
10001d78:	00e4      	lsls	r4, r4, #3
10001d7a:	4464      	add	r4, ip
10001d7c:	2208      	movs	r2, #8
10001d7e:	2100      	movs	r1, #0
10001d80:	0020      	movs	r0, r4
10001d82:	f003 fb91 	bl	100054a8 <__wrap_memset>
10001d86:	a828      	add	r0, sp, #160	@ 0xa0
10001d88:	002a      	movs	r2, r5
10001d8a:	24a0      	movs	r4, #160	@ 0xa0
10001d8c:	1945      	adds	r5, r0, r5
10001d8e:	4650      	mov	r0, sl
10001d90:	4653      	mov	r3, sl
10001d92:	5128      	str	r0, [r5, r4]
10001d94:	25a4      	movs	r5, #164	@ 0xa4
10001d96:	a828      	add	r0, sp, #160	@ 0xa0
10001d98:	1880      	adds	r0, r0, r2
10001d9a:	5143      	str	r3, [r0, r5]
10001d9c:	4651      	mov	r1, sl
10001d9e:	23be      	movs	r3, #190	@ 0xbe
10001da0:	a828      	add	r0, sp, #160	@ 0xa0
10001da2:	1880      	adds	r0, r0, r2
10001da4:	54c1      	strb	r1, [r0, r3]
10001da6:	a828      	add	r0, sp, #160	@ 0xa0
10001da8:	1880      	adds	r0, r0, r2
10001daa:	3b0e      	subs	r3, #14
10001dac:	a92f      	add	r1, sp, #188	@ 0xbc
10001dae:	50c1      	str	r1, [r0, r3]
10001db0:	20bc      	movs	r0, #188	@ 0xbc
10001db2:	a928      	add	r1, sp, #160	@ 0xa0
10001db4:	1889      	adds	r1, r1, r2
10001db6:	3ba7      	subs	r3, #167	@ 0xa7
10001db8:	520b      	strh	r3, [r1, r0]
10001dba:	980f      	ldr	r0, [sp, #60]	@ 0x3c
10001dbc:	f007 fa9e 	bl	100092fc <_ZN6tflite12ElementCountERK14TfLiteIntArray>
10001dc0:	22d7      	movs	r2, #215	@ 0xd7
10001dc2:	23bc      	movs	r3, #188	@ 0xbc
10001dc4:	a928      	add	r1, sp, #160	@ 0xa0
10001dc6:	00d2      	lsls	r2, r2, #3
10001dc8:	900a      	str	r0, [sp, #40]	@ 0x28
10001dca:	1888      	adds	r0, r1, r2
10001dcc:	5cc0      	ldrb	r0, [r0, r3]
10001dce:	f006 f9ab 	bl	10008128 <_ZN6tflite17TfLiteTypeGetSizeE10TfLiteType>
10001dd2:	9b0a      	ldr	r3, [sp, #40]	@ 0x28
10001dd4:	22d7      	movs	r2, #215	@ 0xd7
10001dd6:	4358      	muls	r0, r3
10001dd8:	23b8      	movs	r3, #184	@ 0xb8
10001dda:	00d2      	lsls	r2, r2, #3
10001ddc:	a928      	add	r1, sp, #160	@ 0xa0
10001dde:	1889      	adds	r1, r1, r2
10001de0:	50c8      	str	r0, [r1, r3]
10001de2:	0008      	movs	r0, r1
10001de4:	4922      	ldr	r1, [pc, #136]	@ (10001e70 <main+0x1014>)
10001de6:	3b10      	subs	r3, #16
10001de8:	50c1      	str	r1, [r0, r3]
10001dea:	0001      	movs	r1, r0
10001dec:	4650      	mov	r0, sl
10001dee:	3304      	adds	r3, #4
10001df0:	50c8      	str	r0, [r1, r3]
10001df2:	000b      	movs	r3, r1
10001df4:	4659      	mov	r1, fp
10001df6:	5119      	str	r1, [r3, r4]
10001df8:	21dc      	movs	r1, #220	@ 0xdc
10001dfa:	ab28      	add	r3, sp, #160	@ 0xa0
10001dfc:	189b      	adds	r3, r3, r2
10001dfe:	5158      	str	r0, [r3, r5]
10001e00:	23fa      	movs	r3, #250	@ 0xfa
10001e02:	aa28      	add	r2, sp, #160	@ 0xa0
10001e04:	0049      	lsls	r1, r1, #1
10001e06:	1852      	adds	r2, r2, r1
10001e08:	7013      	strb	r3, [r2, #0]
10001e0a:	23ba      	movs	r3, #186	@ 0xba
10001e0c:	aa28      	add	r2, sp, #160	@ 0xa0
10001e0e:	4694      	mov	ip, r2
10001e10:	33ff      	adds	r3, #255	@ 0xff
10001e12:	4463      	add	r3, ip
10001e14:	001c      	movs	r4, r3
10001e16:	4645      	mov	r5, r8
10001e18:	e006      	b.n	10001e28 <main+0xfcc>
10001e1a:	207f      	movs	r0, #127	@ 0x7f
10001e1c:	4b1c      	ldr	r3, [pc, #112]	@ (10001e90 <main+0x1034>)
10001e1e:	3504      	adds	r5, #4
10001e20:	7020      	strb	r0, [r4, #0]
10001e22:	3401      	adds	r4, #1
10001e24:	429d      	cmp	r5, r3
10001e26:	d01a      	beq.n	10001e5e <main+0x1002>
10001e28:	4911      	ldr	r1, [pc, #68]	@ (10001e70 <main+0x1014>)
10001e2a:	6828      	ldr	r0, [r5, #0]
10001e2c:	f003 fa03 	bl	10005236 <__wrap___aeabi_fdiv>
10001e30:	f003 fa7e 	bl	10005330 <__wrap___aeabi_f2d>
10001e34:	f002 fed8 	bl	10004be8 <__wrap_round>
10001e38:	2200      	movs	r2, #0
10001e3a:	2300      	movs	r3, #0
10001e3c:	f002 fd84 	bl	10004948 <__wrap___aeabi_dadd>
10001e40:	f002 fe30 	bl	10004aa4 <__wrap___aeabi_d2iz>
10001e44:	287f      	cmp	r0, #127	@ 0x7f
10001e46:	dce8      	bgt.n	10001e1a <main+0xfbe>
10001e48:	0003      	movs	r3, r0
10001e4a:	3380      	adds	r3, #128	@ 0x80
10001e4c:	dae6      	bge.n	10001e1c <main+0xfc0>
10001e4e:	2080      	movs	r0, #128	@ 0x80
10001e50:	4b0f      	ldr	r3, [pc, #60]	@ (10001e90 <main+0x1034>)
10001e52:	4240      	negs	r0, r0
10001e54:	3504      	adds	r5, #4
10001e56:	7020      	strb	r0, [r4, #0]
10001e58:	3401      	adds	r4, #1
10001e5a:	429d      	cmp	r5, r3
10001e5c:	d1e4      	bne.n	10001e28 <main+0xfcc>
10001e5e:	2306      	movs	r3, #6
10001e60:	aa28      	add	r2, sp, #160	@ 0xa0
10001e62:	4694      	mov	ip, r2
10001e64:	703b      	strb	r3, [r7, #0]
10001e66:	33f3      	adds	r3, #243	@ 0xf3
10001e68:	4463      	add	r3, ip
10001e6a:	001c      	movs	r4, r3
10001e6c:	e019      	b.n	10001ea2 <main+0x1046>
10001e6e:	46c0      	nop			@ (mov r8, r8)
10001e70:	3c010204 	.word	0x3c010204
10001e74:	000006ec 	.word	0x000006ec
10001e78:	000006dc 	.word	0x000006dc
10001e7c:	000006f4 	.word	0x000006f4
10001e80:	000006e4 	.word	0x000006e4
10001e84:	38000100 	.word	0x38000100
10001e88:	383eb9cf 	.word	0x383eb9cf
10001e8c:	00000ab8 	.word	0x00000ab8
10001e90:	1001384c 	.word	0x1001384c
10001e94:	207f      	movs	r0, #127	@ 0x7f
10001e96:	4be8      	ldr	r3, [pc, #928]	@ (10002238 <main+0x13dc>)
10001e98:	3604      	adds	r6, #4
10001e9a:	7020      	strb	r0, [r4, #0]
10001e9c:	3401      	adds	r4, #1
10001e9e:	429e      	cmp	r6, r3
10001ea0:	d01a      	beq.n	10001ed8 <main+0x107c>
10001ea2:	49e6      	ldr	r1, [pc, #920]	@ (1000223c <main+0x13e0>)
10001ea4:	6830      	ldr	r0, [r6, #0]
10001ea6:	f003 f9c6 	bl	10005236 <__wrap___aeabi_fdiv>
10001eaa:	f003 fa41 	bl	10005330 <__wrap___aeabi_f2d>
10001eae:	f002 fe9b 	bl	10004be8 <__wrap_round>
10001eb2:	2200      	movs	r2, #0
10001eb4:	2300      	movs	r3, #0
10001eb6:	f002 fd47 	bl	10004948 <__wrap___aeabi_dadd>
10001eba:	f002 fdf3 	bl	10004aa4 <__wrap___aeabi_d2iz>
10001ebe:	287f      	cmp	r0, #127	@ 0x7f
10001ec0:	dce8      	bgt.n	10001e94 <main+0x1038>
10001ec2:	0003      	movs	r3, r0
10001ec4:	3380      	adds	r3, #128	@ 0x80
10001ec6:	dae6      	bge.n	10001e96 <main+0x103a>
10001ec8:	2080      	movs	r0, #128	@ 0x80
10001eca:	4bdb      	ldr	r3, [pc, #876]	@ (10002238 <main+0x13dc>)
10001ecc:	4240      	negs	r0, r0
10001ece:	3604      	adds	r6, #4
10001ed0:	7020      	strb	r0, [r4, #0]
10001ed2:	3401      	adds	r4, #1
10001ed4:	429e      	cmp	r6, r3
10001ed6:	d1e4      	bne.n	10001ea2 <main+0x1046>
10001ed8:	20d7      	movs	r0, #215	@ 0xd7
10001eda:	ac28      	add	r4, sp, #160	@ 0xa0
10001edc:	46a4      	mov	ip, r4
10001ede:	00c0      	lsls	r0, r0, #3
10001ee0:	ab96      	add	r3, sp, #600	@ 0x258
10001ee2:	aa2f      	add	r2, sp, #188	@ 0xbc
10001ee4:	0039      	movs	r1, r7
10001ee6:	4460      	add	r0, ip
10001ee8:	f7fe fa54 	bl	10000394 <_ZN6tflite7testing12_GLOBAL__N_119ValidateSVDFGoldensIaEEviiiiP12TfLiteTensori21TfLiteFusedActivationPKT_iPS6_S8_f.constprop.0>
10001eec:	465a      	mov	r2, fp
10001eee:	9b06      	ldr	r3, [sp, #24]
10001ef0:	701a      	strb	r2, [r3, #0]
10001ef2:	9b04      	ldr	r3, [sp, #16]
10001ef4:	781b      	ldrb	r3, [r3, #0]
10001ef6:	2b00      	cmp	r3, #0
10001ef8:	d001      	beq.n	10001efe <main+0x10a2>
10001efa:	f001 f8b1 	bl	10003060 <main+0x2204>
10001efe:	2200      	movs	r2, #0
10001f00:	9b05      	ldr	r3, [sp, #20]
10001f02:	681b      	ldr	r3, [r3, #0]
10001f04:	3301      	adds	r3, #1
10001f06:	9e05      	ldr	r6, [sp, #20]
10001f08:	981a      	ldr	r0, [sp, #104]	@ 0x68
10001f0a:	6033      	str	r3, [r6, #0]
10001f0c:	464b      	mov	r3, r9
10001f0e:	681b      	ldr	r3, [r3, #0]
10001f10:	189b      	adds	r3, r3, r2
10001f12:	464a      	mov	r2, r9
10001f14:	6013      	str	r3, [r2, #0]
10001f16:	f007 f9df 	bl	100092d8 <_Z11MicroPrintfPKcz>
10001f1a:	4653      	mov	r3, sl
10001f1c:	a828      	add	r0, sp, #160	@ 0xa0
10001f1e:	4684      	mov	ip, r0
10001f20:	2280      	movs	r2, #128	@ 0x80
10001f22:	9c06      	ldr	r4, [sp, #24]
10001f24:	9d04      	ldr	r5, [sp, #16]
10001f26:	7023      	strb	r3, [r4, #0]
10001f28:	702b      	strb	r3, [r5, #0]
10001f2a:	4bc5      	ldr	r3, [pc, #788]	@ (10002240 <main+0x13e4>)
10001f2c:	9908      	ldr	r1, [sp, #32]
10001f2e:	4463      	add	r3, ip
10001f30:	0018      	movs	r0, r3
10001f32:	0112      	lsls	r2, r2, #4
10001f34:	f003 fabe 	bl	100054b4 <__wrap___aeabi_memcpy>
10001f38:	9b1b      	ldr	r3, [sp, #108]	@ 0x6c
10001f3a:	aa28      	add	r2, sp, #160	@ 0xa0
10001f3c:	9300      	str	r3, [sp, #0]
10001f3e:	23d7      	movs	r3, #215	@ 0xd7
10001f40:	4694      	mov	ip, r2
10001f42:	4abf      	ldr	r2, [pc, #764]	@ (10002240 <main+0x13e4>)
10001f44:	00db      	lsls	r3, r3, #3
10001f46:	4463      	add	r3, ip
10001f48:	2000      	movs	r0, #0
10001f4a:	4462      	add	r2, ip
10001f4c:	a9d6      	add	r1, sp, #856	@ 0x358
10001f4e:	f7fe fd4b 	bl	100009e8 <_ZN6tflite7testing12_GLOBAL__N_18TestSVDFEiiiii21TfLiteFusedActivationPfPKfS5_S3_S5_S3_S3_S5_iS5_f.constprop.0>
10001f52:	465b      	mov	r3, fp
10001f54:	7023      	strb	r3, [r4, #0]
10001f56:	782b      	ldrb	r3, [r5, #0]
10001f58:	2b00      	cmp	r3, #0
10001f5a:	d001      	beq.n	10001f60 <main+0x1104>
10001f5c:	f001 f87b 	bl	10003056 <main+0x21fa>
10001f60:	2200      	movs	r2, #0
10001f62:	6833      	ldr	r3, [r6, #0]
10001f64:	3301      	adds	r3, #1
10001f66:	9e05      	ldr	r6, [sp, #20]
10001f68:	981c      	ldr	r0, [sp, #112]	@ 0x70
10001f6a:	6033      	str	r3, [r6, #0]
10001f6c:	464b      	mov	r3, r9
10001f6e:	681b      	ldr	r3, [r3, #0]
10001f70:	189b      	adds	r3, r3, r2
10001f72:	464a      	mov	r2, r9
10001f74:	6013      	str	r3, [r2, #0]
10001f76:	f007 f9af 	bl	100092d8 <_Z11MicroPrintfPKcz>
10001f7a:	4653      	mov	r3, sl
10001f7c:	a828      	add	r0, sp, #160	@ 0xa0
10001f7e:	4684      	mov	ip, r0
10001f80:	2280      	movs	r2, #128	@ 0x80
10001f82:	9c06      	ldr	r4, [sp, #24]
10001f84:	9d04      	ldr	r5, [sp, #16]
10001f86:	7023      	strb	r3, [r4, #0]
10001f88:	702b      	strb	r3, [r5, #0]
10001f8a:	4bad      	ldr	r3, [pc, #692]	@ (10002240 <main+0x13e4>)
10001f8c:	9908      	ldr	r1, [sp, #32]
10001f8e:	4463      	add	r3, ip
10001f90:	0018      	movs	r0, r3
10001f92:	0112      	lsls	r2, r2, #4
10001f94:	f003 fa8e 	bl	100054b4 <__wrap___aeabi_memcpy>
10001f98:	9b1d      	ldr	r3, [sp, #116]	@ 0x74
10001f9a:	aa28      	add	r2, sp, #160	@ 0xa0
10001f9c:	9300      	str	r3, [sp, #0]
10001f9e:	23d7      	movs	r3, #215	@ 0xd7
10001fa0:	4694      	mov	ip, r2
10001fa2:	4aa7      	ldr	r2, [pc, #668]	@ (10002240 <main+0x13e4>)
10001fa4:	00db      	lsls	r3, r3, #3
10001fa6:	4463      	add	r3, ip
10001fa8:	2001      	movs	r0, #1
10001faa:	4462      	add	r2, ip
10001fac:	a9d6      	add	r1, sp, #856	@ 0x358
10001fae:	f7fe fd1b 	bl	100009e8 <_ZN6tflite7testing12_GLOBAL__N_18TestSVDFEiiiii21TfLiteFusedActivationPfPKfS5_S3_S5_S3_S3_S5_iS5_f.constprop.0>
10001fb2:	465b      	mov	r3, fp
10001fb4:	7023      	strb	r3, [r4, #0]
10001fb6:	782b      	ldrb	r3, [r5, #0]
10001fb8:	2b00      	cmp	r3, #0
10001fba:	d001      	beq.n	10001fc0 <main+0x1164>
10001fbc:	f001 f846 	bl	1000304c <main+0x21f0>
10001fc0:	2200      	movs	r2, #0
10001fc2:	6833      	ldr	r3, [r6, #0]
10001fc4:	3301      	adds	r3, #1
10001fc6:	9905      	ldr	r1, [sp, #20]
10001fc8:	981e      	ldr	r0, [sp, #120]	@ 0x78
10001fca:	600b      	str	r3, [r1, #0]
10001fcc:	464b      	mov	r3, r9
10001fce:	681b      	ldr	r3, [r3, #0]
10001fd0:	2402      	movs	r4, #2
10001fd2:	189b      	adds	r3, r3, r2
10001fd4:	464a      	mov	r2, r9
10001fd6:	6013      	str	r3, [r2, #0]
10001fd8:	f007 f97e 	bl	100092d8 <_Z11MicroPrintfPKcz>
10001fdc:	4652      	mov	r2, sl
10001fde:	9b06      	ldr	r3, [sp, #24]
10001fe0:	a82f      	add	r0, sp, #188	@ 0xbc
10001fe2:	701a      	strb	r2, [r3, #0]
10001fe4:	9b04      	ldr	r3, [sp, #16]
10001fe6:	942f      	str	r4, [sp, #188]	@ 0xbc
10001fe8:	701a      	strb	r2, [r3, #0]
10001fea:	465b      	mov	r3, fp
10001fec:	9330      	str	r3, [sp, #192]	@ 0xc0
10001fee:	2310      	movs	r3, #16
10001ff0:	4698      	mov	r8, r3
10001ff2:	9331      	str	r3, [sp, #196]	@ 0xc4
10001ff4:	f007 f9f8 	bl	100093e8 <_ZN6tflite7testing16IntArrayFromIntsEPKi>
10001ff8:	2640      	movs	r6, #64	@ 0x40
10001ffa:	4643      	mov	r3, r8
10001ffc:	0005      	movs	r5, r0
10001ffe:	a832      	add	r0, sp, #200	@ 0xc8
10002000:	9334      	str	r3, [sp, #208]	@ 0xd0
10002002:	9432      	str	r4, [sp, #200]	@ 0xc8
10002004:	9633      	str	r6, [sp, #204]	@ 0xcc
10002006:	f007 f9ef 	bl	100093e8 <_ZN6tflite7testing16IntArrayFromIntsEPKi>
1000200a:	2308      	movs	r3, #8
1000200c:	4680      	mov	r8, r0
1000200e:	a835      	add	r0, sp, #212	@ 0xd4
10002010:	9337      	str	r3, [sp, #220]	@ 0xdc
10002012:	9435      	str	r4, [sp, #212]	@ 0xd4
10002014:	9636      	str	r6, [sp, #216]	@ 0xd8
10002016:	f007 f9e7 	bl	100093e8 <_ZN6tflite7testing16IntArrayFromIntsEPKi>
1000201a:	465b      	mov	r3, fp
1000201c:	900f      	str	r0, [sp, #60]	@ 0x3c
1000201e:	a82d      	add	r0, sp, #180	@ 0xb4
10002020:	932d      	str	r3, [sp, #180]	@ 0xb4
10002022:	962e      	str	r6, [sp, #184]	@ 0xb8
10002024:	f007 f9e0 	bl	100093e8 <_ZN6tflite7testing16IntArrayFromIntsEPKi>
10002028:	465b      	mov	r3, fp
1000202a:	9339      	str	r3, [sp, #228]	@ 0xe4
1000202c:	2380      	movs	r3, #128	@ 0x80
1000202e:	9010      	str	r0, [sp, #64]	@ 0x40
10002030:	009b      	lsls	r3, r3, #2
10002032:	a838      	add	r0, sp, #224	@ 0xe0
10002034:	933a      	str	r3, [sp, #232]	@ 0xe8
10002036:	9438      	str	r4, [sp, #224]	@ 0xe0
10002038:	f007 f9d6 	bl	100093e8 <_ZN6tflite7testing16IntArrayFromIntsEPKi>
1000203c:	465b      	mov	r3, fp
1000203e:	900a      	str	r0, [sp, #40]	@ 0x28
10002040:	a83b      	add	r0, sp, #236	@ 0xec
10002042:	933c      	str	r3, [sp, #240]	@ 0xf0
10002044:	943b      	str	r4, [sp, #236]	@ 0xec
10002046:	963d      	str	r6, [sp, #244]	@ 0xf4
10002048:	f007 f9ce 	bl	100093e8 <_ZN6tflite7testing16IntArrayFromIntsEPKi>
1000204c:	2208      	movs	r2, #8
1000204e:	2100      	movs	r1, #0
10002050:	9012      	str	r0, [sp, #72]	@ 0x48
10002052:	617d      	str	r5, [r7, #20]
10002054:	a868      	add	r0, sp, #416	@ 0x1a0
10002056:	f003 fa27 	bl	100054a8 <__wrap_memset>
1000205a:	4653      	mov	r3, sl
1000205c:	603b      	str	r3, [r7, #0]
1000205e:	607b      	str	r3, [r7, #4]
10002060:	77bb      	strb	r3, [r7, #30]
10002062:	ab3e      	add	r3, sp, #248	@ 0xf8
10002064:	613b      	str	r3, [r7, #16]
10002066:	2309      	movs	r3, #9
10002068:	0028      	movs	r0, r5
1000206a:	83bb      	strh	r3, [r7, #28]
1000206c:	f007 f946 	bl	100092fc <_ZN6tflite12ElementCountERK14TfLiteIntArray>
10002070:	0005      	movs	r5, r0
10002072:	7f38      	ldrb	r0, [r7, #28]
10002074:	f006 f858 	bl	10008128 <_ZN6tflite17TfLiteTypeGetSizeE10TfLiteType>
10002078:	4b72      	ldr	r3, [pc, #456]	@ (10002244 <main+0x13e8>)
1000207a:	4368      	muls	r0, r5
1000207c:	60bb      	str	r3, [r7, #8]
1000207e:	465b      	mov	r3, fp
10002080:	603b      	str	r3, [r7, #0]
10002082:	4653      	mov	r3, sl
10002084:	61b8      	str	r0, [r7, #24]
10002086:	60fc      	str	r4, [r7, #12]
10002088:	4640      	mov	r0, r8
1000208a:	607b      	str	r3, [r7, #4]
1000208c:	f007 f936 	bl	100092fc <_ZN6tflite12ElementCountERK14TfLiteIntArray>
10002090:	2800      	cmp	r0, #0
10002092:	dd30      	ble.n	100020f6 <main+0x129a>
10002094:	231b      	movs	r3, #27
10002096:	496a      	ldr	r1, [pc, #424]	@ (10002240 <main+0x13e4>)
10002098:	aa28      	add	r2, sp, #160	@ 0xa0
1000209a:	1852      	adds	r2, r2, r1
1000209c:	7013      	strb	r3, [r2, #0]
1000209e:	aa28      	add	r2, sp, #160	@ 0xa0
100020a0:	4694      	mov	ip, r2
100020a2:	4b69      	ldr	r3, [pc, #420]	@ (10002248 <main+0x13ec>)
100020a4:	9d0c      	ldr	r5, [sp, #48]	@ 0x30
100020a6:	4463      	add	r3, ip
100020a8:	001c      	movs	r4, r3
100020aa:	000b      	movs	r3, r1
100020ac:	4463      	add	r3, ip
100020ae:	181e      	adds	r6, r3, r0
100020b0:	2801      	cmp	r0, #1
100020b2:	d106      	bne.n	100020c2 <main+0x1266>
100020b4:	e01f      	b.n	100020f6 <main+0x129a>
100020b6:	207f      	movs	r0, #127	@ 0x7f
100020b8:	7020      	strb	r0, [r4, #0]
100020ba:	3401      	adds	r4, #1
100020bc:	3504      	adds	r5, #4
100020be:	42b4      	cmp	r4, r6
100020c0:	d019      	beq.n	100020f6 <main+0x129a>
100020c2:	4962      	ldr	r1, [pc, #392]	@ (1000224c <main+0x13f0>)
100020c4:	6828      	ldr	r0, [r5, #0]
100020c6:	f003 f8b6 	bl	10005236 <__wrap___aeabi_fdiv>
100020ca:	f003 f931 	bl	10005330 <__wrap___aeabi_f2d>
100020ce:	f002 fd8b 	bl	10004be8 <__wrap_round>
100020d2:	2200      	movs	r2, #0
100020d4:	2300      	movs	r3, #0
100020d6:	f002 fc37 	bl	10004948 <__wrap___aeabi_dadd>
100020da:	f002 fce3 	bl	10004aa4 <__wrap___aeabi_d2iz>
100020de:	287f      	cmp	r0, #127	@ 0x7f
100020e0:	dce9      	bgt.n	100020b6 <main+0x125a>
100020e2:	0003      	movs	r3, r0
100020e4:	3380      	adds	r3, #128	@ 0x80
100020e6:	dae7      	bge.n	100020b8 <main+0x125c>
100020e8:	2080      	movs	r0, #128	@ 0x80
100020ea:	4240      	negs	r0, r0
100020ec:	7020      	strb	r0, [r4, #0]
100020ee:	3401      	adds	r4, #1
100020f0:	3504      	adds	r5, #4
100020f2:	42b4      	cmp	r4, r6
100020f4:	d1e5      	bne.n	100020c2 <main+0x1266>
100020f6:	4643      	mov	r3, r8
100020f8:	2100      	movs	r1, #0
100020fa:	2208      	movs	r2, #8
100020fc:	637b      	str	r3, [r7, #52]	@ 0x34
100020fe:	a870      	add	r0, sp, #448	@ 0x1c0
10002100:	f003 f9d2 	bl	100054a8 <__wrap_memset>
10002104:	4653      	mov	r3, sl
10002106:	4652      	mov	r2, sl
10002108:	623b      	str	r3, [r7, #32]
1000210a:	627b      	str	r3, [r7, #36]	@ 0x24
1000210c:	233e      	movs	r3, #62	@ 0x3e
1000210e:	54fa      	strb	r2, [r7, r3]
10002110:	aa28      	add	r2, sp, #160	@ 0xa0
10002112:	4694      	mov	ip, r2
10002114:	4b4a      	ldr	r3, [pc, #296]	@ (10002240 <main+0x13e4>)
10002116:	4640      	mov	r0, r8
10002118:	4463      	add	r3, ip
1000211a:	633b      	str	r3, [r7, #48]	@ 0x30
1000211c:	2309      	movs	r3, #9
1000211e:	87bb      	strh	r3, [r7, #60]	@ 0x3c
10002120:	f007 f8ec 	bl	100092fc <_ZN6tflite12ElementCountERK14TfLiteIntArray>
10002124:	233c      	movs	r3, #60	@ 0x3c
10002126:	0004      	movs	r4, r0
10002128:	5cf8      	ldrb	r0, [r7, r3]
1000212a:	f005 fffd 	bl	10008128 <_ZN6tflite17TfLiteTypeGetSizeE10TfLiteType>
1000212e:	4b47      	ldr	r3, [pc, #284]	@ (1000224c <main+0x13f0>)
10002130:	4360      	muls	r0, r4
10002132:	62bb      	str	r3, [r7, #40]	@ 0x28
10002134:	4653      	mov	r3, sl
10002136:	62fb      	str	r3, [r7, #44]	@ 0x2c
10002138:	465b      	mov	r3, fp
1000213a:	623b      	str	r3, [r7, #32]
1000213c:	4653      	mov	r3, sl
1000213e:	63b8      	str	r0, [r7, #56]	@ 0x38
10002140:	627b      	str	r3, [r7, #36]	@ 0x24
10002142:	980f      	ldr	r0, [sp, #60]	@ 0x3c
10002144:	f007 f8da 	bl	100092fc <_ZN6tflite12ElementCountERK14TfLiteIntArray>
10002148:	2800      	cmp	r0, #0
1000214a:	dd30      	ble.n	100021ae <main+0x1352>
1000214c:	21ae      	movs	r1, #174	@ 0xae
1000214e:	23f8      	movs	r3, #248	@ 0xf8
10002150:	aa28      	add	r2, sp, #160	@ 0xa0
10002152:	0089      	lsls	r1, r1, #2
10002154:	1852      	adds	r2, r2, r1
10002156:	7013      	strb	r3, [r2, #0]
10002158:	aa28      	add	r2, sp, #160	@ 0xa0
1000215a:	4694      	mov	ip, r2
1000215c:	4b3c      	ldr	r3, [pc, #240]	@ (10002250 <main+0x13f4>)
1000215e:	9d15      	ldr	r5, [sp, #84]	@ 0x54
10002160:	4463      	add	r3, ip
10002162:	001c      	movs	r4, r3
10002164:	abd6      	add	r3, sp, #856	@ 0x358
10002166:	181e      	adds	r6, r3, r0
10002168:	2801      	cmp	r0, #1
1000216a:	d106      	bne.n	1000217a <main+0x131e>
1000216c:	e01f      	b.n	100021ae <main+0x1352>
1000216e:	207f      	movs	r0, #127	@ 0x7f
10002170:	7020      	strb	r0, [r4, #0]
10002172:	3401      	adds	r4, #1
10002174:	3504      	adds	r5, #4
10002176:	42b4      	cmp	r4, r6
10002178:	d019      	beq.n	100021ae <main+0x1352>
1000217a:	4936      	ldr	r1, [pc, #216]	@ (10002254 <main+0x13f8>)
1000217c:	6828      	ldr	r0, [r5, #0]
1000217e:	f003 f85a 	bl	10005236 <__wrap___aeabi_fdiv>
10002182:	f003 f8d5 	bl	10005330 <__wrap___aeabi_f2d>
10002186:	f002 fd2f 	bl	10004be8 <__wrap_round>
1000218a:	2200      	movs	r2, #0
1000218c:	2300      	movs	r3, #0
1000218e:	f002 fbdb 	bl	10004948 <__wrap___aeabi_dadd>
10002192:	f002 fc87 	bl	10004aa4 <__wrap___aeabi_d2iz>
10002196:	287f      	cmp	r0, #127	@ 0x7f
10002198:	dce9      	bgt.n	1000216e <main+0x1312>
1000219a:	0003      	movs	r3, r0
1000219c:	3380      	adds	r3, #128	@ 0x80
1000219e:	dae7      	bge.n	10002170 <main+0x1314>
100021a0:	2080      	movs	r0, #128	@ 0x80
100021a2:	4240      	negs	r0, r0
100021a4:	7020      	strb	r0, [r4, #0]
100021a6:	3401      	adds	r4, #1
100021a8:	3504      	adds	r5, #4
100021aa:	42b4      	cmp	r4, r6
100021ac:	d1e5      	bne.n	1000217a <main+0x131e>
100021ae:	9d0f      	ldr	r5, [sp, #60]	@ 0x3c
100021b0:	2100      	movs	r1, #0
100021b2:	2208      	movs	r2, #8
100021b4:	657d      	str	r5, [r7, #84]	@ 0x54
100021b6:	a878      	add	r0, sp, #480	@ 0x1e0
100021b8:	f003 f976 	bl	100054a8 <__wrap_memset>
100021bc:	4653      	mov	r3, sl
100021be:	4652      	mov	r2, sl
100021c0:	643b      	str	r3, [r7, #64]	@ 0x40
100021c2:	647b      	str	r3, [r7, #68]	@ 0x44
100021c4:	235e      	movs	r3, #94	@ 0x5e
100021c6:	54fa      	strb	r2, [r7, r3]
100021c8:	abd6      	add	r3, sp, #856	@ 0x358
100021ca:	653b      	str	r3, [r7, #80]	@ 0x50
100021cc:	245c      	movs	r4, #92	@ 0x5c
100021ce:	2309      	movs	r3, #9
100021d0:	0028      	movs	r0, r5
100021d2:	533b      	strh	r3, [r7, r4]
100021d4:	f007 f892 	bl	100092fc <_ZN6tflite12ElementCountERK14TfLiteIntArray>
100021d8:	0005      	movs	r5, r0
100021da:	5d38      	ldrb	r0, [r7, r4]
100021dc:	f005 ffa4 	bl	10008128 <_ZN6tflite17TfLiteTypeGetSizeE10TfLiteType>
100021e0:	4652      	mov	r2, sl
100021e2:	64fa      	str	r2, [r7, #76]	@ 0x4c
100021e4:	465a      	mov	r2, fp
100021e6:	643a      	str	r2, [r7, #64]	@ 0x40
100021e8:	4652      	mov	r2, sl
100021ea:	4368      	muls	r0, r5
100021ec:	4b19      	ldr	r3, [pc, #100]	@ (10002254 <main+0x13f8>)
100021ee:	65b8      	str	r0, [r7, #88]	@ 0x58
100021f0:	64bb      	str	r3, [r7, #72]	@ 0x48
100021f2:	647a      	str	r2, [r7, #68]	@ 0x44
100021f4:	9202      	str	r2, [sp, #8]
100021f6:	4a18      	ldr	r2, [pc, #96]	@ (10002258 <main+0x13fc>)
100021f8:	9300      	str	r3, [sp, #0]
100021fa:	9201      	str	r2, [sp, #4]
100021fc:	a87e      	add	r0, sp, #504	@ 0x1f8
100021fe:	9b10      	ldr	r3, [sp, #64]	@ 0x40
10002200:	9909      	ldr	r1, [sp, #36]	@ 0x24
10002202:	aa96      	add	r2, sp, #600	@ 0x258
10002204:	f7fe fdca 	bl	10000d9c <_ZN6tflite7testing25CreateQuantizedBiasTensorIlEE12TfLiteTensorPKfPT_P14TfLiteIntArrayffb>
10002208:	980a      	ldr	r0, [sp, #40]	@ 0x28
1000220a:	f007 f877 	bl	100092fc <_ZN6tflite12ElementCountERK14TfLiteIntArray>
1000220e:	2800      	cmp	r0, #0
10002210:	dd48      	ble.n	100022a4 <main+0x1448>
10002212:	21d7      	movs	r1, #215	@ 0xd7
10002214:	23fc      	movs	r3, #252	@ 0xfc
10002216:	00c9      	lsls	r1, r1, #3
10002218:	aa28      	add	r2, sp, #160	@ 0xa0
1000221a:	1852      	adds	r2, r2, r1
1000221c:	7013      	strb	r3, [r2, #0]
1000221e:	aa28      	add	r2, sp, #160	@ 0xa0
10002220:	4694      	mov	ip, r2
10002222:	4b0e      	ldr	r3, [pc, #56]	@ (1000225c <main+0x1400>)
10002224:	4d0e      	ldr	r5, [pc, #56]	@ (10002260 <main+0x1404>)
10002226:	4463      	add	r3, ip
10002228:	001c      	movs	r4, r3
1000222a:	000b      	movs	r3, r1
1000222c:	4463      	add	r3, ip
1000222e:	181e      	adds	r6, r3, r0
10002230:	2801      	cmp	r0, #1
10002232:	d11d      	bne.n	10002270 <main+0x1414>
10002234:	e036      	b.n	100022a4 <main+0x1448>
10002236:	46c0      	nop			@ (mov r8, r8)
10002238:	10013d0c 	.word	0x10013d0c
1000223c:	3ca14285 	.word	0x3ca14285
10002240:	00000ab8 	.word	0x00000ab8
10002244:	3dce5858 	.word	0x3dce5858
10002248:	00000ab9 	.word	0x00000ab9
1000224c:	3bd4ca9d 	.word	0x3bd4ca9d
10002250:	000002b9 	.word	0x000002b9
10002254:	3bd02c55 	.word	0x3bd02c55
10002258:	3e0e656f 	.word	0x3e0e656f
1000225c:	000006b9 	.word	0x000006b9
10002260:	100115d0 	.word	0x100115d0
10002264:	207f      	movs	r0, #127	@ 0x7f
10002266:	7020      	strb	r0, [r4, #0]
10002268:	3401      	adds	r4, #1
1000226a:	3504      	adds	r5, #4
1000226c:	42b4      	cmp	r4, r6
1000226e:	d019      	beq.n	100022a4 <main+0x1448>
10002270:	49ec      	ldr	r1, [pc, #944]	@ (10002624 <main+0x17c8>)
10002272:	6828      	ldr	r0, [r5, #0]
10002274:	f002 ffdf 	bl	10005236 <__wrap___aeabi_fdiv>
10002278:	f003 f85a 	bl	10005330 <__wrap___aeabi_f2d>
1000227c:	f002 fcb4 	bl	10004be8 <__wrap_round>
10002280:	2200      	movs	r2, #0
10002282:	2300      	movs	r3, #0
10002284:	f002 fb60 	bl	10004948 <__wrap___aeabi_dadd>
10002288:	f002 fc0c 	bl	10004aa4 <__wrap___aeabi_d2iz>
1000228c:	287f      	cmp	r0, #127	@ 0x7f
1000228e:	dce9      	bgt.n	10002264 <main+0x1408>
10002290:	0003      	movs	r3, r0
10002292:	3380      	adds	r3, #128	@ 0x80
10002294:	dae7      	bge.n	10002266 <main+0x140a>
10002296:	2080      	movs	r0, #128	@ 0x80
10002298:	4240      	negs	r0, r0
1000229a:	7020      	strb	r0, [r4, #0]
1000229c:	3401      	adds	r4, #1
1000229e:	3504      	adds	r5, #4
100022a0:	42b4      	cmp	r4, r6
100022a2:	d1e5      	bne.n	10002270 <main+0x1414>
100022a4:	2394      	movs	r3, #148	@ 0x94
100022a6:	9a0a      	ldr	r2, [sp, #40]	@ 0x28
100022a8:	2100      	movs	r1, #0
100022aa:	50fa      	str	r2, [r7, r3]
100022ac:	ab88      	add	r3, sp, #544	@ 0x220
100022ae:	2208      	movs	r2, #8
100022b0:	0018      	movs	r0, r3
100022b2:	f003 f8f9 	bl	100054a8 <__wrap_memset>
100022b6:	2580      	movs	r5, #128	@ 0x80
100022b8:	4653      	mov	r3, sl
100022ba:	2484      	movs	r4, #132	@ 0x84
100022bc:	517b      	str	r3, [r7, r5]
100022be:	4659      	mov	r1, fp
100022c0:	513b      	str	r3, [r7, r4]
100022c2:	239e      	movs	r3, #158	@ 0x9e
100022c4:	aa28      	add	r2, sp, #160	@ 0xa0
100022c6:	54f9      	strb	r1, [r7, r3]
100022c8:	21d7      	movs	r1, #215	@ 0xd7
100022ca:	4694      	mov	ip, r2
100022cc:	269c      	movs	r6, #156	@ 0x9c
100022ce:	00c9      	lsls	r1, r1, #3
100022d0:	4461      	add	r1, ip
100022d2:	3b0e      	subs	r3, #14
100022d4:	50f9      	str	r1, [r7, r3]
100022d6:	3b87      	subs	r3, #135	@ 0x87
100022d8:	53bb      	strh	r3, [r7, r6]
100022da:	980a      	ldr	r0, [sp, #40]	@ 0x28
100022dc:	f007 f80e 	bl	100092fc <_ZN6tflite12ElementCountERK14TfLiteIntArray>
100022e0:	4680      	mov	r8, r0
100022e2:	5db8      	ldrb	r0, [r7, r6]
100022e4:	f005 ff20 	bl	10008128 <_ZN6tflite17TfLiteTypeGetSizeE10TfLiteType>
100022e8:	4642      	mov	r2, r8
100022ea:	2398      	movs	r3, #152	@ 0x98
100022ec:	4350      	muls	r0, r2
100022ee:	4acd      	ldr	r2, [pc, #820]	@ (10002624 <main+0x17c8>)
100022f0:	50f8      	str	r0, [r7, r3]
100022f2:	3b10      	subs	r3, #16
100022f4:	50fa      	str	r2, [r7, r3]
100022f6:	4652      	mov	r2, sl
100022f8:	3304      	adds	r3, #4
100022fa:	50fa      	str	r2, [r7, r3]
100022fc:	465a      	mov	r2, fp
100022fe:	517a      	str	r2, [r7, r5]
10002300:	4652      	mov	r2, sl
10002302:	513a      	str	r2, [r7, r4]
10002304:	9c12      	ldr	r4, [sp, #72]	@ 0x48
10002306:	3328      	adds	r3, #40	@ 0x28
10002308:	2100      	movs	r1, #0
1000230a:	50fc      	str	r4, [r7, r3]
1000230c:	2208      	movs	r2, #8
1000230e:	a890      	add	r0, sp, #576	@ 0x240
10002310:	f003 f8ca 	bl	100054a8 <__wrap_memset>
10002314:	4652      	mov	r2, sl
10002316:	23be      	movs	r3, #190	@ 0xbe
10002318:	3524      	adds	r5, #36	@ 0x24
1000231a:	3604      	adds	r6, #4
1000231c:	51ba      	str	r2, [r7, r6]
1000231e:	517a      	str	r2, [r7, r5]
10002320:	54fa      	strb	r2, [r7, r3]
10002322:	3b0e      	subs	r3, #14
10002324:	aa46      	add	r2, sp, #280	@ 0x118
10002326:	50fa      	str	r2, [r7, r3]
10002328:	22bc      	movs	r2, #188	@ 0xbc
1000232a:	4690      	mov	r8, r2
1000232c:	3ba7      	subs	r3, #167	@ 0xa7
1000232e:	52bb      	strh	r3, [r7, r2]
10002330:	0020      	movs	r0, r4
10002332:	f006 ffe3 	bl	100092fc <_ZN6tflite12ElementCountERK14TfLiteIntArray>
10002336:	4643      	mov	r3, r8
10002338:	0004      	movs	r4, r0
1000233a:	5cf8      	ldrb	r0, [r7, r3]
1000233c:	f005 fef4 	bl	10008128 <_ZN6tflite17TfLiteTypeGetSizeE10TfLiteType>
10002340:	23b8      	movs	r3, #184	@ 0xb8
10002342:	4360      	muls	r0, r4
10002344:	4ab8      	ldr	r2, [pc, #736]	@ (10002628 <main+0x17cc>)
10002346:	50f8      	str	r0, [r7, r3]
10002348:	3b10      	subs	r3, #16
1000234a:	50fa      	str	r2, [r7, r3]
1000234c:	4652      	mov	r2, sl
1000234e:	3304      	adds	r3, #4
10002350:	50fa      	str	r2, [r7, r3]
10002352:	465b      	mov	r3, fp
10002354:	21b8      	movs	r1, #184	@ 0xb8
10002356:	51bb      	str	r3, [r7, r6]
10002358:	23fe      	movs	r3, #254	@ 0xfe
1000235a:	517a      	str	r2, [r7, r5]
1000235c:	aa28      	add	r2, sp, #160	@ 0xa0
1000235e:	1852      	adds	r2, r2, r1
10002360:	7013      	strb	r3, [r2, #0]
10002362:	4bb2      	ldr	r3, [pc, #712]	@ (1000262c <main+0x17d0>)
10002364:	aa28      	add	r2, sp, #160	@ 0xa0
10002366:	4698      	mov	r8, r3
10002368:	4694      	mov	ip, r2
1000236a:	23b9      	movs	r3, #185	@ 0xb9
1000236c:	4463      	add	r3, ip
1000236e:	001d      	movs	r5, r3
10002370:	4644      	mov	r4, r8
10002372:	e006      	b.n	10002382 <main+0x1526>
10002374:	207f      	movs	r0, #127	@ 0x7f
10002376:	4bae      	ldr	r3, [pc, #696]	@ (10002630 <main+0x17d4>)
10002378:	3404      	adds	r4, #4
1000237a:	7028      	strb	r0, [r5, #0]
1000237c:	3501      	adds	r5, #1
1000237e:	42a3      	cmp	r3, r4
10002380:	d01a      	beq.n	100023b8 <main+0x155c>
10002382:	49a9      	ldr	r1, [pc, #676]	@ (10002628 <main+0x17cc>)
10002384:	6820      	ldr	r0, [r4, #0]
10002386:	f002 ff56 	bl	10005236 <__wrap___aeabi_fdiv>
1000238a:	f002 ffd1 	bl	10005330 <__wrap___aeabi_f2d>
1000238e:	f002 fc2b 	bl	10004be8 <__wrap_round>
10002392:	2200      	movs	r2, #0
10002394:	2300      	movs	r3, #0
10002396:	f002 fad7 	bl	10004948 <__wrap___aeabi_dadd>
1000239a:	f002 fb83 	bl	10004aa4 <__wrap___aeabi_d2iz>
1000239e:	287f      	cmp	r0, #127	@ 0x7f
100023a0:	dce8      	bgt.n	10002374 <main+0x1518>
100023a2:	0003      	movs	r3, r0
100023a4:	3380      	adds	r3, #128	@ 0x80
100023a6:	dae6      	bge.n	10002376 <main+0x151a>
100023a8:	2080      	movs	r0, #128	@ 0x80
100023aa:	4ba1      	ldr	r3, [pc, #644]	@ (10002630 <main+0x17d4>)
100023ac:	4240      	negs	r0, r0
100023ae:	3404      	adds	r4, #4
100023b0:	7028      	strb	r0, [r5, #0]
100023b2:	3501      	adds	r5, #1
100023b4:	42a3      	cmp	r3, r4
100023b6:	d1e4      	bne.n	10002382 <main+0x1526>
100023b8:	4b9e      	ldr	r3, [pc, #632]	@ (10002634 <main+0x17d8>)
100023ba:	aa42      	add	r2, sp, #264	@ 0x108
100023bc:	9342      	str	r3, [sp, #264]	@ 0x108
100023be:	4b9e      	ldr	r3, [pc, #632]	@ (10002638 <main+0x17dc>)
100023c0:	2100      	movs	r1, #0
100023c2:	9343      	str	r3, [sp, #268]	@ 0x10c
100023c4:	4b9d      	ldr	r3, [pc, #628]	@ (1000263c <main+0x17e0>)
100023c6:	0038      	movs	r0, r7
100023c8:	9344      	str	r3, [sp, #272]	@ 0x110
100023ca:	4b9d      	ldr	r3, [pc, #628]	@ (10002640 <main+0x17e4>)
100023cc:	9345      	str	r3, [sp, #276]	@ 0x114
100023ce:	ab56      	add	r3, sp, #344	@ 0x158
100023d0:	9300      	str	r3, [sp, #0]
100023d2:	ab46      	add	r3, sp, #280	@ 0x118
100023d4:	f7fe fa2e 	bl	10000834 <_ZN6tflite7testing12_GLOBAL__N_119ValidateSVDFGoldensIaEEviiiiP12TfLiteTensori21TfLiteFusedActivationPKT_iPS6_S8_f.constprop.1>
100023d8:	465a      	mov	r2, fp
100023da:	9b06      	ldr	r3, [sp, #24]
100023dc:	701a      	strb	r2, [r3, #0]
100023de:	9b04      	ldr	r3, [sp, #16]
100023e0:	781b      	ldrb	r3, [r3, #0]
100023e2:	2b00      	cmp	r3, #0
100023e4:	d101      	bne.n	100023ea <main+0x158e>
100023e6:	f000 fe2b 	bl	10003040 <main+0x21e4>
100023ea:	2201      	movs	r2, #1
100023ec:	9b05      	ldr	r3, [sp, #20]
100023ee:	681b      	ldr	r3, [r3, #0]
100023f0:	9905      	ldr	r1, [sp, #20]
100023f2:	981f      	ldr	r0, [sp, #124]	@ 0x7c
100023f4:	600b      	str	r3, [r1, #0]
100023f6:	464b      	mov	r3, r9
100023f8:	681b      	ldr	r3, [r3, #0]
100023fa:	2402      	movs	r4, #2
100023fc:	189b      	adds	r3, r3, r2
100023fe:	464a      	mov	r2, r9
10002400:	6013      	str	r3, [r2, #0]
10002402:	f006 ff69 	bl	100092d8 <_Z11MicroPrintfPKcz>
10002406:	4652      	mov	r2, sl
10002408:	9b06      	ldr	r3, [sp, #24]
1000240a:	2510      	movs	r5, #16
1000240c:	701a      	strb	r2, [r3, #0]
1000240e:	9b04      	ldr	r3, [sp, #16]
10002410:	a82f      	add	r0, sp, #188	@ 0xbc
10002412:	701a      	strb	r2, [r3, #0]
10002414:	465b      	mov	r3, fp
10002416:	9531      	str	r5, [sp, #196]	@ 0xc4
10002418:	9330      	str	r3, [sp, #192]	@ 0xc0
1000241a:	942f      	str	r4, [sp, #188]	@ 0xbc
1000241c:	f006 ffe4 	bl	100093e8 <_ZN6tflite7testing16IntArrayFromIntsEPKi>
10002420:	2640      	movs	r6, #64	@ 0x40
10002422:	ab32      	add	r3, sp, #200	@ 0xc8
10002424:	9010      	str	r0, [sp, #64]	@ 0x40
10002426:	0018      	movs	r0, r3
10002428:	9534      	str	r5, [sp, #208]	@ 0xd0
1000242a:	9432      	str	r4, [sp, #200]	@ 0xc8
1000242c:	9633      	str	r6, [sp, #204]	@ 0xcc
1000242e:	f006 ffdb 	bl	100093e8 <_ZN6tflite7testing16IntArrayFromIntsEPKi>
10002432:	2308      	movs	r3, #8
10002434:	9337      	str	r3, [sp, #220]	@ 0xdc
10002436:	ab35      	add	r3, sp, #212	@ 0xd4
10002438:	900a      	str	r0, [sp, #40]	@ 0x28
1000243a:	0018      	movs	r0, r3
1000243c:	9435      	str	r4, [sp, #212]	@ 0xd4
1000243e:	9636      	str	r6, [sp, #216]	@ 0xd8
10002440:	f006 ffd2 	bl	100093e8 <_ZN6tflite7testing16IntArrayFromIntsEPKi>
10002444:	465b      	mov	r3, fp
10002446:	932d      	str	r3, [sp, #180]	@ 0xb4
10002448:	ab2d      	add	r3, sp, #180	@ 0xb4
1000244a:	9012      	str	r0, [sp, #72]	@ 0x48
1000244c:	0018      	movs	r0, r3
1000244e:	962e      	str	r6, [sp, #184]	@ 0xb8
10002450:	f006 ffca 	bl	100093e8 <_ZN6tflite7testing16IntArrayFromIntsEPKi>
10002454:	465b      	mov	r3, fp
10002456:	9339      	str	r3, [sp, #228]	@ 0xe4
10002458:	2380      	movs	r3, #128	@ 0x80
1000245a:	009b      	lsls	r3, r3, #2
1000245c:	933a      	str	r3, [sp, #232]	@ 0xe8
1000245e:	ab38      	add	r3, sp, #224	@ 0xe0
10002460:	9013      	str	r0, [sp, #76]	@ 0x4c
10002462:	0018      	movs	r0, r3
10002464:	9438      	str	r4, [sp, #224]	@ 0xe0
10002466:	f006 ffbf 	bl	100093e8 <_ZN6tflite7testing16IntArrayFromIntsEPKi>
1000246a:	465b      	mov	r3, fp
1000246c:	933c      	str	r3, [sp, #240]	@ 0xf0
1000246e:	ab3b      	add	r3, sp, #236	@ 0xec
10002470:	9014      	str	r0, [sp, #80]	@ 0x50
10002472:	0018      	movs	r0, r3
10002474:	943b      	str	r4, [sp, #236]	@ 0xec
10002476:	963d      	str	r6, [sp, #244]	@ 0xf4
10002478:	f006 ffb6 	bl	100093e8 <_ZN6tflite7testing16IntArrayFromIntsEPKi>
1000247c:	9d10      	ldr	r5, [sp, #64]	@ 0x40
1000247e:	ab68      	add	r3, sp, #416	@ 0x1a0
10002480:	2208      	movs	r2, #8
10002482:	2100      	movs	r1, #0
10002484:	900f      	str	r0, [sp, #60]	@ 0x3c
10002486:	617d      	str	r5, [r7, #20]
10002488:	0018      	movs	r0, r3
1000248a:	f003 f80d 	bl	100054a8 <__wrap_memset>
1000248e:	4653      	mov	r3, sl
10002490:	603b      	str	r3, [r7, #0]
10002492:	607b      	str	r3, [r7, #4]
10002494:	77bb      	strb	r3, [r7, #30]
10002496:	ab3e      	add	r3, sp, #248	@ 0xf8
10002498:	613b      	str	r3, [r7, #16]
1000249a:	2309      	movs	r3, #9
1000249c:	0028      	movs	r0, r5
1000249e:	83bb      	strh	r3, [r7, #28]
100024a0:	f006 ff2c 	bl	100092fc <_ZN6tflite12ElementCountERK14TfLiteIntArray>
100024a4:	0005      	movs	r5, r0
100024a6:	7f38      	ldrb	r0, [r7, #28]
100024a8:	f005 fe3e 	bl	10008128 <_ZN6tflite17TfLiteTypeGetSizeE10TfLiteType>
100024ac:	4b65      	ldr	r3, [pc, #404]	@ (10002644 <main+0x17e8>)
100024ae:	4368      	muls	r0, r5
100024b0:	60bb      	str	r3, [r7, #8]
100024b2:	465b      	mov	r3, fp
100024b4:	603b      	str	r3, [r7, #0]
100024b6:	4653      	mov	r3, sl
100024b8:	61b8      	str	r0, [r7, #24]
100024ba:	60fc      	str	r4, [r7, #12]
100024bc:	980a      	ldr	r0, [sp, #40]	@ 0x28
100024be:	607b      	str	r3, [r7, #4]
100024c0:	f006 ff1c 	bl	100092fc <_ZN6tflite12ElementCountERK14TfLiteIntArray>
100024c4:	2800      	cmp	r0, #0
100024c6:	dd30      	ble.n	1000252a <main+0x16ce>
100024c8:	21ae      	movs	r1, #174	@ 0xae
100024ca:	231b      	movs	r3, #27
100024cc:	aa28      	add	r2, sp, #160	@ 0xa0
100024ce:	0089      	lsls	r1, r1, #2
100024d0:	1852      	adds	r2, r2, r1
100024d2:	7013      	strb	r3, [r2, #0]
100024d4:	aa28      	add	r2, sp, #160	@ 0xa0
100024d6:	4694      	mov	ip, r2
100024d8:	4b5b      	ldr	r3, [pc, #364]	@ (10002648 <main+0x17ec>)
100024da:	9d0c      	ldr	r5, [sp, #48]	@ 0x30
100024dc:	4463      	add	r3, ip
100024de:	001c      	movs	r4, r3
100024e0:	abd6      	add	r3, sp, #856	@ 0x358
100024e2:	181e      	adds	r6, r3, r0
100024e4:	2801      	cmp	r0, #1
100024e6:	d106      	bne.n	100024f6 <main+0x169a>
100024e8:	e01f      	b.n	1000252a <main+0x16ce>
100024ea:	207f      	movs	r0, #127	@ 0x7f
100024ec:	7020      	strb	r0, [r4, #0]
100024ee:	3401      	adds	r4, #1
100024f0:	3504      	adds	r5, #4
100024f2:	42a6      	cmp	r6, r4
100024f4:	d019      	beq.n	1000252a <main+0x16ce>
100024f6:	4955      	ldr	r1, [pc, #340]	@ (1000264c <main+0x17f0>)
100024f8:	6828      	ldr	r0, [r5, #0]
100024fa:	f002 fe9c 	bl	10005236 <__wrap___aeabi_fdiv>
100024fe:	f002 ff17 	bl	10005330 <__wrap___aeabi_f2d>
10002502:	f002 fb71 	bl	10004be8 <__wrap_round>
10002506:	2200      	movs	r2, #0
10002508:	2300      	movs	r3, #0
1000250a:	f002 fa1d 	bl	10004948 <__wrap___aeabi_dadd>
1000250e:	f002 fac9 	bl	10004aa4 <__wrap___aeabi_d2iz>
10002512:	287f      	cmp	r0, #127	@ 0x7f
10002514:	dce9      	bgt.n	100024ea <main+0x168e>
10002516:	0003      	movs	r3, r0
10002518:	3380      	adds	r3, #128	@ 0x80
1000251a:	dae7      	bge.n	100024ec <main+0x1690>
1000251c:	2080      	movs	r0, #128	@ 0x80
1000251e:	4240      	negs	r0, r0
10002520:	7020      	strb	r0, [r4, #0]
10002522:	3401      	adds	r4, #1
10002524:	3504      	adds	r5, #4
10002526:	42a6      	cmp	r6, r4
10002528:	d1e5      	bne.n	100024f6 <main+0x169a>
1000252a:	9c0a      	ldr	r4, [sp, #40]	@ 0x28
1000252c:	2100      	movs	r1, #0
1000252e:	2208      	movs	r2, #8
10002530:	637c      	str	r4, [r7, #52]	@ 0x34
10002532:	a870      	add	r0, sp, #448	@ 0x1c0
10002534:	f002 ffb8 	bl	100054a8 <__wrap_memset>
10002538:	4653      	mov	r3, sl
1000253a:	4652      	mov	r2, sl
1000253c:	623b      	str	r3, [r7, #32]
1000253e:	627b      	str	r3, [r7, #36]	@ 0x24
10002540:	233e      	movs	r3, #62	@ 0x3e
10002542:	54fa      	strb	r2, [r7, r3]
10002544:	abd6      	add	r3, sp, #856	@ 0x358
10002546:	633b      	str	r3, [r7, #48]	@ 0x30
10002548:	2309      	movs	r3, #9
1000254a:	0020      	movs	r0, r4
1000254c:	87bb      	strh	r3, [r7, #60]	@ 0x3c
1000254e:	f006 fed5 	bl	100092fc <_ZN6tflite12ElementCountERK14TfLiteIntArray>
10002552:	233c      	movs	r3, #60	@ 0x3c
10002554:	0004      	movs	r4, r0
10002556:	5cf8      	ldrb	r0, [r7, r3]
10002558:	f005 fde6 	bl	10008128 <_ZN6tflite17TfLiteTypeGetSizeE10TfLiteType>
1000255c:	4652      	mov	r2, sl
1000255e:	62fa      	str	r2, [r7, #44]	@ 0x2c
10002560:	465a      	mov	r2, fp
10002562:	623a      	str	r2, [r7, #32]
10002564:	4652      	mov	r2, sl
10002566:	4360      	muls	r0, r4
10002568:	4b38      	ldr	r3, [pc, #224]	@ (1000264c <main+0x17f0>)
1000256a:	63b8      	str	r0, [r7, #56]	@ 0x38
1000256c:	62bb      	str	r3, [r7, #40]	@ 0x28
1000256e:	627a      	str	r2, [r7, #36]	@ 0x24
10002570:	a928      	add	r1, sp, #160	@ 0xa0
10002572:	9201      	str	r2, [sp, #4]
10002574:	22d7      	movs	r2, #215	@ 0xd7
10002576:	468c      	mov	ip, r1
10002578:	4d35      	ldr	r5, [pc, #212]	@ (10002650 <main+0x17f4>)
1000257a:	00d2      	lsls	r2, r2, #3
1000257c:	4462      	add	r2, ip
1000257e:	9b12      	ldr	r3, [sp, #72]	@ 0x48
10002580:	4934      	ldr	r1, [pc, #208]	@ (10002654 <main+0x17f8>)
10002582:	9500      	str	r5, [sp, #0]
10002584:	a876      	add	r0, sp, #472	@ 0x1d8
10002586:	f7fd fea5 	bl	100002d4 <_ZN6tflite7testing21CreateQuantizedTensorIsEE12TfLiteTensorPKfPT_P14TfLiteIntArrayfib10TfLiteType.constprop.0>
1000258a:	4652      	mov	r2, sl
1000258c:	4c32      	ldr	r4, [pc, #200]	@ (10002658 <main+0x17fc>)
1000258e:	9b13      	ldr	r3, [sp, #76]	@ 0x4c
10002590:	9909      	ldr	r1, [sp, #36]	@ 0x24
10002592:	9202      	str	r2, [sp, #8]
10002594:	9401      	str	r4, [sp, #4]
10002596:	9500      	str	r5, [sp, #0]
10002598:	aa96      	add	r2, sp, #600	@ 0x258
1000259a:	a87e      	add	r0, sp, #504	@ 0x1f8
1000259c:	f7fe fbfe 	bl	10000d9c <_ZN6tflite7testing25CreateQuantizedBiasTensorIlEE12TfLiteTensorPKfPT_P14TfLiteIntArrayffb>
100025a0:	2201      	movs	r2, #1
100025a2:	a928      	add	r1, sp, #160	@ 0xa0
100025a4:	468c      	mov	ip, r1
100025a6:	9201      	str	r2, [sp, #4]
100025a8:	4a2c      	ldr	r2, [pc, #176]	@ (1000265c <main+0x1800>)
100025aa:	9b14      	ldr	r3, [sp, #80]	@ 0x50
100025ac:	4462      	add	r2, ip
100025ae:	9908      	ldr	r1, [sp, #32]
100025b0:	9400      	str	r4, [sp, #0]
100025b2:	a886      	add	r0, sp, #536	@ 0x218
100025b4:	f7fd fe8e 	bl	100002d4 <_ZN6tflite7testing21CreateQuantizedTensorIsEE12TfLiteTensorPKfPT_P14TfLiteIntArrayfib10TfLiteType.constprop.0>
100025b8:	23b4      	movs	r3, #180	@ 0xb4
100025ba:	9a0f      	ldr	r2, [sp, #60]	@ 0x3c
100025bc:	2100      	movs	r1, #0
100025be:	50fa      	str	r2, [r7, r3]
100025c0:	a890      	add	r0, sp, #576	@ 0x240
100025c2:	2208      	movs	r2, #8
100025c4:	f002 ff70 	bl	100054a8 <__wrap_memset>
100025c8:	25a4      	movs	r5, #164	@ 0xa4
100025ca:	4651      	mov	r1, sl
100025cc:	26a0      	movs	r6, #160	@ 0xa0
100025ce:	23be      	movs	r3, #190	@ 0xbe
100025d0:	24bc      	movs	r4, #188	@ 0xbc
100025d2:	51b9      	str	r1, [r7, r6]
100025d4:	5179      	str	r1, [r7, r5]
100025d6:	54f9      	strb	r1, [r7, r3]
100025d8:	a946      	add	r1, sp, #280	@ 0x118
100025da:	3b0e      	subs	r3, #14
100025dc:	50f9      	str	r1, [r7, r3]
100025de:	3ba7      	subs	r3, #167	@ 0xa7
100025e0:	533b      	strh	r3, [r7, r4]
100025e2:	980f      	ldr	r0, [sp, #60]	@ 0x3c
100025e4:	f006 fe8a 	bl	100092fc <_ZN6tflite12ElementCountERK14TfLiteIntArray>
100025e8:	900a      	str	r0, [sp, #40]	@ 0x28
100025ea:	5d38      	ldrb	r0, [r7, r4]
100025ec:	f005 fd9c 	bl	10008128 <_ZN6tflite17TfLiteTypeGetSizeE10TfLiteType>
100025f0:	9b0a      	ldr	r3, [sp, #40]	@ 0x28
100025f2:	4a0d      	ldr	r2, [pc, #52]	@ (10002628 <main+0x17cc>)
100025f4:	4358      	muls	r0, r3
100025f6:	23b8      	movs	r3, #184	@ 0xb8
100025f8:	50f8      	str	r0, [r7, r3]
100025fa:	3b10      	subs	r3, #16
100025fc:	50fa      	str	r2, [r7, r3]
100025fe:	4652      	mov	r2, sl
10002600:	3304      	adds	r3, #4
10002602:	50fa      	str	r2, [r7, r3]
10002604:	465b      	mov	r3, fp
10002606:	21b8      	movs	r1, #184	@ 0xb8
10002608:	51bb      	str	r3, [r7, r6]
1000260a:	23fe      	movs	r3, #254	@ 0xfe
1000260c:	517a      	str	r2, [r7, r5]
1000260e:	aa28      	add	r2, sp, #160	@ 0xa0
10002610:	1852      	adds	r2, r2, r1
10002612:	7013      	strb	r3, [r2, #0]
10002614:	aa28      	add	r2, sp, #160	@ 0xa0
10002616:	4694      	mov	ip, r2
10002618:	3b45      	subs	r3, #69	@ 0x45
1000261a:	4463      	add	r3, ip
1000261c:	001c      	movs	r4, r3
1000261e:	4645      	mov	r5, r8
10002620:	e025      	b.n	1000266e <main+0x1812>
10002622:	46c0      	nop			@ (mov r8, r8)
10002624:	3e0e656f 	.word	0x3e0e656f
10002628:	3d52b843 	.word	0x3d52b843
1000262c:	100114d0 	.word	0x100114d0
10002630:	100115cc 	.word	0x100115cc
10002634:	fdec16fd 	.word	0xfdec16fd
10002638:	efe26025 	.word	0xefe26025
1000263c:	02130bff 	.word	0x02130bff
10002640:	fc01fcff 	.word	0xfc01fcff
10002644:	3dce5858 	.word	0x3dce5858
10002648:	000002b9 	.word	0x000002b9
1000264c:	3bd4ca9d 	.word	0x3bd4ca9d
10002650:	37cf5cf8 	.word	0x37cf5cf8
10002654:	10011ecc 	.word	0x10011ecc
10002658:	3a0dd798 	.word	0x3a0dd798
1000265c:	00000ab8 	.word	0x00000ab8
10002660:	207f      	movs	r0, #127	@ 0x7f
10002662:	4bba      	ldr	r3, [pc, #744]	@ (1000294c <main+0x1af0>)
10002664:	3504      	adds	r5, #4
10002666:	7020      	strb	r0, [r4, #0]
10002668:	3401      	adds	r4, #1
1000266a:	42ab      	cmp	r3, r5
1000266c:	d01a      	beq.n	100026a4 <main+0x1848>
1000266e:	49b8      	ldr	r1, [pc, #736]	@ (10002950 <main+0x1af4>)
10002670:	6828      	ldr	r0, [r5, #0]
10002672:	f002 fde0 	bl	10005236 <__wrap___aeabi_fdiv>
10002676:	f002 fe5b 	bl	10005330 <__wrap___aeabi_f2d>
1000267a:	f002 fab5 	bl	10004be8 <__wrap_round>
1000267e:	2200      	movs	r2, #0
10002680:	2300      	movs	r3, #0
10002682:	f002 f961 	bl	10004948 <__wrap___aeabi_dadd>
10002686:	f002 fa0d 	bl	10004aa4 <__wrap___aeabi_d2iz>
1000268a:	287f      	cmp	r0, #127	@ 0x7f
1000268c:	dce8      	bgt.n	10002660 <main+0x1804>
1000268e:	0003      	movs	r3, r0
10002690:	3380      	adds	r3, #128	@ 0x80
10002692:	dae6      	bge.n	10002662 <main+0x1806>
10002694:	2080      	movs	r0, #128	@ 0x80
10002696:	4bad      	ldr	r3, [pc, #692]	@ (1000294c <main+0x1af0>)
10002698:	4240      	negs	r0, r0
1000269a:	3504      	adds	r5, #4
1000269c:	7020      	strb	r0, [r4, #0]
1000269e:	3401      	adds	r4, #1
100026a0:	42ab      	cmp	r3, r5
100026a2:	d1e4      	bne.n	1000266e <main+0x1812>
100026a4:	4bab      	ldr	r3, [pc, #684]	@ (10002954 <main+0x1af8>)
100026a6:	aa42      	add	r2, sp, #264	@ 0x108
100026a8:	9342      	str	r3, [sp, #264]	@ 0x108
100026aa:	4bab      	ldr	r3, [pc, #684]	@ (10002958 <main+0x1afc>)
100026ac:	2100      	movs	r1, #0
100026ae:	9343      	str	r3, [sp, #268]	@ 0x10c
100026b0:	4baa      	ldr	r3, [pc, #680]	@ (1000295c <main+0x1b00>)
100026b2:	0038      	movs	r0, r7
100026b4:	9344      	str	r3, [sp, #272]	@ 0x110
100026b6:	4baa      	ldr	r3, [pc, #680]	@ (10002960 <main+0x1b04>)
100026b8:	9345      	str	r3, [sp, #276]	@ 0x114
100026ba:	ab56      	add	r3, sp, #344	@ 0x158
100026bc:	9300      	str	r3, [sp, #0]
100026be:	ab46      	add	r3, sp, #280	@ 0x118
100026c0:	f7fe f8b8 	bl	10000834 <_ZN6tflite7testing12_GLOBAL__N_119ValidateSVDFGoldensIaEEviiiiP12TfLiteTensori21TfLiteFusedActivationPKT_iPS6_S8_f.constprop.1>
100026c4:	465a      	mov	r2, fp
100026c6:	9b06      	ldr	r3, [sp, #24]
100026c8:	701a      	strb	r2, [r3, #0]
100026ca:	9b04      	ldr	r3, [sp, #16]
100026cc:	781b      	ldrb	r3, [r3, #0]
100026ce:	2b00      	cmp	r3, #0
100026d0:	d101      	bne.n	100026d6 <main+0x187a>
100026d2:	f000 fcaf 	bl	10003034 <main+0x21d8>
100026d6:	2201      	movs	r2, #1
100026d8:	9b05      	ldr	r3, [sp, #20]
100026da:	681b      	ldr	r3, [r3, #0]
100026dc:	9905      	ldr	r1, [sp, #20]
100026de:	9820      	ldr	r0, [sp, #128]	@ 0x80
100026e0:	600b      	str	r3, [r1, #0]
100026e2:	464b      	mov	r3, r9
100026e4:	681b      	ldr	r3, [r3, #0]
100026e6:	2402      	movs	r4, #2
100026e8:	189b      	adds	r3, r3, r2
100026ea:	464a      	mov	r2, r9
100026ec:	6013      	str	r3, [r2, #0]
100026ee:	f006 fdf3 	bl	100092d8 <_Z11MicroPrintfPKcz>
100026f2:	4652      	mov	r2, sl
100026f4:	9b06      	ldr	r3, [sp, #24]
100026f6:	a82f      	add	r0, sp, #188	@ 0xbc
100026f8:	701a      	strb	r2, [r3, #0]
100026fa:	9b04      	ldr	r3, [sp, #16]
100026fc:	942f      	str	r4, [sp, #188]	@ 0xbc
100026fe:	701a      	strb	r2, [r3, #0]
10002700:	465b      	mov	r3, fp
10002702:	9330      	str	r3, [sp, #192]	@ 0xc0
10002704:	2310      	movs	r3, #16
10002706:	4698      	mov	r8, r3
10002708:	9331      	str	r3, [sp, #196]	@ 0xc4
1000270a:	f006 fe6d 	bl	100093e8 <_ZN6tflite7testing16IntArrayFromIntsEPKi>
1000270e:	2640      	movs	r6, #64	@ 0x40
10002710:	4643      	mov	r3, r8
10002712:	0005      	movs	r5, r0
10002714:	a832      	add	r0, sp, #200	@ 0xc8
10002716:	9334      	str	r3, [sp, #208]	@ 0xd0
10002718:	9432      	str	r4, [sp, #200]	@ 0xc8
1000271a:	9633      	str	r6, [sp, #204]	@ 0xcc
1000271c:	f006 fe64 	bl	100093e8 <_ZN6tflite7testing16IntArrayFromIntsEPKi>
10002720:	2308      	movs	r3, #8
10002722:	4680      	mov	r8, r0
10002724:	a835      	add	r0, sp, #212	@ 0xd4
10002726:	9337      	str	r3, [sp, #220]	@ 0xdc
10002728:	9435      	str	r4, [sp, #212]	@ 0xd4
1000272a:	9636      	str	r6, [sp, #216]	@ 0xd8
1000272c:	f006 fe5c 	bl	100093e8 <_ZN6tflite7testing16IntArrayFromIntsEPKi>
10002730:	465b      	mov	r3, fp
10002732:	900f      	str	r0, [sp, #60]	@ 0x3c
10002734:	a82d      	add	r0, sp, #180	@ 0xb4
10002736:	932d      	str	r3, [sp, #180]	@ 0xb4
10002738:	962e      	str	r6, [sp, #184]	@ 0xb8
1000273a:	f006 fe55 	bl	100093e8 <_ZN6tflite7testing16IntArrayFromIntsEPKi>
1000273e:	465b      	mov	r3, fp
10002740:	9339      	str	r3, [sp, #228]	@ 0xe4
10002742:	2380      	movs	r3, #128	@ 0x80
10002744:	9010      	str	r0, [sp, #64]	@ 0x40
10002746:	009b      	lsls	r3, r3, #2
10002748:	a838      	add	r0, sp, #224	@ 0xe0
1000274a:	933a      	str	r3, [sp, #232]	@ 0xe8
1000274c:	9438      	str	r4, [sp, #224]	@ 0xe0
1000274e:	f006 fe4b 	bl	100093e8 <_ZN6tflite7testing16IntArrayFromIntsEPKi>
10002752:	465b      	mov	r3, fp
10002754:	900a      	str	r0, [sp, #40]	@ 0x28
10002756:	a83b      	add	r0, sp, #236	@ 0xec
10002758:	933c      	str	r3, [sp, #240]	@ 0xf0
1000275a:	943b      	str	r4, [sp, #236]	@ 0xec
1000275c:	963d      	str	r6, [sp, #244]	@ 0xf4
1000275e:	f006 fe43 	bl	100093e8 <_ZN6tflite7testing16IntArrayFromIntsEPKi>
10002762:	2208      	movs	r2, #8
10002764:	2100      	movs	r1, #0
10002766:	9012      	str	r0, [sp, #72]	@ 0x48
10002768:	617d      	str	r5, [r7, #20]
1000276a:	a868      	add	r0, sp, #416	@ 0x1a0
1000276c:	f002 fe9c 	bl	100054a8 <__wrap_memset>
10002770:	4653      	mov	r3, sl
10002772:	603b      	str	r3, [r7, #0]
10002774:	607b      	str	r3, [r7, #4]
10002776:	77bb      	strb	r3, [r7, #30]
10002778:	ab3e      	add	r3, sp, #248	@ 0xf8
1000277a:	613b      	str	r3, [r7, #16]
1000277c:	2309      	movs	r3, #9
1000277e:	0028      	movs	r0, r5
10002780:	83bb      	strh	r3, [r7, #28]
10002782:	f006 fdbb 	bl	100092fc <_ZN6tflite12ElementCountERK14TfLiteIntArray>
10002786:	0005      	movs	r5, r0
10002788:	7f38      	ldrb	r0, [r7, #28]
1000278a:	f005 fccd 	bl	10008128 <_ZN6tflite17TfLiteTypeGetSizeE10TfLiteType>
1000278e:	4b75      	ldr	r3, [pc, #468]	@ (10002964 <main+0x1b08>)
10002790:	4368      	muls	r0, r5
10002792:	60bb      	str	r3, [r7, #8]
10002794:	465b      	mov	r3, fp
10002796:	603b      	str	r3, [r7, #0]
10002798:	4653      	mov	r3, sl
1000279a:	61b8      	str	r0, [r7, #24]
1000279c:	60fc      	str	r4, [r7, #12]
1000279e:	4640      	mov	r0, r8
100027a0:	607b      	str	r3, [r7, #4]
100027a2:	f006 fdab 	bl	100092fc <_ZN6tflite12ElementCountERK14TfLiteIntArray>
100027a6:	2800      	cmp	r0, #0
100027a8:	dd30      	ble.n	1000280c <main+0x19b0>
100027aa:	231b      	movs	r3, #27
100027ac:	496e      	ldr	r1, [pc, #440]	@ (10002968 <main+0x1b0c>)
100027ae:	aa28      	add	r2, sp, #160	@ 0xa0
100027b0:	1852      	adds	r2, r2, r1
100027b2:	7013      	strb	r3, [r2, #0]
100027b4:	aa28      	add	r2, sp, #160	@ 0xa0
100027b6:	4694      	mov	ip, r2
100027b8:	4b6c      	ldr	r3, [pc, #432]	@ (1000296c <main+0x1b10>)
100027ba:	9d0c      	ldr	r5, [sp, #48]	@ 0x30
100027bc:	4463      	add	r3, ip
100027be:	001c      	movs	r4, r3
100027c0:	000b      	movs	r3, r1
100027c2:	4463      	add	r3, ip
100027c4:	181e      	adds	r6, r3, r0
100027c6:	2801      	cmp	r0, #1
100027c8:	d106      	bne.n	100027d8 <main+0x197c>
100027ca:	e01f      	b.n	1000280c <main+0x19b0>
100027cc:	207f      	movs	r0, #127	@ 0x7f
100027ce:	7020      	strb	r0, [r4, #0]
100027d0:	3401      	adds	r4, #1
100027d2:	3504      	adds	r5, #4
100027d4:	42b4      	cmp	r4, r6
100027d6:	d019      	beq.n	1000280c <main+0x19b0>
100027d8:	4965      	ldr	r1, [pc, #404]	@ (10002970 <main+0x1b14>)
100027da:	6828      	ldr	r0, [r5, #0]
100027dc:	f002 fd2b 	bl	10005236 <__wrap___aeabi_fdiv>
100027e0:	f002 fda6 	bl	10005330 <__wrap___aeabi_f2d>
100027e4:	f002 fa00 	bl	10004be8 <__wrap_round>
100027e8:	2200      	movs	r2, #0
100027ea:	2300      	movs	r3, #0
100027ec:	f002 f8ac 	bl	10004948 <__wrap___aeabi_dadd>
100027f0:	f002 f958 	bl	10004aa4 <__wrap___aeabi_d2iz>
100027f4:	287f      	cmp	r0, #127	@ 0x7f
100027f6:	dce9      	bgt.n	100027cc <main+0x1970>
100027f8:	0003      	movs	r3, r0
100027fa:	3380      	adds	r3, #128	@ 0x80
100027fc:	dae7      	bge.n	100027ce <main+0x1972>
100027fe:	2080      	movs	r0, #128	@ 0x80
10002800:	4240      	negs	r0, r0
10002802:	7020      	strb	r0, [r4, #0]
10002804:	3401      	adds	r4, #1
10002806:	3504      	adds	r5, #4
10002808:	42b4      	cmp	r4, r6
1000280a:	d1e5      	bne.n	100027d8 <main+0x197c>
1000280c:	4643      	mov	r3, r8
1000280e:	2100      	movs	r1, #0
10002810:	2208      	movs	r2, #8
10002812:	637b      	str	r3, [r7, #52]	@ 0x34
10002814:	a870      	add	r0, sp, #448	@ 0x1c0
10002816:	f002 fe47 	bl	100054a8 <__wrap_memset>
1000281a:	4653      	mov	r3, sl
1000281c:	4652      	mov	r2, sl
1000281e:	623b      	str	r3, [r7, #32]
10002820:	627b      	str	r3, [r7, #36]	@ 0x24
10002822:	233e      	movs	r3, #62	@ 0x3e
10002824:	54fa      	strb	r2, [r7, r3]
10002826:	aa28      	add	r2, sp, #160	@ 0xa0
10002828:	4694      	mov	ip, r2
1000282a:	4b4f      	ldr	r3, [pc, #316]	@ (10002968 <main+0x1b0c>)
1000282c:	4640      	mov	r0, r8
1000282e:	4463      	add	r3, ip
10002830:	633b      	str	r3, [r7, #48]	@ 0x30
10002832:	2309      	movs	r3, #9
10002834:	87bb      	strh	r3, [r7, #60]	@ 0x3c
10002836:	f006 fd61 	bl	100092fc <_ZN6tflite12ElementCountERK14TfLiteIntArray>
1000283a:	233c      	movs	r3, #60	@ 0x3c
1000283c:	0004      	movs	r4, r0
1000283e:	5cf8      	ldrb	r0, [r7, r3]
10002840:	f005 fc72 	bl	10008128 <_ZN6tflite17TfLiteTypeGetSizeE10TfLiteType>
10002844:	4b4a      	ldr	r3, [pc, #296]	@ (10002970 <main+0x1b14>)
10002846:	4360      	muls	r0, r4
10002848:	62bb      	str	r3, [r7, #40]	@ 0x28
1000284a:	4653      	mov	r3, sl
1000284c:	62fb      	str	r3, [r7, #44]	@ 0x2c
1000284e:	465b      	mov	r3, fp
10002850:	623b      	str	r3, [r7, #32]
10002852:	4653      	mov	r3, sl
10002854:	63b8      	str	r0, [r7, #56]	@ 0x38
10002856:	627b      	str	r3, [r7, #36]	@ 0x24
10002858:	980f      	ldr	r0, [sp, #60]	@ 0x3c
1000285a:	f006 fd4f 	bl	100092fc <_ZN6tflite12ElementCountERK14TfLiteIntArray>
1000285e:	2800      	cmp	r0, #0
10002860:	dd30      	ble.n	100028c4 <main+0x1a68>
10002862:	21ae      	movs	r1, #174	@ 0xae
10002864:	23f8      	movs	r3, #248	@ 0xf8
10002866:	aa28      	add	r2, sp, #160	@ 0xa0
10002868:	0089      	lsls	r1, r1, #2
1000286a:	1852      	adds	r2, r2, r1
1000286c:	7013      	strb	r3, [r2, #0]
1000286e:	aa28      	add	r2, sp, #160	@ 0xa0
10002870:	4694      	mov	ip, r2
10002872:	4b40      	ldr	r3, [pc, #256]	@ (10002974 <main+0x1b18>)
10002874:	9d15      	ldr	r5, [sp, #84]	@ 0x54
10002876:	4463      	add	r3, ip
10002878:	001c      	movs	r4, r3
1000287a:	abd6      	add	r3, sp, #856	@ 0x358
1000287c:	181e      	adds	r6, r3, r0
1000287e:	2801      	cmp	r0, #1
10002880:	d106      	bne.n	10002890 <main+0x1a34>
10002882:	e01f      	b.n	100028c4 <main+0x1a68>
10002884:	207f      	movs	r0, #127	@ 0x7f
10002886:	7020      	strb	r0, [r4, #0]
10002888:	3401      	adds	r4, #1
1000288a:	3504      	adds	r5, #4
1000288c:	42a6      	cmp	r6, r4
1000288e:	d019      	beq.n	100028c4 <main+0x1a68>
10002890:	4939      	ldr	r1, [pc, #228]	@ (10002978 <main+0x1b1c>)
10002892:	6828      	ldr	r0, [r5, #0]
10002894:	f002 fccf 	bl	10005236 <__wrap___aeabi_fdiv>
10002898:	f002 fd4a 	bl	10005330 <__wrap___aeabi_f2d>
1000289c:	f002 f9a4 	bl	10004be8 <__wrap_round>
100028a0:	2200      	movs	r2, #0
100028a2:	2300      	movs	r3, #0
100028a4:	f002 f850 	bl	10004948 <__wrap___aeabi_dadd>
100028a8:	f002 f8fc 	bl	10004aa4 <__wrap___aeabi_d2iz>
100028ac:	287f      	cmp	r0, #127	@ 0x7f
100028ae:	dce9      	bgt.n	10002884 <main+0x1a28>
100028b0:	0003      	movs	r3, r0
100028b2:	3380      	adds	r3, #128	@ 0x80
100028b4:	dae7      	bge.n	10002886 <main+0x1a2a>
100028b6:	2080      	movs	r0, #128	@ 0x80
100028b8:	4240      	negs	r0, r0
100028ba:	7020      	strb	r0, [r4, #0]
100028bc:	3401      	adds	r4, #1
100028be:	3504      	adds	r5, #4
100028c0:	42a6      	cmp	r6, r4
100028c2:	d1e5      	bne.n	10002890 <main+0x1a34>
100028c4:	9d0f      	ldr	r5, [sp, #60]	@ 0x3c
100028c6:	2100      	movs	r1, #0
100028c8:	2208      	movs	r2, #8
100028ca:	657d      	str	r5, [r7, #84]	@ 0x54
100028cc:	a878      	add	r0, sp, #480	@ 0x1e0
100028ce:	f002 fdeb 	bl	100054a8 <__wrap_memset>
100028d2:	4653      	mov	r3, sl
100028d4:	4652      	mov	r2, sl
100028d6:	643b      	str	r3, [r7, #64]	@ 0x40
100028d8:	647b      	str	r3, [r7, #68]	@ 0x44
100028da:	235e      	movs	r3, #94	@ 0x5e
100028dc:	54fa      	strb	r2, [r7, r3]
100028de:	abd6      	add	r3, sp, #856	@ 0x358
100028e0:	653b      	str	r3, [r7, #80]	@ 0x50
100028e2:	245c      	movs	r4, #92	@ 0x5c
100028e4:	2309      	movs	r3, #9
100028e6:	0028      	movs	r0, r5
100028e8:	533b      	strh	r3, [r7, r4]
100028ea:	f006 fd07 	bl	100092fc <_ZN6tflite12ElementCountERK14TfLiteIntArray>
100028ee:	0005      	movs	r5, r0
100028f0:	5d38      	ldrb	r0, [r7, r4]
100028f2:	f005 fc19 	bl	10008128 <_ZN6tflite17TfLiteTypeGetSizeE10TfLiteType>
100028f6:	4652      	mov	r2, sl
100028f8:	64fa      	str	r2, [r7, #76]	@ 0x4c
100028fa:	465a      	mov	r2, fp
100028fc:	643a      	str	r2, [r7, #64]	@ 0x40
100028fe:	4652      	mov	r2, sl
10002900:	4368      	muls	r0, r5
10002902:	4b1d      	ldr	r3, [pc, #116]	@ (10002978 <main+0x1b1c>)
10002904:	65b8      	str	r0, [r7, #88]	@ 0x58
10002906:	64bb      	str	r3, [r7, #72]	@ 0x48
10002908:	647a      	str	r2, [r7, #68]	@ 0x44
1000290a:	9202      	str	r2, [sp, #8]
1000290c:	4a1b      	ldr	r2, [pc, #108]	@ (1000297c <main+0x1b20>)
1000290e:	9300      	str	r3, [sp, #0]
10002910:	9201      	str	r2, [sp, #4]
10002912:	a87e      	add	r0, sp, #504	@ 0x1f8
10002914:	9b10      	ldr	r3, [sp, #64]	@ 0x40
10002916:	9909      	ldr	r1, [sp, #36]	@ 0x24
10002918:	aa96      	add	r2, sp, #600	@ 0x258
1000291a:	f7fe fa3f 	bl	10000d9c <_ZN6tflite7testing25CreateQuantizedBiasTensorIlEE12TfLiteTensorPKfPT_P14TfLiteIntArrayffb>
1000291e:	980a      	ldr	r0, [sp, #40]	@ 0x28
10002920:	f006 fcec 	bl	100092fc <_ZN6tflite12ElementCountERK14TfLiteIntArray>
10002924:	2800      	cmp	r0, #0
10002926:	dd4f      	ble.n	100029c8 <main+0x1b6c>
10002928:	21d7      	movs	r1, #215	@ 0xd7
1000292a:	23fc      	movs	r3, #252	@ 0xfc
1000292c:	00c9      	lsls	r1, r1, #3
1000292e:	aa28      	add	r2, sp, #160	@ 0xa0
10002930:	1852      	adds	r2, r2, r1
10002932:	7013      	strb	r3, [r2, #0]
10002934:	aa28      	add	r2, sp, #160	@ 0xa0
10002936:	4694      	mov	ip, r2
10002938:	4b11      	ldr	r3, [pc, #68]	@ (10002980 <main+0x1b24>)
1000293a:	4d12      	ldr	r5, [pc, #72]	@ (10002984 <main+0x1b28>)
1000293c:	4463      	add	r3, ip
1000293e:	001c      	movs	r4, r3
10002940:	000b      	movs	r3, r1
10002942:	4463      	add	r3, ip
10002944:	181e      	adds	r6, r3, r0
10002946:	2801      	cmp	r0, #1
10002948:	d124      	bne.n	10002994 <main+0x1b38>
1000294a:	e03d      	b.n	100029c8 <main+0x1b6c>
1000294c:	100115cc 	.word	0x100115cc
10002950:	3d52b843 	.word	0x3d52b843
10002954:	fdec16fd 	.word	0xfdec16fd
10002958:	efe26025 	.word	0xefe26025
1000295c:	02130bff 	.word	0x02130bff
10002960:	fc01fcff 	.word	0xfc01fcff
10002964:	3dce5858 	.word	0x3dce5858
10002968:	00000ab8 	.word	0x00000ab8
1000296c:	00000ab9 	.word	0x00000ab9
10002970:	3bd4ca9d 	.word	0x3bd4ca9d
10002974:	000002b9 	.word	0x000002b9
10002978:	3bd02c55 	.word	0x3bd02c55
1000297c:	3e0e656f 	.word	0x3e0e656f
10002980:	000006b9 	.word	0x000006b9
10002984:	100115d0 	.word	0x100115d0
10002988:	207f      	movs	r0, #127	@ 0x7f
1000298a:	7020      	strb	r0, [r4, #0]
1000298c:	3401      	adds	r4, #1
1000298e:	3504      	adds	r5, #4
10002990:	42b4      	cmp	r4, r6
10002992:	d019      	beq.n	100029c8 <main+0x1b6c>
10002994:	49ed      	ldr	r1, [pc, #948]	@ (10002d4c <main+0x1ef0>)
10002996:	6828      	ldr	r0, [r5, #0]
10002998:	f002 fc4d 	bl	10005236 <__wrap___aeabi_fdiv>
1000299c:	f002 fcc8 	bl	10005330 <__wrap___aeabi_f2d>
100029a0:	f002 f922 	bl	10004be8 <__wrap_round>
100029a4:	2200      	movs	r2, #0
100029a6:	2300      	movs	r3, #0
100029a8:	f001 ffce 	bl	10004948 <__wrap___aeabi_dadd>
100029ac:	f002 f87a 	bl	10004aa4 <__wrap___aeabi_d2iz>
100029b0:	287f      	cmp	r0, #127	@ 0x7f
100029b2:	dce9      	bgt.n	10002988 <main+0x1b2c>
100029b4:	0003      	movs	r3, r0
100029b6:	3380      	adds	r3, #128	@ 0x80
100029b8:	dae7      	bge.n	1000298a <main+0x1b2e>
100029ba:	2080      	movs	r0, #128	@ 0x80
100029bc:	4240      	negs	r0, r0
100029be:	7020      	strb	r0, [r4, #0]
100029c0:	3401      	adds	r4, #1
100029c2:	3504      	adds	r5, #4
100029c4:	42b4      	cmp	r4, r6
100029c6:	d1e5      	bne.n	10002994 <main+0x1b38>
100029c8:	2394      	movs	r3, #148	@ 0x94
100029ca:	9a0a      	ldr	r2, [sp, #40]	@ 0x28
100029cc:	2100      	movs	r1, #0
100029ce:	50fa      	str	r2, [r7, r3]
100029d0:	ab88      	add	r3, sp, #544	@ 0x220
100029d2:	2208      	movs	r2, #8
100029d4:	0018      	movs	r0, r3
100029d6:	f002 fd67 	bl	100054a8 <__wrap_memset>
100029da:	2580      	movs	r5, #128	@ 0x80
100029dc:	4653      	mov	r3, sl
100029de:	2484      	movs	r4, #132	@ 0x84
100029e0:	517b      	str	r3, [r7, r5]
100029e2:	4659      	mov	r1, fp
100029e4:	513b      	str	r3, [r7, r4]
100029e6:	239e      	movs	r3, #158	@ 0x9e
100029e8:	aa28      	add	r2, sp, #160	@ 0xa0
100029ea:	54f9      	strb	r1, [r7, r3]
100029ec:	21d7      	movs	r1, #215	@ 0xd7
100029ee:	4694      	mov	ip, r2
100029f0:	269c      	movs	r6, #156	@ 0x9c
100029f2:	00c9      	lsls	r1, r1, #3
100029f4:	4461      	add	r1, ip
100029f6:	3b0e      	subs	r3, #14
100029f8:	50f9      	str	r1, [r7, r3]
100029fa:	3b87      	subs	r3, #135	@ 0x87
100029fc:	53bb      	strh	r3, [r7, r6]
100029fe:	980a      	ldr	r0, [sp, #40]	@ 0x28
10002a00:	f006 fc7c 	bl	100092fc <_ZN6tflite12ElementCountERK14TfLiteIntArray>
10002a04:	4680      	mov	r8, r0
10002a06:	5db8      	ldrb	r0, [r7, r6]
10002a08:	f005 fb8e 	bl	10008128 <_ZN6tflite17TfLiteTypeGetSizeE10TfLiteType>
10002a0c:	4642      	mov	r2, r8
10002a0e:	2398      	movs	r3, #152	@ 0x98
10002a10:	4350      	muls	r0, r2
10002a12:	4ace      	ldr	r2, [pc, #824]	@ (10002d4c <main+0x1ef0>)
10002a14:	50f8      	str	r0, [r7, r3]
10002a16:	3b10      	subs	r3, #16
10002a18:	50fa      	str	r2, [r7, r3]
10002a1a:	4652      	mov	r2, sl
10002a1c:	3304      	adds	r3, #4
10002a1e:	50fa      	str	r2, [r7, r3]
10002a20:	465a      	mov	r2, fp
10002a22:	517a      	str	r2, [r7, r5]
10002a24:	4652      	mov	r2, sl
10002a26:	513a      	str	r2, [r7, r4]
10002a28:	9c12      	ldr	r4, [sp, #72]	@ 0x48
10002a2a:	3328      	adds	r3, #40	@ 0x28
10002a2c:	2100      	movs	r1, #0
10002a2e:	50fc      	str	r4, [r7, r3]
10002a30:	2208      	movs	r2, #8
10002a32:	a890      	add	r0, sp, #576	@ 0x240
10002a34:	f002 fd38 	bl	100054a8 <__wrap_memset>
10002a38:	4652      	mov	r2, sl
10002a3a:	23be      	movs	r3, #190	@ 0xbe
10002a3c:	3524      	adds	r5, #36	@ 0x24
10002a3e:	3604      	adds	r6, #4
10002a40:	51ba      	str	r2, [r7, r6]
10002a42:	517a      	str	r2, [r7, r5]
10002a44:	54fa      	strb	r2, [r7, r3]
10002a46:	3b0e      	subs	r3, #14
10002a48:	aa46      	add	r2, sp, #280	@ 0x118
10002a4a:	50fa      	str	r2, [r7, r3]
10002a4c:	22bc      	movs	r2, #188	@ 0xbc
10002a4e:	4690      	mov	r8, r2
10002a50:	3ba7      	subs	r3, #167	@ 0xa7
10002a52:	52bb      	strh	r3, [r7, r2]
10002a54:	0020      	movs	r0, r4
10002a56:	f006 fc51 	bl	100092fc <_ZN6tflite12ElementCountERK14TfLiteIntArray>
10002a5a:	4643      	mov	r3, r8
10002a5c:	0004      	movs	r4, r0
10002a5e:	5cf8      	ldrb	r0, [r7, r3]
10002a60:	f005 fb62 	bl	10008128 <_ZN6tflite17TfLiteTypeGetSizeE10TfLiteType>
10002a64:	23b8      	movs	r3, #184	@ 0xb8
10002a66:	4360      	muls	r0, r4
10002a68:	4ab9      	ldr	r2, [pc, #740]	@ (10002d50 <main+0x1ef4>)
10002a6a:	50f8      	str	r0, [r7, r3]
10002a6c:	3b10      	subs	r3, #16
10002a6e:	50fa      	str	r2, [r7, r3]
10002a70:	22ac      	movs	r2, #172	@ 0xac
10002a72:	3b29      	subs	r3, #41	@ 0x29
10002a74:	3bff      	subs	r3, #255	@ 0xff
10002a76:	50bb      	str	r3, [r7, r2]
10002a78:	465a      	mov	r2, fp
10002a7a:	51ba      	str	r2, [r7, r6]
10002a7c:	4652      	mov	r2, sl
10002a7e:	21b8      	movs	r1, #184	@ 0xb8
10002a80:	517a      	str	r2, [r7, r5]
10002a82:	aa28      	add	r2, sp, #160	@ 0xa0
10002a84:	1852      	adds	r2, r2, r1
10002a86:	7013      	strb	r3, [r2, #0]
10002a88:	4bb2      	ldr	r3, [pc, #712]	@ (10002d54 <main+0x1ef8>)
10002a8a:	aa28      	add	r2, sp, #160	@ 0xa0
10002a8c:	4698      	mov	r8, r3
10002a8e:	4694      	mov	ip, r2
10002a90:	23b9      	movs	r3, #185	@ 0xb9
10002a92:	4463      	add	r3, ip
10002a94:	001d      	movs	r5, r3
10002a96:	4644      	mov	r4, r8
10002a98:	e006      	b.n	10002aa8 <main+0x1c4c>
10002a9a:	207f      	movs	r0, #127	@ 0x7f
10002a9c:	4bae      	ldr	r3, [pc, #696]	@ (10002d58 <main+0x1efc>)
10002a9e:	3404      	adds	r4, #4
10002aa0:	7028      	strb	r0, [r5, #0]
10002aa2:	3501      	adds	r5, #1
10002aa4:	429c      	cmp	r4, r3
10002aa6:	d01a      	beq.n	10002ade <main+0x1c82>
10002aa8:	49a9      	ldr	r1, [pc, #676]	@ (10002d50 <main+0x1ef4>)
10002aaa:	6820      	ldr	r0, [r4, #0]
10002aac:	f002 fbc3 	bl	10005236 <__wrap___aeabi_fdiv>
10002ab0:	f002 fc3e 	bl	10005330 <__wrap___aeabi_f2d>
10002ab4:	f002 f898 	bl	10004be8 <__wrap_round>
10002ab8:	2200      	movs	r2, #0
10002aba:	4ba8      	ldr	r3, [pc, #672]	@ (10002d5c <main+0x1f00>)
10002abc:	f001 ff3b 	bl	10004936 <__wrap___aeabi_dsub>
10002ac0:	f001 fff0 	bl	10004aa4 <__wrap___aeabi_d2iz>
10002ac4:	287f      	cmp	r0, #127	@ 0x7f
10002ac6:	dce8      	bgt.n	10002a9a <main+0x1c3e>
10002ac8:	0003      	movs	r3, r0
10002aca:	3380      	adds	r3, #128	@ 0x80
10002acc:	dae6      	bge.n	10002a9c <main+0x1c40>
10002ace:	2080      	movs	r0, #128	@ 0x80
10002ad0:	4ba1      	ldr	r3, [pc, #644]	@ (10002d58 <main+0x1efc>)
10002ad2:	4240      	negs	r0, r0
10002ad4:	3404      	adds	r4, #4
10002ad6:	7028      	strb	r0, [r5, #0]
10002ad8:	3501      	adds	r5, #1
10002ada:	429c      	cmp	r4, r3
10002adc:	d1e4      	bne.n	10002aa8 <main+0x1c4c>
10002ade:	4ba0      	ldr	r3, [pc, #640]	@ (10002d60 <main+0x1f04>)
10002ae0:	aa42      	add	r2, sp, #264	@ 0x108
10002ae2:	9342      	str	r3, [sp, #264]	@ 0x108
10002ae4:	4b9f      	ldr	r3, [pc, #636]	@ (10002d64 <main+0x1f08>)
10002ae6:	2101      	movs	r1, #1
10002ae8:	9343      	str	r3, [sp, #268]	@ 0x10c
10002aea:	4b9f      	ldr	r3, [pc, #636]	@ (10002d68 <main+0x1f0c>)
10002aec:	0038      	movs	r0, r7
10002aee:	9344      	str	r3, [sp, #272]	@ 0x110
10002af0:	4b9e      	ldr	r3, [pc, #632]	@ (10002d6c <main+0x1f10>)
10002af2:	9345      	str	r3, [sp, #276]	@ 0x114
10002af4:	ab56      	add	r3, sp, #344	@ 0x158
10002af6:	9300      	str	r3, [sp, #0]
10002af8:	ab46      	add	r3, sp, #280	@ 0x118
10002afa:	f7fd fe9b 	bl	10000834 <_ZN6tflite7testing12_GLOBAL__N_119ValidateSVDFGoldensIaEEviiiiP12TfLiteTensori21TfLiteFusedActivationPKT_iPS6_S8_f.constprop.1>
10002afe:	465a      	mov	r2, fp
10002b00:	9b06      	ldr	r3, [sp, #24]
10002b02:	701a      	strb	r2, [r3, #0]
10002b04:	9b04      	ldr	r3, [sp, #16]
10002b06:	781b      	ldrb	r3, [r3, #0]
10002b08:	2b00      	cmp	r3, #0
10002b0a:	d100      	bne.n	10002b0e <main+0x1cb2>
10002b0c:	e28d      	b.n	1000302a <main+0x21ce>
10002b0e:	2201      	movs	r2, #1
10002b10:	9b05      	ldr	r3, [sp, #20]
10002b12:	681b      	ldr	r3, [r3, #0]
10002b14:	9905      	ldr	r1, [sp, #20]
10002b16:	9821      	ldr	r0, [sp, #132]	@ 0x84
10002b18:	600b      	str	r3, [r1, #0]
10002b1a:	464b      	mov	r3, r9
10002b1c:	681b      	ldr	r3, [r3, #0]
10002b1e:	2402      	movs	r4, #2
10002b20:	189b      	adds	r3, r3, r2
10002b22:	464a      	mov	r2, r9
10002b24:	6013      	str	r3, [r2, #0]
10002b26:	f006 fbd7 	bl	100092d8 <_Z11MicroPrintfPKcz>
10002b2a:	4652      	mov	r2, sl
10002b2c:	9b06      	ldr	r3, [sp, #24]
10002b2e:	2510      	movs	r5, #16
10002b30:	701a      	strb	r2, [r3, #0]
10002b32:	9b04      	ldr	r3, [sp, #16]
10002b34:	a82f      	add	r0, sp, #188	@ 0xbc
10002b36:	701a      	strb	r2, [r3, #0]
10002b38:	465b      	mov	r3, fp
10002b3a:	9531      	str	r5, [sp, #196]	@ 0xc4
10002b3c:	9330      	str	r3, [sp, #192]	@ 0xc0
10002b3e:	942f      	str	r4, [sp, #188]	@ 0xbc
10002b40:	f006 fc52 	bl	100093e8 <_ZN6tflite7testing16IntArrayFromIntsEPKi>
10002b44:	2640      	movs	r6, #64	@ 0x40
10002b46:	ab32      	add	r3, sp, #200	@ 0xc8
10002b48:	9010      	str	r0, [sp, #64]	@ 0x40
10002b4a:	0018      	movs	r0, r3
10002b4c:	9534      	str	r5, [sp, #208]	@ 0xd0
10002b4e:	9432      	str	r4, [sp, #200]	@ 0xc8
10002b50:	9633      	str	r6, [sp, #204]	@ 0xcc
10002b52:	f006 fc49 	bl	100093e8 <_ZN6tflite7testing16IntArrayFromIntsEPKi>
10002b56:	2308      	movs	r3, #8
10002b58:	9337      	str	r3, [sp, #220]	@ 0xdc
10002b5a:	ab35      	add	r3, sp, #212	@ 0xd4
10002b5c:	900a      	str	r0, [sp, #40]	@ 0x28
10002b5e:	0018      	movs	r0, r3
10002b60:	9435      	str	r4, [sp, #212]	@ 0xd4
10002b62:	9636      	str	r6, [sp, #216]	@ 0xd8
10002b64:	f006 fc40 	bl	100093e8 <_ZN6tflite7testing16IntArrayFromIntsEPKi>
10002b68:	465b      	mov	r3, fp
10002b6a:	932d      	str	r3, [sp, #180]	@ 0xb4
10002b6c:	ab2d      	add	r3, sp, #180	@ 0xb4
10002b6e:	9012      	str	r0, [sp, #72]	@ 0x48
10002b70:	0018      	movs	r0, r3
10002b72:	962e      	str	r6, [sp, #184]	@ 0xb8
10002b74:	f006 fc38 	bl	100093e8 <_ZN6tflite7testing16IntArrayFromIntsEPKi>
10002b78:	465b      	mov	r3, fp
10002b7a:	9339      	str	r3, [sp, #228]	@ 0xe4
10002b7c:	2380      	movs	r3, #128	@ 0x80
10002b7e:	009b      	lsls	r3, r3, #2
10002b80:	933a      	str	r3, [sp, #232]	@ 0xe8
10002b82:	ab38      	add	r3, sp, #224	@ 0xe0
10002b84:	9013      	str	r0, [sp, #76]	@ 0x4c
10002b86:	0018      	movs	r0, r3
10002b88:	9438      	str	r4, [sp, #224]	@ 0xe0
10002b8a:	f006 fc2d 	bl	100093e8 <_ZN6tflite7testing16IntArrayFromIntsEPKi>
10002b8e:	465b      	mov	r3, fp
10002b90:	933c      	str	r3, [sp, #240]	@ 0xf0
10002b92:	ab3b      	add	r3, sp, #236	@ 0xec
10002b94:	9014      	str	r0, [sp, #80]	@ 0x50
10002b96:	0018      	movs	r0, r3
10002b98:	943b      	str	r4, [sp, #236]	@ 0xec
10002b9a:	963d      	str	r6, [sp, #244]	@ 0xf4
10002b9c:	f006 fc24 	bl	100093e8 <_ZN6tflite7testing16IntArrayFromIntsEPKi>
10002ba0:	9d10      	ldr	r5, [sp, #64]	@ 0x40
10002ba2:	ab68      	add	r3, sp, #416	@ 0x1a0
10002ba4:	2208      	movs	r2, #8
10002ba6:	2100      	movs	r1, #0
10002ba8:	900f      	str	r0, [sp, #60]	@ 0x3c
10002baa:	617d      	str	r5, [r7, #20]
10002bac:	0018      	movs	r0, r3
10002bae:	f002 fc7b 	bl	100054a8 <__wrap_memset>
10002bb2:	4653      	mov	r3, sl
10002bb4:	603b      	str	r3, [r7, #0]
10002bb6:	607b      	str	r3, [r7, #4]
10002bb8:	77bb      	strb	r3, [r7, #30]
10002bba:	ab3e      	add	r3, sp, #248	@ 0xf8
10002bbc:	613b      	str	r3, [r7, #16]
10002bbe:	2309      	movs	r3, #9
10002bc0:	0028      	movs	r0, r5
10002bc2:	83bb      	strh	r3, [r7, #28]
10002bc4:	f006 fb9a 	bl	100092fc <_ZN6tflite12ElementCountERK14TfLiteIntArray>
10002bc8:	0005      	movs	r5, r0
10002bca:	7f38      	ldrb	r0, [r7, #28]
10002bcc:	f005 faac 	bl	10008128 <_ZN6tflite17TfLiteTypeGetSizeE10TfLiteType>
10002bd0:	4b67      	ldr	r3, [pc, #412]	@ (10002d70 <main+0x1f14>)
10002bd2:	4368      	muls	r0, r5
10002bd4:	60bb      	str	r3, [r7, #8]
10002bd6:	465b      	mov	r3, fp
10002bd8:	603b      	str	r3, [r7, #0]
10002bda:	4653      	mov	r3, sl
10002bdc:	61b8      	str	r0, [r7, #24]
10002bde:	60fc      	str	r4, [r7, #12]
10002be0:	980a      	ldr	r0, [sp, #40]	@ 0x28
10002be2:	607b      	str	r3, [r7, #4]
10002be4:	f006 fb8a 	bl	100092fc <_ZN6tflite12ElementCountERK14TfLiteIntArray>
10002be8:	2800      	cmp	r0, #0
10002bea:	dd30      	ble.n	10002c4e <main+0x1df2>
10002bec:	21ae      	movs	r1, #174	@ 0xae
10002bee:	231b      	movs	r3, #27
10002bf0:	aa28      	add	r2, sp, #160	@ 0xa0
10002bf2:	0089      	lsls	r1, r1, #2
10002bf4:	1852      	adds	r2, r2, r1
10002bf6:	7013      	strb	r3, [r2, #0]
10002bf8:	aa28      	add	r2, sp, #160	@ 0xa0
10002bfa:	4694      	mov	ip, r2
10002bfc:	4b5d      	ldr	r3, [pc, #372]	@ (10002d74 <main+0x1f18>)
10002bfe:	9d0c      	ldr	r5, [sp, #48]	@ 0x30
10002c00:	4463      	add	r3, ip
10002c02:	001c      	movs	r4, r3
10002c04:	abd6      	add	r3, sp, #856	@ 0x358
10002c06:	181e      	adds	r6, r3, r0
10002c08:	2801      	cmp	r0, #1
10002c0a:	d106      	bne.n	10002c1a <main+0x1dbe>
10002c0c:	e01f      	b.n	10002c4e <main+0x1df2>
10002c0e:	207f      	movs	r0, #127	@ 0x7f
10002c10:	7020      	strb	r0, [r4, #0]
10002c12:	3401      	adds	r4, #1
10002c14:	3504      	adds	r5, #4
10002c16:	42b4      	cmp	r4, r6
10002c18:	d019      	beq.n	10002c4e <main+0x1df2>
10002c1a:	4957      	ldr	r1, [pc, #348]	@ (10002d78 <main+0x1f1c>)
10002c1c:	6828      	ldr	r0, [r5, #0]
10002c1e:	f002 fb0a 	bl	10005236 <__wrap___aeabi_fdiv>
10002c22:	f002 fb85 	bl	10005330 <__wrap___aeabi_f2d>
10002c26:	f001 ffdf 	bl	10004be8 <__wrap_round>
10002c2a:	2200      	movs	r2, #0
10002c2c:	2300      	movs	r3, #0
10002c2e:	f001 fe8b 	bl	10004948 <__wrap___aeabi_dadd>
10002c32:	f001 ff37 	bl	10004aa4 <__wrap___aeabi_d2iz>
10002c36:	287f      	cmp	r0, #127	@ 0x7f
10002c38:	dce9      	bgt.n	10002c0e <main+0x1db2>
10002c3a:	0003      	movs	r3, r0
10002c3c:	3380      	adds	r3, #128	@ 0x80
10002c3e:	dae7      	bge.n	10002c10 <main+0x1db4>
10002c40:	2080      	movs	r0, #128	@ 0x80
10002c42:	4240      	negs	r0, r0
10002c44:	7020      	strb	r0, [r4, #0]
10002c46:	3401      	adds	r4, #1
10002c48:	3504      	adds	r5, #4
10002c4a:	42b4      	cmp	r4, r6
10002c4c:	d1e5      	bne.n	10002c1a <main+0x1dbe>
10002c4e:	9c0a      	ldr	r4, [sp, #40]	@ 0x28
10002c50:	2100      	movs	r1, #0
10002c52:	2208      	movs	r2, #8
10002c54:	637c      	str	r4, [r7, #52]	@ 0x34
10002c56:	a870      	add	r0, sp, #448	@ 0x1c0
10002c58:	f002 fc26 	bl	100054a8 <__wrap_memset>
10002c5c:	4653      	mov	r3, sl
10002c5e:	4652      	mov	r2, sl
10002c60:	623b      	str	r3, [r7, #32]
10002c62:	627b      	str	r3, [r7, #36]	@ 0x24
10002c64:	233e      	movs	r3, #62	@ 0x3e
10002c66:	54fa      	strb	r2, [r7, r3]
10002c68:	abd6      	add	r3, sp, #856	@ 0x358
10002c6a:	633b      	str	r3, [r7, #48]	@ 0x30
10002c6c:	2309      	movs	r3, #9
10002c6e:	0020      	movs	r0, r4
10002c70:	87bb      	strh	r3, [r7, #60]	@ 0x3c
10002c72:	f006 fb43 	bl	100092fc <_ZN6tflite12ElementCountERK14TfLiteIntArray>
10002c76:	233c      	movs	r3, #60	@ 0x3c
10002c78:	0004      	movs	r4, r0
10002c7a:	5cf8      	ldrb	r0, [r7, r3]
10002c7c:	f005 fa54 	bl	10008128 <_ZN6tflite17TfLiteTypeGetSizeE10TfLiteType>
10002c80:	4652      	mov	r2, sl
10002c82:	62fa      	str	r2, [r7, #44]	@ 0x2c
10002c84:	465a      	mov	r2, fp
10002c86:	623a      	str	r2, [r7, #32]
10002c88:	4652      	mov	r2, sl
10002c8a:	4360      	muls	r0, r4
10002c8c:	4b3a      	ldr	r3, [pc, #232]	@ (10002d78 <main+0x1f1c>)
10002c8e:	63b8      	str	r0, [r7, #56]	@ 0x38
10002c90:	62bb      	str	r3, [r7, #40]	@ 0x28
10002c92:	627a      	str	r2, [r7, #36]	@ 0x24
10002c94:	a928      	add	r1, sp, #160	@ 0xa0
10002c96:	9201      	str	r2, [sp, #4]
10002c98:	22d7      	movs	r2, #215	@ 0xd7
10002c9a:	468c      	mov	ip, r1
10002c9c:	4d37      	ldr	r5, [pc, #220]	@ (10002d7c <main+0x1f20>)
10002c9e:	00d2      	lsls	r2, r2, #3
10002ca0:	4462      	add	r2, ip
10002ca2:	9b12      	ldr	r3, [sp, #72]	@ 0x48
10002ca4:	4936      	ldr	r1, [pc, #216]	@ (10002d80 <main+0x1f24>)
10002ca6:	9500      	str	r5, [sp, #0]
10002ca8:	a876      	add	r0, sp, #472	@ 0x1d8
10002caa:	f7fd fb13 	bl	100002d4 <_ZN6tflite7testing21CreateQuantizedTensorIsEE12TfLiteTensorPKfPT_P14TfLiteIntArrayfib10TfLiteType.constprop.0>
10002cae:	4652      	mov	r2, sl
10002cb0:	4c34      	ldr	r4, [pc, #208]	@ (10002d84 <main+0x1f28>)
10002cb2:	9b13      	ldr	r3, [sp, #76]	@ 0x4c
10002cb4:	9909      	ldr	r1, [sp, #36]	@ 0x24
10002cb6:	9202      	str	r2, [sp, #8]
10002cb8:	9401      	str	r4, [sp, #4]
10002cba:	9500      	str	r5, [sp, #0]
10002cbc:	aa96      	add	r2, sp, #600	@ 0x258
10002cbe:	a87e      	add	r0, sp, #504	@ 0x1f8
10002cc0:	f7fe f86c 	bl	10000d9c <_ZN6tflite7testing25CreateQuantizedBiasTensorIlEE12TfLiteTensorPKfPT_P14TfLiteIntArrayffb>
10002cc4:	2201      	movs	r2, #1
10002cc6:	a928      	add	r1, sp, #160	@ 0xa0
10002cc8:	468c      	mov	ip, r1
10002cca:	9201      	str	r2, [sp, #4]
10002ccc:	4a2e      	ldr	r2, [pc, #184]	@ (10002d88 <main+0x1f2c>)
10002cce:	9b14      	ldr	r3, [sp, #80]	@ 0x50
10002cd0:	4462      	add	r2, ip
10002cd2:	9908      	ldr	r1, [sp, #32]
10002cd4:	9400      	str	r4, [sp, #0]
10002cd6:	a886      	add	r0, sp, #536	@ 0x218
10002cd8:	f7fd fafc 	bl	100002d4 <_ZN6tflite7testing21CreateQuantizedTensorIsEE12TfLiteTensorPKfPT_P14TfLiteIntArrayfib10TfLiteType.constprop.0>
10002cdc:	23b4      	movs	r3, #180	@ 0xb4
10002cde:	9a0f      	ldr	r2, [sp, #60]	@ 0x3c
10002ce0:	2100      	movs	r1, #0
10002ce2:	50fa      	str	r2, [r7, r3]
10002ce4:	a890      	add	r0, sp, #576	@ 0x240
10002ce6:	2208      	movs	r2, #8
10002ce8:	f002 fbde 	bl	100054a8 <__wrap_memset>
10002cec:	25a4      	movs	r5, #164	@ 0xa4
10002cee:	4651      	mov	r1, sl
10002cf0:	26a0      	movs	r6, #160	@ 0xa0
10002cf2:	23be      	movs	r3, #190	@ 0xbe
10002cf4:	24bc      	movs	r4, #188	@ 0xbc
10002cf6:	51b9      	str	r1, [r7, r6]
10002cf8:	5179      	str	r1, [r7, r5]
10002cfa:	54f9      	strb	r1, [r7, r3]
10002cfc:	a946      	add	r1, sp, #280	@ 0x118
10002cfe:	3b0e      	subs	r3, #14
10002d00:	50f9      	str	r1, [r7, r3]
10002d02:	3ba7      	subs	r3, #167	@ 0xa7
10002d04:	533b      	strh	r3, [r7, r4]
10002d06:	980f      	ldr	r0, [sp, #60]	@ 0x3c
10002d08:	f006 faf8 	bl	100092fc <_ZN6tflite12ElementCountERK14TfLiteIntArray>
10002d0c:	900a      	str	r0, [sp, #40]	@ 0x28
10002d0e:	5d38      	ldrb	r0, [r7, r4]
10002d10:	f005 fa0a 	bl	10008128 <_ZN6tflite17TfLiteTypeGetSizeE10TfLiteType>
10002d14:	9b0a      	ldr	r3, [sp, #40]	@ 0x28
10002d16:	4a0e      	ldr	r2, [pc, #56]	@ (10002d50 <main+0x1ef4>)
10002d18:	4358      	muls	r0, r3
10002d1a:	23b8      	movs	r3, #184	@ 0xb8
10002d1c:	50f8      	str	r0, [r7, r3]
10002d1e:	3b10      	subs	r3, #16
10002d20:	50fa      	str	r2, [r7, r3]
10002d22:	22ac      	movs	r2, #172	@ 0xac
10002d24:	3b29      	subs	r3, #41	@ 0x29
10002d26:	3bff      	subs	r3, #255	@ 0xff
10002d28:	50bb      	str	r3, [r7, r2]
10002d2a:	465a      	mov	r2, fp
10002d2c:	51ba      	str	r2, [r7, r6]
10002d2e:	4652      	mov	r2, sl
10002d30:	21b8      	movs	r1, #184	@ 0xb8
10002d32:	517a      	str	r2, [r7, r5]
10002d34:	aa28      	add	r2, sp, #160	@ 0xa0
10002d36:	1852      	adds	r2, r2, r1
10002d38:	7013      	strb	r3, [r2, #0]
10002d3a:	aa28      	add	r2, sp, #160	@ 0xa0
10002d3c:	4694      	mov	ip, r2
10002d3e:	333a      	adds	r3, #58	@ 0x3a
10002d40:	33ff      	adds	r3, #255	@ 0xff
10002d42:	4463      	add	r3, ip
10002d44:	001c      	movs	r4, r3
10002d46:	4645      	mov	r5, r8
10002d48:	e027      	b.n	10002d9a <main+0x1f3e>
10002d4a:	46c0      	nop			@ (mov r8, r8)
10002d4c:	3e0e656f 	.word	0x3e0e656f
10002d50:	3d52b843 	.word	0x3d52b843
10002d54:	100113d0 	.word	0x100113d0
10002d58:	100114cc 	.word	0x100114cc
10002d5c:	40600000 	.word	0x40600000
10002d60:	fdec16fd 	.word	0xfdec16fd
10002d64:	efe26025 	.word	0xefe26025
10002d68:	02130bff 	.word	0x02130bff
10002d6c:	fc01fcff 	.word	0xfc01fcff
10002d70:	3dce5858 	.word	0x3dce5858
10002d74:	000002b9 	.word	0x000002b9
10002d78:	3bd4ca9d 	.word	0x3bd4ca9d
10002d7c:	37cf5cf8 	.word	0x37cf5cf8
10002d80:	10011ecc 	.word	0x10011ecc
10002d84:	3a0dd798 	.word	0x3a0dd798
10002d88:	00000ab8 	.word	0x00000ab8
10002d8c:	207f      	movs	r0, #127	@ 0x7f
10002d8e:	4be7      	ldr	r3, [pc, #924]	@ (1000312c <main+0x22d0>)
10002d90:	3504      	adds	r5, #4
10002d92:	7020      	strb	r0, [r4, #0]
10002d94:	3401      	adds	r4, #1
10002d96:	42ab      	cmp	r3, r5
10002d98:	d01a      	beq.n	10002dd0 <main+0x1f74>
10002d9a:	49e5      	ldr	r1, [pc, #916]	@ (10003130 <main+0x22d4>)
10002d9c:	6828      	ldr	r0, [r5, #0]
10002d9e:	f002 fa4a 	bl	10005236 <__wrap___aeabi_fdiv>
10002da2:	f002 fac5 	bl	10005330 <__wrap___aeabi_f2d>
10002da6:	f001 ff1f 	bl	10004be8 <__wrap_round>
10002daa:	2200      	movs	r2, #0
10002dac:	4be1      	ldr	r3, [pc, #900]	@ (10003134 <main+0x22d8>)
10002dae:	f001 fdc2 	bl	10004936 <__wrap___aeabi_dsub>
10002db2:	f001 fe77 	bl	10004aa4 <__wrap___aeabi_d2iz>
10002db6:	287f      	cmp	r0, #127	@ 0x7f
10002db8:	dce8      	bgt.n	10002d8c <main+0x1f30>
10002dba:	0003      	movs	r3, r0
10002dbc:	3380      	adds	r3, #128	@ 0x80
10002dbe:	dae6      	bge.n	10002d8e <main+0x1f32>
10002dc0:	2080      	movs	r0, #128	@ 0x80
10002dc2:	4bda      	ldr	r3, [pc, #872]	@ (1000312c <main+0x22d0>)
10002dc4:	4240      	negs	r0, r0
10002dc6:	3504      	adds	r5, #4
10002dc8:	7020      	strb	r0, [r4, #0]
10002dca:	3401      	adds	r4, #1
10002dcc:	42ab      	cmp	r3, r5
10002dce:	d1e4      	bne.n	10002d9a <main+0x1f3e>
10002dd0:	4bd9      	ldr	r3, [pc, #868]	@ (10003138 <main+0x22dc>)
10002dd2:	aa42      	add	r2, sp, #264	@ 0x108
10002dd4:	9342      	str	r3, [sp, #264]	@ 0x108
10002dd6:	4bd9      	ldr	r3, [pc, #868]	@ (1000313c <main+0x22e0>)
10002dd8:	2101      	movs	r1, #1
10002dda:	9343      	str	r3, [sp, #268]	@ 0x10c
10002ddc:	4bd8      	ldr	r3, [pc, #864]	@ (10003140 <main+0x22e4>)
10002dde:	0038      	movs	r0, r7
10002de0:	9344      	str	r3, [sp, #272]	@ 0x110
10002de2:	4bd8      	ldr	r3, [pc, #864]	@ (10003144 <main+0x22e8>)
10002de4:	9345      	str	r3, [sp, #276]	@ 0x114
10002de6:	ab56      	add	r3, sp, #344	@ 0x158
10002de8:	9300      	str	r3, [sp, #0]
10002dea:	ab46      	add	r3, sp, #280	@ 0x118
10002dec:	f7fd fd22 	bl	10000834 <_ZN6tflite7testing12_GLOBAL__N_119ValidateSVDFGoldensIaEEviiiiP12TfLiteTensori21TfLiteFusedActivationPKT_iPS6_S8_f.constprop.1>
10002df0:	465a      	mov	r2, fp
10002df2:	9b06      	ldr	r3, [sp, #24]
10002df4:	701a      	strb	r2, [r3, #0]
10002df6:	9b04      	ldr	r3, [sp, #16]
10002df8:	781b      	ldrb	r3, [r3, #0]
10002dfa:	2b00      	cmp	r3, #0
10002dfc:	d100      	bne.n	10002e00 <main+0x1fa4>
10002dfe:	e134      	b.n	1000306a <main+0x220e>
10002e00:	2201      	movs	r2, #1
10002e02:	9b05      	ldr	r3, [sp, #20]
10002e04:	6819      	ldr	r1, [r3, #0]
10002e06:	6019      	str	r1, [r3, #0]
10002e08:	464b      	mov	r3, r9
10002e0a:	681b      	ldr	r3, [r3, #0]
10002e0c:	9822      	ldr	r0, [sp, #136]	@ 0x88
10002e0e:	18d2      	adds	r2, r2, r3
10002e10:	464b      	mov	r3, r9
10002e12:	601a      	str	r2, [r3, #0]
10002e14:	1852      	adds	r2, r2, r1
10002e16:	f006 fa5f 	bl	100092d8 <_Z11MicroPrintfPKcz>
10002e1a:	464b      	mov	r3, r9
10002e1c:	681b      	ldr	r3, [r3, #0]
10002e1e:	2b00      	cmp	r3, #0
10002e20:	d000      	beq.n	10002e24 <main+0x1fc8>
10002e22:	e17e      	b.n	10003122 <main+0x22c6>
10002e24:	982a      	ldr	r0, [sp, #168]	@ 0xa8
10002e26:	f006 fa57 	bl	100092d8 <_Z11MicroPrintfPKcz>
10002e2a:	f7fe f86a 	bl	10000f02 <main+0xa6>
10002e2e:	1c20      	adds	r0, r4, #0
10002e30:	f002 f9fb 	bl	1000522a <__wrap___aeabi_fsub>
10002e34:	f7fe fb02 	bl	1000143c <main+0x5e0>
10002e38:	1c29      	adds	r1, r5, #0
10002e3a:	1c20      	adds	r0, r4, #0
10002e3c:	f002 f9f5 	bl	1000522a <__wrap___aeabi_fsub>
10002e40:	49c1      	ldr	r1, [pc, #772]	@ (10003148 <main+0x22ec>)
10002e42:	f002 fa49 	bl	100052d8 <__wrap___aeabi_fcmpgt>
10002e46:	2800      	cmp	r0, #0
10002e48:	d101      	bne.n	10002e4e <main+0x1ff2>
10002e4a:	f7fe fae2 	bl	10001412 <main+0x5b6>
10002e4e:	1c20      	adds	r0, r4, #0
10002e50:	f002 fa6e 	bl	10005330 <__wrap___aeabi_f2d>
10002e54:	4bbd      	ldr	r3, [pc, #756]	@ (1000314c <main+0x22f0>)
10002e56:	900a      	str	r0, [sp, #40]	@ 0x28
10002e58:	910b      	str	r1, [sp, #44]	@ 0x2c
10002e5a:	9303      	str	r3, [sp, #12]
10002e5c:	9b07      	ldr	r3, [sp, #28]
10002e5e:	1c28      	adds	r0, r5, #0
10002e60:	9302      	str	r3, [sp, #8]
10002e62:	f002 fa65 	bl	10005330 <__wrap___aeabi_f2d>
10002e66:	9a0a      	ldr	r2, [sp, #40]	@ 0x28
10002e68:	9b0b      	ldr	r3, [sp, #44]	@ 0x2c
10002e6a:	9000      	str	r0, [sp, #0]
10002e6c:	9101      	str	r1, [sp, #4]
10002e6e:	980e      	ldr	r0, [sp, #56]	@ 0x38
10002e70:	f006 fa32 	bl	100092d8 <_Z11MicroPrintfPKcz>
10002e74:	465a      	mov	r2, fp
10002e76:	9b04      	ldr	r3, [sp, #16]
10002e78:	701a      	strb	r2, [r3, #0]
10002e7a:	f7fe faca 	bl	10001412 <main+0x5b6>
10002e7e:	1c29      	adds	r1, r5, #0
10002e80:	1c20      	adds	r0, r4, #0
10002e82:	f002 f9d2 	bl	1000522a <__wrap___aeabi_fsub>
10002e86:	49b0      	ldr	r1, [pc, #704]	@ (10003148 <main+0x22ec>)
10002e88:	f002 fa26 	bl	100052d8 <__wrap___aeabi_fcmpgt>
10002e8c:	2800      	cmp	r0, #0
10002e8e:	d101      	bne.n	10002e94 <main+0x2038>
10002e90:	f7fe faad 	bl	100013ee <main+0x592>
10002e94:	1c20      	adds	r0, r4, #0
10002e96:	f002 fa4b 	bl	10005330 <__wrap___aeabi_f2d>
10002e9a:	4bac      	ldr	r3, [pc, #688]	@ (1000314c <main+0x22f0>)
10002e9c:	900a      	str	r0, [sp, #40]	@ 0x28
10002e9e:	910b      	str	r1, [sp, #44]	@ 0x2c
10002ea0:	9303      	str	r3, [sp, #12]
10002ea2:	9b07      	ldr	r3, [sp, #28]
10002ea4:	1c28      	adds	r0, r5, #0
10002ea6:	9302      	str	r3, [sp, #8]
10002ea8:	f002 fa42 	bl	10005330 <__wrap___aeabi_f2d>
10002eac:	9a0a      	ldr	r2, [sp, #40]	@ 0x28
10002eae:	9b0b      	ldr	r3, [sp, #44]	@ 0x2c
10002eb0:	9000      	str	r0, [sp, #0]
10002eb2:	9101      	str	r1, [sp, #4]
10002eb4:	980e      	ldr	r0, [sp, #56]	@ 0x38
10002eb6:	f006 fa0f 	bl	100092d8 <_Z11MicroPrintfPKcz>
10002eba:	465a      	mov	r2, fp
10002ebc:	9b04      	ldr	r3, [sp, #16]
10002ebe:	701a      	strb	r2, [r3, #0]
10002ec0:	f7fe fa95 	bl	100013ee <main+0x592>
10002ec4:	1c29      	adds	r1, r5, #0
10002ec6:	1c20      	adds	r0, r4, #0
10002ec8:	f002 f9af 	bl	1000522a <__wrap___aeabi_fsub>
10002ecc:	499e      	ldr	r1, [pc, #632]	@ (10003148 <main+0x22ec>)
10002ece:	f002 fa03 	bl	100052d8 <__wrap___aeabi_fcmpgt>
10002ed2:	2800      	cmp	r0, #0
10002ed4:	d101      	bne.n	10002eda <main+0x207e>
10002ed6:	f7fe fa78 	bl	100013ca <main+0x56e>
10002eda:	1c20      	adds	r0, r4, #0
10002edc:	f002 fa28 	bl	10005330 <__wrap___aeabi_f2d>
10002ee0:	4b9a      	ldr	r3, [pc, #616]	@ (1000314c <main+0x22f0>)
10002ee2:	900a      	str	r0, [sp, #40]	@ 0x28
10002ee4:	910b      	str	r1, [sp, #44]	@ 0x2c
10002ee6:	9303      	str	r3, [sp, #12]
10002ee8:	9b07      	ldr	r3, [sp, #28]
10002eea:	1c28      	adds	r0, r5, #0
10002eec:	9302      	str	r3, [sp, #8]
10002eee:	f002 fa1f 	bl	10005330 <__wrap___aeabi_f2d>
10002ef2:	9a0a      	ldr	r2, [sp, #40]	@ 0x28
10002ef4:	9b0b      	ldr	r3, [sp, #44]	@ 0x2c
10002ef6:	9000      	str	r0, [sp, #0]
10002ef8:	9101      	str	r1, [sp, #4]
10002efa:	980e      	ldr	r0, [sp, #56]	@ 0x38
10002efc:	f006 f9ec 	bl	100092d8 <_Z11MicroPrintfPKcz>
10002f00:	465a      	mov	r2, fp
10002f02:	9b04      	ldr	r3, [sp, #16]
10002f04:	701a      	strb	r2, [r3, #0]
10002f06:	f7fe fa60 	bl	100013ca <main+0x56e>
10002f0a:	1c29      	adds	r1, r5, #0
10002f0c:	1c20      	adds	r0, r4, #0
10002f0e:	f002 f98c 	bl	1000522a <__wrap___aeabi_fsub>
10002f12:	498d      	ldr	r1, [pc, #564]	@ (10003148 <main+0x22ec>)
10002f14:	f002 f9e0 	bl	100052d8 <__wrap___aeabi_fcmpgt>
10002f18:	2800      	cmp	r0, #0
10002f1a:	d101      	bne.n	10002f20 <main+0x20c4>
10002f1c:	f7fe fa43 	bl	100013a6 <main+0x54a>
10002f20:	1c20      	adds	r0, r4, #0
10002f22:	f002 fa05 	bl	10005330 <__wrap___aeabi_f2d>
10002f26:	4b89      	ldr	r3, [pc, #548]	@ (1000314c <main+0x22f0>)
10002f28:	900a      	str	r0, [sp, #40]	@ 0x28
10002f2a:	910b      	str	r1, [sp, #44]	@ 0x2c
10002f2c:	9303      	str	r3, [sp, #12]
10002f2e:	9b07      	ldr	r3, [sp, #28]
10002f30:	1c28      	adds	r0, r5, #0
10002f32:	9302      	str	r3, [sp, #8]
10002f34:	f002 f9fc 	bl	10005330 <__wrap___aeabi_f2d>
10002f38:	9a0a      	ldr	r2, [sp, #40]	@ 0x28
10002f3a:	9b0b      	ldr	r3, [sp, #44]	@ 0x2c
10002f3c:	9000      	str	r0, [sp, #0]
10002f3e:	9101      	str	r1, [sp, #4]
10002f40:	980e      	ldr	r0, [sp, #56]	@ 0x38
10002f42:	f006 f9c9 	bl	100092d8 <_Z11MicroPrintfPKcz>
10002f46:	465a      	mov	r2, fp
10002f48:	9b04      	ldr	r3, [sp, #16]
10002f4a:	701a      	strb	r2, [r3, #0]
10002f4c:	f7fe fa2b 	bl	100013a6 <main+0x54a>
10002f50:	1c29      	adds	r1, r5, #0
10002f52:	1c20      	adds	r0, r4, #0
10002f54:	f002 f969 	bl	1000522a <__wrap___aeabi_fsub>
10002f58:	497b      	ldr	r1, [pc, #492]	@ (10003148 <main+0x22ec>)
10002f5a:	f002 f9bd 	bl	100052d8 <__wrap___aeabi_fcmpgt>
10002f5e:	2800      	cmp	r0, #0
10002f60:	d101      	bne.n	10002f66 <main+0x210a>
10002f62:	f7fe fa0e 	bl	10001382 <main+0x526>
10002f66:	1c20      	adds	r0, r4, #0
10002f68:	f002 f9e2 	bl	10005330 <__wrap___aeabi_f2d>
10002f6c:	4b77      	ldr	r3, [pc, #476]	@ (1000314c <main+0x22f0>)
10002f6e:	900a      	str	r0, [sp, #40]	@ 0x28
10002f70:	910b      	str	r1, [sp, #44]	@ 0x2c
10002f72:	9303      	str	r3, [sp, #12]
10002f74:	9b07      	ldr	r3, [sp, #28]
10002f76:	1c28      	adds	r0, r5, #0
10002f78:	9302      	str	r3, [sp, #8]
10002f7a:	f002 f9d9 	bl	10005330 <__wrap___aeabi_f2d>
10002f7e:	9a0a      	ldr	r2, [sp, #40]	@ 0x28
10002f80:	9b0b      	ldr	r3, [sp, #44]	@ 0x2c
10002f82:	9000      	str	r0, [sp, #0]
10002f84:	9101      	str	r1, [sp, #4]
10002f86:	980e      	ldr	r0, [sp, #56]	@ 0x38
10002f88:	f006 f9a6 	bl	100092d8 <_Z11MicroPrintfPKcz>
10002f8c:	465a      	mov	r2, fp
10002f8e:	9b04      	ldr	r3, [sp, #16]
10002f90:	701a      	strb	r2, [r3, #0]
10002f92:	f7fe f9f6 	bl	10001382 <main+0x526>
10002f96:	1c20      	adds	r0, r4, #0
10002f98:	f002 f947 	bl	1000522a <__wrap___aeabi_fsub>
10002f9c:	496a      	ldr	r1, [pc, #424]	@ (10003148 <main+0x22ec>)
10002f9e:	f002 f99b 	bl	100052d8 <__wrap___aeabi_fcmpgt>
10002fa2:	2800      	cmp	r0, #0
10002fa4:	d101      	bne.n	10002faa <main+0x214e>
10002fa6:	f7fe f9da 	bl	1000135e <main+0x502>
10002faa:	1c20      	adds	r0, r4, #0
10002fac:	f002 f9c0 	bl	10005330 <__wrap___aeabi_f2d>
10002fb0:	4b66      	ldr	r3, [pc, #408]	@ (1000314c <main+0x22f0>)
10002fb2:	900a      	str	r0, [sp, #40]	@ 0x28
10002fb4:	910b      	str	r1, [sp, #44]	@ 0x2c
10002fb6:	9303      	str	r3, [sp, #12]
10002fb8:	9b07      	ldr	r3, [sp, #28]
10002fba:	1c28      	adds	r0, r5, #0
10002fbc:	9302      	str	r3, [sp, #8]
10002fbe:	f002 f9b7 	bl	10005330 <__wrap___aeabi_f2d>
10002fc2:	9a0a      	ldr	r2, [sp, #40]	@ 0x28
10002fc4:	9b0b      	ldr	r3, [sp, #44]	@ 0x2c
10002fc6:	9000      	str	r0, [sp, #0]
10002fc8:	9101      	str	r1, [sp, #4]
10002fca:	980e      	ldr	r0, [sp, #56]	@ 0x38
10002fcc:	f006 f984 	bl	100092d8 <_Z11MicroPrintfPKcz>
10002fd0:	465a      	mov	r2, fp
10002fd2:	9b04      	ldr	r3, [sp, #16]
10002fd4:	701a      	strb	r2, [r3, #0]
10002fd6:	f7fe f9c2 	bl	1000135e <main+0x502>
10002fda:	1c29      	adds	r1, r5, #0
10002fdc:	1c20      	adds	r0, r4, #0
10002fde:	f002 f924 	bl	1000522a <__wrap___aeabi_fsub>
10002fe2:	4959      	ldr	r1, [pc, #356]	@ (10003148 <main+0x22ec>)
10002fe4:	f002 f978 	bl	100052d8 <__wrap___aeabi_fcmpgt>
10002fe8:	2800      	cmp	r0, #0
10002fea:	d101      	bne.n	10002ff0 <main+0x2194>
10002fec:	f7fe f9a5 	bl	1000133a <main+0x4de>
10002ff0:	1c20      	adds	r0, r4, #0
10002ff2:	f002 f99d 	bl	10005330 <__wrap___aeabi_f2d>
10002ff6:	4b55      	ldr	r3, [pc, #340]	@ (1000314c <main+0x22f0>)
10002ff8:	900a      	str	r0, [sp, #40]	@ 0x28
10002ffa:	910b      	str	r1, [sp, #44]	@ 0x2c
10002ffc:	9303      	str	r3, [sp, #12]
10002ffe:	9b07      	ldr	r3, [sp, #28]
10003000:	1c28      	adds	r0, r5, #0
10003002:	9302      	str	r3, [sp, #8]
10003004:	f002 f994 	bl	10005330 <__wrap___aeabi_f2d>
10003008:	9a0a      	ldr	r2, [sp, #40]	@ 0x28
1000300a:	9b0b      	ldr	r3, [sp, #44]	@ 0x2c
1000300c:	9000      	str	r0, [sp, #0]
1000300e:	9101      	str	r1, [sp, #4]
10003010:	980e      	ldr	r0, [sp, #56]	@ 0x38
10003012:	f006 f961 	bl	100092d8 <_Z11MicroPrintfPKcz>
10003016:	465a      	mov	r2, fp
10003018:	9b04      	ldr	r3, [sp, #16]
1000301a:	701a      	strb	r2, [r3, #0]
1000301c:	f7fe f98d 	bl	1000133a <main+0x4de>
10003020:	9b05      	ldr	r3, [sp, #20]
10003022:	2201      	movs	r2, #1
10003024:	681b      	ldr	r3, [r3, #0]
10003026:	f7fe fd4b 	bl	10001ac0 <main+0xc64>
1000302a:	9b05      	ldr	r3, [sp, #20]
1000302c:	2200      	movs	r2, #0
1000302e:	681b      	ldr	r3, [r3, #0]
10003030:	3301      	adds	r3, #1
10003032:	e56f      	b.n	10002b14 <main+0x1cb8>
10003034:	9b05      	ldr	r3, [sp, #20]
10003036:	2200      	movs	r2, #0
10003038:	681b      	ldr	r3, [r3, #0]
1000303a:	3301      	adds	r3, #1
1000303c:	f7ff fb4e 	bl	100026dc <main+0x1880>
10003040:	9b05      	ldr	r3, [sp, #20]
10003042:	2200      	movs	r2, #0
10003044:	681b      	ldr	r3, [r3, #0]
10003046:	3301      	adds	r3, #1
10003048:	f7ff f9d2 	bl	100023f0 <main+0x1594>
1000304c:	9b05      	ldr	r3, [sp, #20]
1000304e:	2201      	movs	r2, #1
10003050:	681b      	ldr	r3, [r3, #0]
10003052:	f7fe ffb8 	bl	10001fc6 <main+0x116a>
10003056:	9b05      	ldr	r3, [sp, #20]
10003058:	2201      	movs	r2, #1
1000305a:	681b      	ldr	r3, [r3, #0]
1000305c:	f7fe ff83 	bl	10001f66 <main+0x110a>
10003060:	9b05      	ldr	r3, [sp, #20]
10003062:	2201      	movs	r2, #1
10003064:	681b      	ldr	r3, [r3, #0]
10003066:	f7fe ff4e 	bl	10001f06 <main+0x10aa>
1000306a:	9b05      	ldr	r3, [sp, #20]
1000306c:	2200      	movs	r2, #0
1000306e:	6819      	ldr	r1, [r3, #0]
10003070:	3101      	adds	r1, #1
10003072:	e6c8      	b.n	10002e06 <main+0x1faa>
10003074:	22fd      	movs	r2, #253	@ 0xfd
10003076:	2300      	movs	r3, #0
10003078:	9000      	str	r0, [sp, #0]
1000307a:	0052      	lsls	r2, r2, #1
1000307c:	9826      	ldr	r0, [sp, #152]	@ 0x98
1000307e:	9907      	ldr	r1, [sp, #28]
10003080:	f006 f92a 	bl	100092d8 <_Z11MicroPrintfPKcz>
10003084:	4642      	mov	r2, r8
10003086:	9b04      	ldr	r3, [sp, #16]
10003088:	701a      	strb	r2, [r3, #0]
1000308a:	23d7      	movs	r3, #215	@ 0xd7
1000308c:	aa28      	add	r2, sp, #160	@ 0xa0
1000308e:	4694      	mov	ip, r2
10003090:	00db      	lsls	r3, r3, #3
10003092:	4463      	add	r3, ip
10003094:	0018      	movs	r0, r3
10003096:	f005 fdc7 	bl	10008c28 <_ZN6tflite5micro12KernelRunner29ValidateTempBufferDeallocatedEv>
1000309a:	2800      	cmp	r0, #0
1000309c:	d001      	beq.n	100030a2 <main+0x2246>
1000309e:	f7fe f9fd 	bl	1000149c <main+0x640>
100030a2:	22fc      	movs	r2, #252	@ 0xfc
100030a4:	9907      	ldr	r1, [sp, #28]
100030a6:	32ff      	adds	r2, #255	@ 0xff
100030a8:	9825      	ldr	r0, [sp, #148]	@ 0x94
100030aa:	f006 f915 	bl	100092d8 <_Z11MicroPrintfPKcz>
100030ae:	4642      	mov	r2, r8
100030b0:	9b04      	ldr	r3, [sp, #16]
100030b2:	701a      	strb	r2, [r3, #0]
100030b4:	f7fe f9f2 	bl	1000149c <main+0x640>
100030b8:	2201      	movs	r2, #1
100030ba:	f7fe f9fb 	bl	100014b4 <main+0x658>
100030be:	1c21      	adds	r1, r4, #0
100030c0:	1c28      	adds	r0, r5, #0
100030c2:	f002 f8b2 	bl	1000522a <__wrap___aeabi_fsub>
100030c6:	e78c      	b.n	10002fe2 <main+0x2186>
100030c8:	1c21      	adds	r1, r4, #0
100030ca:	1c28      	adds	r0, r5, #0
100030cc:	f002 f8ad 	bl	1000522a <__wrap___aeabi_fsub>
100030d0:	e742      	b.n	10002f58 <main+0x20fc>
100030d2:	1c21      	adds	r1, r4, #0
100030d4:	1c28      	adds	r0, r5, #0
100030d6:	f002 f8a8 	bl	1000522a <__wrap___aeabi_fsub>
100030da:	e75f      	b.n	10002f9c <main+0x2140>
100030dc:	1c21      	adds	r1, r4, #0
100030de:	1c28      	adds	r0, r5, #0
100030e0:	f002 f8a3 	bl	1000522a <__wrap___aeabi_fsub>
100030e4:	e6f2      	b.n	10002ecc <main+0x2070>
100030e6:	1c21      	adds	r1, r4, #0
100030e8:	1c28      	adds	r0, r5, #0
100030ea:	f002 f89e 	bl	1000522a <__wrap___aeabi_fsub>
100030ee:	e710      	b.n	10002f12 <main+0x20b6>
100030f0:	1c21      	adds	r1, r4, #0
100030f2:	1c28      	adds	r0, r5, #0
100030f4:	f002 f899 	bl	1000522a <__wrap___aeabi_fsub>
100030f8:	e6a2      	b.n	10002e40 <main+0x1fe4>
100030fa:	1c21      	adds	r1, r4, #0
100030fc:	1c28      	adds	r0, r5, #0
100030fe:	f002 f894 	bl	1000522a <__wrap___aeabi_fsub>
10003102:	e6c0      	b.n	10002e86 <main+0x202a>
10003104:	4a12      	ldr	r2, [pc, #72]	@ (10003150 <main+0x22f4>)
10003106:	9907      	ldr	r1, [sp, #28]
10003108:	9825      	ldr	r0, [sp, #148]	@ 0x94
1000310a:	f006 f8e5 	bl	100092d8 <_Z11MicroPrintfPKcz>
1000310e:	465a      	mov	r2, fp
10003110:	9b04      	ldr	r3, [sp, #16]
10003112:	701a      	strb	r2, [r3, #0]
10003114:	9b06      	ldr	r3, [sp, #24]
10003116:	701a      	strb	r2, [r3, #0]
10003118:	9b05      	ldr	r3, [sp, #20]
1000311a:	2201      	movs	r2, #1
1000311c:	681b      	ldr	r3, [r3, #0]
1000311e:	f7fe f9c9 	bl	100014b4 <main+0x658>
10003122:	982b      	ldr	r0, [sp, #172]	@ 0xac
10003124:	f006 f8d8 	bl	100092d8 <_Z11MicroPrintfPKcz>
10003128:	f7fd feeb 	bl	10000f02 <main+0xa6>
1000312c:	100114cc 	.word	0x100114cc
10003130:	3d52b843 	.word	0x3d52b843
10003134:	40600000 	.word	0x40600000
10003138:	fdec16fd 	.word	0xfdec16fd
1000313c:	efe26025 	.word	0xefe26025
10003140:	02130bff 	.word	0x02130bff
10003144:	fc01fcff 	.word	0xfc01fcff
10003148:	3727c5ac 	.word	0x3727c5ac
1000314c:	00000211 	.word	0x00000211
10003150:	00000217 	.word	0x00000217

10003154 <rp2040_chip_version>:
10003154:	2380      	movs	r3, #128	@ 0x80
10003156:	05db      	lsls	r3, r3, #23
10003158:	6818      	ldr	r0, [r3, #0]
1000315a:	0f00      	lsrs	r0, r0, #28
1000315c:	4770      	bx	lr
1000315e:	46c0      	nop			@ (mov r8, r8)

10003160 <panic>:
10003160:	b40f      	push	{r0, r1, r2, r3}
10003162:	b500      	push	{lr}
10003164:	4808      	ldr	r0, [pc, #32]	@ (10003188 <panic+0x28>)
10003166:	b083      	sub	sp, #12
10003168:	f002 fbf4 	bl	10005954 <__wrap_puts>
1000316c:	9b04      	ldr	r3, [sp, #16]
1000316e:	2b00      	cmp	r3, #0
10003170:	d007      	beq.n	10003182 <panic+0x22>
10003172:	a905      	add	r1, sp, #20
10003174:	0018      	movs	r0, r3
10003176:	9101      	str	r1, [sp, #4]
10003178:	f002 f9ca 	bl	10005510 <weak_raw_vprintf>
1000317c:	4803      	ldr	r0, [pc, #12]	@ (1000318c <panic+0x2c>)
1000317e:	f002 fbe9 	bl	10005954 <__wrap_puts>
10003182:	2001      	movs	r0, #1
10003184:	f002 f9dc 	bl	10005540 <_exit>
10003188:	100106f4 	.word	0x100106f4
1000318c:	10010704 	.word	0x10010704

10003190 <hw_claim_or_assert>:
10003190:	b570      	push	{r4, r5, r6, lr}
10003192:	f3ef 8c10 	mrs	ip, PRIMASK
10003196:	b672      	cpsid	i
10003198:	4d0d      	ldr	r5, [pc, #52]	@ (100031d0 <hw_claim_or_assert+0x40>)
1000319a:	682b      	ldr	r3, [r5, #0]
1000319c:	2b00      	cmp	r3, #0
1000319e:	d0fc      	beq.n	1000319a <hw_claim_or_assert+0xa>
100031a0:	f3bf 8f5f 	dmb	sy
100031a4:	2407      	movs	r4, #7
100031a6:	08cb      	lsrs	r3, r1, #3
100031a8:	18c6      	adds	r6, r0, r3
100031aa:	5cc0      	ldrb	r0, [r0, r3]
100031ac:	2301      	movs	r3, #1
100031ae:	400c      	ands	r4, r1
100031b0:	40a3      	lsls	r3, r4
100031b2:	001c      	movs	r4, r3
100031b4:	4004      	ands	r4, r0
100031b6:	4203      	tst	r3, r0
100031b8:	d107      	bne.n	100031ca <hw_claim_or_assert+0x3a>
100031ba:	4318      	orrs	r0, r3
100031bc:	7030      	strb	r0, [r6, #0]
100031be:	f3bf 8f5f 	dmb	sy
100031c2:	602c      	str	r4, [r5, #0]
100031c4:	f38c 8810 	msr	PRIMASK, ip
100031c8:	bd70      	pop	{r4, r5, r6, pc}
100031ca:	0010      	movs	r0, r2
100031cc:	f7ff ffc8 	bl	10003160 <panic>
100031d0:	d000012c 	.word	0xd000012c

100031d4 <hw_claim_unused_from_range>:
100031d4:	b5f8      	push	{r3, r4, r5, r6, r7, lr}
100031d6:	4647      	mov	r7, r8
100031d8:	46ce      	mov	lr, r9
100031da:	4688      	mov	r8, r1
100031dc:	b580      	push	{r7, lr}
100031de:	f3ef 8c10 	mrs	ip, PRIMASK
100031e2:	b672      	cpsid	i
100031e4:	4d21      	ldr	r5, [pc, #132]	@ (1000326c <hw_claim_unused_from_range+0x98>)
100031e6:	682c      	ldr	r4, [r5, #0]
100031e8:	2c00      	cmp	r4, #0
100031ea:	d0fc      	beq.n	100031e6 <hw_claim_unused_from_range+0x12>
100031ec:	f3bf 8f5f 	dmb	sy
100031f0:	429a      	cmp	r2, r3
100031f2:	d82c      	bhi.n	1000324e <hw_claim_unused_from_range+0x7a>
100031f4:	08d4      	lsrs	r4, r2, #3
100031f6:	2707      	movs	r7, #7
100031f8:	5d05      	ldrb	r5, [r0, r4]
100031fa:	1906      	adds	r6, r0, r4
100031fc:	2401      	movs	r4, #1
100031fe:	4017      	ands	r7, r2
10003200:	40bc      	lsls	r4, r7
10003202:	422c      	tst	r4, r5
10003204:	d01f      	beq.n	10003246 <hw_claim_unused_from_range+0x72>
10003206:	2107      	movs	r1, #7
10003208:	2701      	movs	r7, #1
1000320a:	4689      	mov	r9, r1
1000320c:	e009      	b.n	10003222 <hw_claim_unused_from_range+0x4e>
1000320e:	08d4      	lsrs	r4, r2, #3
10003210:	5d05      	ldrb	r5, [r0, r4]
10003212:	1906      	adds	r6, r0, r4
10003214:	464c      	mov	r4, r9
10003216:	0039      	movs	r1, r7
10003218:	4014      	ands	r4, r2
1000321a:	40a1      	lsls	r1, r4
1000321c:	000c      	movs	r4, r1
1000321e:	4229      	tst	r1, r5
10003220:	d011      	beq.n	10003246 <hw_claim_unused_from_range+0x72>
10003222:	3201      	adds	r2, #1
10003224:	4293      	cmp	r3, r2
10003226:	d2f2      	bcs.n	1000320e <hw_claim_unused_from_range+0x3a>
10003228:	2001      	movs	r0, #1
1000322a:	4240      	negs	r0, r0
1000322c:	f3bf 8f5f 	dmb	sy
10003230:	2200      	movs	r2, #0
10003232:	4b0e      	ldr	r3, [pc, #56]	@ (1000326c <hw_claim_unused_from_range+0x98>)
10003234:	601a      	str	r2, [r3, #0]
10003236:	f38c 8810 	msr	PRIMASK, ip
1000323a:	2800      	cmp	r0, #0
1000323c:	db0f      	blt.n	1000325e <hw_claim_unused_from_range+0x8a>
1000323e:	bcc0      	pop	{r6, r7}
10003240:	46b9      	mov	r9, r7
10003242:	46b0      	mov	r8, r6
10003244:	bdf8      	pop	{r3, r4, r5, r6, r7, pc}
10003246:	4325      	orrs	r5, r4
10003248:	0010      	movs	r0, r2
1000324a:	7035      	strb	r5, [r6, #0]
1000324c:	e7ee      	b.n	1000322c <hw_claim_unused_from_range+0x58>
1000324e:	f3bf 8f5f 	dmb	sy
10003252:	2300      	movs	r3, #0
10003254:	602b      	str	r3, [r5, #0]
10003256:	f38c 8810 	msr	PRIMASK, ip
1000325a:	2001      	movs	r0, #1
1000325c:	4240      	negs	r0, r0
1000325e:	4643      	mov	r3, r8
10003260:	2b00      	cmp	r3, #0
10003262:	d0ec      	beq.n	1000323e <hw_claim_unused_from_range+0x6a>
10003264:	9808      	ldr	r0, [sp, #32]
10003266:	f7ff ff7b 	bl	10003160 <panic>
1000326a:	46c0      	nop			@ (mov r8, r8)
1000326c:	d000012c 	.word	0xd000012c

10003270 <next_striped_spin_lock_num>:
10003270:	4a04      	ldr	r2, [pc, #16]	@ (10003284 <next_striped_spin_lock_num+0x14>)
10003272:	7810      	ldrb	r0, [r2, #0]
10003274:	1c43      	adds	r3, r0, #1
10003276:	b2db      	uxtb	r3, r3
10003278:	2b17      	cmp	r3, #23
1000327a:	d900      	bls.n	1000327e <next_striped_spin_lock_num+0xe>
1000327c:	2310      	movs	r3, #16
1000327e:	7013      	strb	r3, [r2, #0]
10003280:	4770      	bx	lr
10003282:	46c0      	nop			@ (mov r8, r8)
10003284:	20001110 	.word	0x20001110

10003288 <spin_lock_claim_unused>:
10003288:	b510      	push	{r4, lr}
1000328a:	4b06      	ldr	r3, [pc, #24]	@ (100032a4 <spin_lock_claim_unused+0x1c>)
1000328c:	4c06      	ldr	r4, [pc, #24]	@ (100032a8 <spin_lock_claim_unused+0x20>)
1000328e:	b082      	sub	sp, #8
10003290:	0001      	movs	r1, r0
10003292:	9300      	str	r3, [sp, #0]
10003294:	2218      	movs	r2, #24
10003296:	231f      	movs	r3, #31
10003298:	0020      	movs	r0, r4
1000329a:	f7ff ff9b 	bl	100031d4 <hw_claim_unused_from_range>
1000329e:	b002      	add	sp, #8
100032a0:	bd10      	pop	{r4, pc}
100032a2:	46c0      	nop			@ (mov r8, r8)
100032a4:	10010708 	.word	0x10010708
100032a8:	20004d08 	.word	0x20004d08

100032ac <spin_locks_reset>:
100032ac:	2100      	movs	r1, #0
100032ae:	4b04      	ldr	r3, [pc, #16]	@ (100032c0 <spin_locks_reset+0x14>)
100032b0:	4a04      	ldr	r2, [pc, #16]	@ (100032c4 <spin_locks_reset+0x18>)
100032b2:	f3bf 8f5f 	dmb	sy
100032b6:	c302      	stmia	r3!, {r1}
100032b8:	4293      	cmp	r3, r2
100032ba:	d1fa      	bne.n	100032b2 <spin_locks_reset+0x6>
100032bc:	4770      	bx	lr
100032be:	46c0      	nop			@ (mov r8, r8)
100032c0:	d0000100 	.word	0xd0000100
100032c4:	d0000180 	.word	0xd0000180

100032c8 <runtime_init_per_core_irq_priorities>:
100032c8:	4b05      	ldr	r3, [pc, #20]	@ (100032e0 <runtime_init_per_core_irq_priorities+0x18>)
100032ca:	4a06      	ldr	r2, [pc, #24]	@ (100032e4 <runtime_init_per_core_irq_priorities+0x1c>)
100032cc:	6013      	str	r3, [r2, #0]
100032ce:	4a06      	ldr	r2, [pc, #24]	@ (100032e8 <runtime_init_per_core_irq_priorities+0x20>)
100032d0:	6013      	str	r3, [r2, #0]
100032d2:	6053      	str	r3, [r2, #4]
100032d4:	6093      	str	r3, [r2, #8]
100032d6:	60d3      	str	r3, [r2, #12]
100032d8:	6113      	str	r3, [r2, #16]
100032da:	6153      	str	r3, [r2, #20]
100032dc:	6193      	str	r3, [r2, #24]
100032de:	4770      	bx	lr
100032e0:	80808080 	.word	0x80808080
100032e4:	e000e400 	.word	0xe000e400
100032e8:	e000e404 	.word	0xe000e404

100032ec <irq_set_enabled>:
100032ec:	231f      	movs	r3, #31
100032ee:	4018      	ands	r0, r3
100032f0:	3b1e      	subs	r3, #30
100032f2:	4083      	lsls	r3, r0
100032f4:	2900      	cmp	r1, #0
100032f6:	d005      	beq.n	10003304 <irq_set_enabled+0x18>
100032f8:	21c0      	movs	r1, #192	@ 0xc0
100032fa:	4a04      	ldr	r2, [pc, #16]	@ (1000330c <irq_set_enabled+0x20>)
100032fc:	0049      	lsls	r1, r1, #1
100032fe:	5053      	str	r3, [r2, r1]
10003300:	6013      	str	r3, [r2, #0]
10003302:	4770      	bx	lr
10003304:	2280      	movs	r2, #128	@ 0x80
10003306:	4901      	ldr	r1, [pc, #4]	@ (1000330c <irq_set_enabled+0x20>)
10003308:	508b      	str	r3, [r1, r2]
1000330a:	e7fa      	b.n	10003302 <irq_set_enabled+0x16>
1000330c:	e000e100 	.word	0xe000e100

10003310 <irq_is_enabled>:
10003310:	2201      	movs	r2, #1
10003312:	4082      	lsls	r2, r0
10003314:	4b03      	ldr	r3, [pc, #12]	@ (10003324 <irq_is_enabled+0x14>)
10003316:	681b      	ldr	r3, [r3, #0]
10003318:	4013      	ands	r3, r2
1000331a:	1e5a      	subs	r2, r3, #1
1000331c:	4193      	sbcs	r3, r2
1000331e:	b2d8      	uxtb	r0, r3
10003320:	4770      	bx	lr
10003322:	46c0      	nop			@ (mov r8, r8)
10003324:	e000e100 	.word	0xe000e100

10003328 <irq_set_pending>:
10003328:	2301      	movs	r3, #1
1000332a:	4083      	lsls	r3, r0
1000332c:	4a01      	ldr	r2, [pc, #4]	@ (10003334 <irq_set_pending+0xc>)
1000332e:	6013      	str	r3, [r2, #0]
10003330:	4770      	bx	lr
10003332:	46c0      	nop			@ (mov r8, r8)
10003334:	e000e200 	.word	0xe000e200

10003338 <irq_has_shared_handler>:
10003338:	4b08      	ldr	r3, [pc, #32]	@ (1000335c <irq_has_shared_handler+0x24>)
1000333a:	3010      	adds	r0, #16
1000333c:	689b      	ldr	r3, [r3, #8]
1000333e:	0080      	lsls	r0, r0, #2
10003340:	58c3      	ldr	r3, [r0, r3]
10003342:	2b00      	cmp	r3, #0
10003344:	d007      	beq.n	10003356 <irq_has_shared_handler+0x1e>
10003346:	4a06      	ldr	r2, [pc, #24]	@ (10003360 <irq_has_shared_handler+0x28>)
10003348:	2000      	movs	r0, #0
1000334a:	1a9b      	subs	r3, r3, r2
1000334c:	222f      	movs	r2, #47	@ 0x2f
1000334e:	429a      	cmp	r2, r3
10003350:	4140      	adcs	r0, r0
10003352:	b2c0      	uxtb	r0, r0
10003354:	4770      	bx	lr
10003356:	2000      	movs	r0, #0
10003358:	e7fc      	b.n	10003354 <irq_has_shared_handler+0x1c>
1000335a:	46c0      	nop			@ (mov r8, r8)
1000335c:	e000ed00 	.word	0xe000ed00
10003360:	20001114 	.word	0x20001114

10003364 <irq_set_exclusive_handler>:
10003364:	b570      	push	{r4, r5, r6, lr}
10003366:	000d      	movs	r5, r1
10003368:	f3ef 8610 	mrs	r6, PRIMASK
1000336c:	b672      	cpsid	i
1000336e:	4a0f      	ldr	r2, [pc, #60]	@ (100033ac <irq_set_exclusive_handler+0x48>)
10003370:	6813      	ldr	r3, [r2, #0]
10003372:	2b00      	cmp	r3, #0
10003374:	d0fc      	beq.n	10003370 <irq_set_exclusive_handler+0xc>
10003376:	f3bf 8f5f 	dmb	sy
1000337a:	4b0d      	ldr	r3, [pc, #52]	@ (100033b0 <irq_set_exclusive_handler+0x4c>)
1000337c:	3010      	adds	r0, #16
1000337e:	689b      	ldr	r3, [r3, #8]
10003380:	0084      	lsls	r4, r0, #2
10003382:	591b      	ldr	r3, [r3, r4]
10003384:	4a0b      	ldr	r2, [pc, #44]	@ (100033b4 <irq_set_exclusive_handler+0x50>)
10003386:	4293      	cmp	r3, r2
10003388:	d003      	beq.n	10003392 <irq_set_exclusive_handler+0x2e>
1000338a:	429d      	cmp	r5, r3
1000338c:	d001      	beq.n	10003392 <irq_set_exclusive_handler+0x2e>
1000338e:	f000 ff91 	bl	100042b4 <hard_assertion_failure>
10003392:	4b07      	ldr	r3, [pc, #28]	@ (100033b0 <irq_set_exclusive_handler+0x4c>)
10003394:	689b      	ldr	r3, [r3, #8]
10003396:	511d      	str	r5, [r3, r4]
10003398:	f3bf 8f5f 	dmb	sy
1000339c:	f3bf 8f5f 	dmb	sy
100033a0:	2200      	movs	r2, #0
100033a2:	4b02      	ldr	r3, [pc, #8]	@ (100033ac <irq_set_exclusive_handler+0x48>)
100033a4:	601a      	str	r2, [r3, #0]
100033a6:	f386 8810 	msr	PRIMASK, r6
100033aa:	bd70      	pop	{r4, r5, r6, pc}
100033ac:	d0000124 	.word	0xd0000124
100033b0:	e000ed00 	.word	0xe000ed00
100033b4:	100001cd 	.word	0x100001cd

100033b8 <irq_add_shared_handler>:
100033b8:	b5f0      	push	{r4, r5, r6, r7, lr}
100033ba:	4657      	mov	r7, sl
100033bc:	464e      	mov	r6, r9
100033be:	46de      	mov	lr, fp
100033c0:	4645      	mov	r5, r8
100033c2:	b5e0      	push	{r5, r6, r7, lr}
100033c4:	b085      	sub	sp, #20
100033c6:	0006      	movs	r6, r0
100033c8:	9100      	str	r1, [sp, #0]
100033ca:	0017      	movs	r7, r2
100033cc:	f3ef 8b10 	mrs	fp, PRIMASK
100033d0:	b672      	cpsid	i
100033d2:	4a6a      	ldr	r2, [pc, #424]	@ (1000357c <irq_add_shared_handler+0x1c4>)
100033d4:	6813      	ldr	r3, [r2, #0]
100033d6:	2b00      	cmp	r3, #0
100033d8:	d0fc      	beq.n	100033d4 <irq_add_shared_handler+0x1c>
100033da:	f3bf 8f5f 	dmb	sy
100033de:	2500      	movs	r5, #0
100033e0:	4b67      	ldr	r3, [pc, #412]	@ (10003580 <irq_add_shared_handler+0x1c8>)
100033e2:	575d      	ldrsb	r5, [r3, r5]
100033e4:	469a      	mov	sl, r3
100033e6:	2d00      	cmp	r5, #0
100033e8:	da00      	bge.n	100033ec <irq_add_shared_handler+0x34>
100033ea:	e0a9      	b.n	10003540 <irq_add_shared_handler+0x188>
100033ec:	006b      	lsls	r3, r5, #1
100033ee:	4c65      	ldr	r4, [pc, #404]	@ (10003584 <irq_add_shared_handler+0x1cc>)
100033f0:	9301      	str	r3, [sp, #4]
100033f2:	195b      	adds	r3, r3, r5
100033f4:	009b      	lsls	r3, r3, #2
100033f6:	4698      	mov	r8, r3
100033f8:	46a1      	mov	r9, r4
100033fa:	44c1      	add	r9, r8
100033fc:	464b      	mov	r3, r9
100033fe:	4652      	mov	r2, sl
10003400:	799b      	ldrb	r3, [r3, #6]
10003402:	3610      	adds	r6, #16
10003404:	7013      	strb	r3, [r2, #0]
10003406:	4b60      	ldr	r3, [pc, #384]	@ (10003588 <irq_add_shared_handler+0x1d0>)
10003408:	00b6      	lsls	r6, r6, #2
1000340a:	689b      	ldr	r3, [r3, #8]
1000340c:	5999      	ldr	r1, [r3, r6]
1000340e:	1b0b      	subs	r3, r1, r4
10003410:	2b2f      	cmp	r3, #47	@ 0x2f
10003412:	d933      	bls.n	1000347c <irq_add_shared_handler+0xc4>
10003414:	4b5d      	ldr	r3, [pc, #372]	@ (1000358c <irq_add_shared_handler+0x1d4>)
10003416:	4299      	cmp	r1, r3
10003418:	d000      	beq.n	1000341c <irq_add_shared_handler+0x64>
1000341a:	e0ac      	b.n	10003576 <irq_add_shared_handler+0x1be>
1000341c:	9b01      	ldr	r3, [sp, #4]
1000341e:	4642      	mov	r2, r8
10003420:	469c      	mov	ip, r3
10003422:	4b5b      	ldr	r3, [pc, #364]	@ (10003590 <irq_add_shared_handler+0x1d8>)
10003424:	4465      	add	r5, ip
10003426:	00ad      	lsls	r5, r5, #2
10003428:	5363      	strh	r3, [r4, r5]
1000342a:	4b5a      	ldr	r3, [pc, #360]	@ (10003594 <irq_add_shared_handler+0x1dc>)
1000342c:	3202      	adds	r2, #2
1000342e:	18a2      	adds	r2, r4, r2
10003430:	3b04      	subs	r3, #4
10003432:	1a9b      	subs	r3, r3, r2
10003434:	051b      	lsls	r3, r3, #20
10003436:	4a58      	ldr	r2, [pc, #352]	@ (10003598 <irq_add_shared_handler+0x1e0>)
10003438:	0d5b      	lsrs	r3, r3, #21
1000343a:	1965      	adds	r5, r4, r5
1000343c:	4313      	orrs	r3, r2
1000343e:	806b      	strh	r3, [r5, #2]
10003440:	4b56      	ldr	r3, [pc, #344]	@ (1000359c <irq_add_shared_handler+0x1e4>)
10003442:	2101      	movs	r1, #1
10003444:	80ab      	strh	r3, [r5, #4]
10003446:	23ff      	movs	r3, #255	@ 0xff
10003448:	71ab      	strb	r3, [r5, #6]
1000344a:	9b00      	ldr	r3, [sp, #0]
1000344c:	71ef      	strb	r7, [r5, #7]
1000344e:	60ab      	str	r3, [r5, #8]
10003450:	464b      	mov	r3, r9
10003452:	430b      	orrs	r3, r1
10003454:	0019      	movs	r1, r3
10003456:	4b4c      	ldr	r3, [pc, #304]	@ (10003588 <irq_add_shared_handler+0x1d0>)
10003458:	689b      	ldr	r3, [r3, #8]
1000345a:	5199      	str	r1, [r3, r6]
1000345c:	f3bf 8f5f 	dmb	sy
10003460:	f3bf 8f5f 	dmb	sy
10003464:	2200      	movs	r2, #0
10003466:	4b45      	ldr	r3, [pc, #276]	@ (1000357c <irq_add_shared_handler+0x1c4>)
10003468:	601a      	str	r2, [r3, #0]
1000346a:	f38b 8810 	msr	PRIMASK, fp
1000346e:	b005      	add	sp, #20
10003470:	bcf0      	pop	{r4, r5, r6, r7}
10003472:	46bb      	mov	fp, r7
10003474:	46b2      	mov	sl, r6
10003476:	46a9      	mov	r9, r5
10003478:	46a0      	mov	r8, r4
1000347a:	bdf0      	pop	{r4, r5, r6, r7, pc}
1000347c:	2001      	movs	r0, #1
1000347e:	000a      	movs	r2, r1
10003480:	4382      	bics	r2, r0
10003482:	79d3      	ldrb	r3, [r2, #7]
10003484:	468c      	mov	ip, r1
10003486:	42bb      	cmp	r3, r7
10003488:	d831      	bhi.n	100034ee <irq_add_shared_handler+0x136>
1000348a:	4645      	mov	r5, r8
1000348c:	0013      	movs	r3, r2
1000348e:	4944      	ldr	r1, [pc, #272]	@ (100035a0 <irq_add_shared_handler+0x1e8>)
10003490:	1b1b      	subs	r3, r3, r4
10003492:	415b      	adcs	r3, r3
10003494:	4359      	muls	r1, r3
10003496:	0d09      	lsrs	r1, r1, #20
10003498:	4b3d      	ldr	r3, [pc, #244]	@ (10003590 <irq_add_shared_handler+0x1d8>)
1000349a:	5363      	strh	r3, [r4, r5]
1000349c:	4b3d      	ldr	r3, [pc, #244]	@ (10003594 <irq_add_shared_handler+0x1dc>)
1000349e:	3502      	adds	r5, #2
100034a0:	1965      	adds	r5, r4, r5
100034a2:	3b04      	subs	r3, #4
100034a4:	1b5b      	subs	r3, r3, r5
100034a6:	051b      	lsls	r3, r3, #20
100034a8:	4d3b      	ldr	r5, [pc, #236]	@ (10003598 <irq_add_shared_handler+0x1e0>)
100034aa:	0d5b      	lsrs	r3, r3, #21
100034ac:	432b      	orrs	r3, r5
100034ae:	46aa      	mov	sl, r5
100034b0:	464d      	mov	r5, r9
100034b2:	806b      	strh	r3, [r5, #2]
100034b4:	2504      	movs	r5, #4
100034b6:	46ac      	mov	ip, r5
100034b8:	4655      	mov	r5, sl
100034ba:	44e0      	add	r8, ip
100034bc:	1f13      	subs	r3, r2, #4
100034be:	4444      	add	r4, r8
100034c0:	1b1b      	subs	r3, r3, r4
100034c2:	051b      	lsls	r3, r3, #20
100034c4:	0d5b      	lsrs	r3, r3, #21
100034c6:	431d      	orrs	r5, r3
100034c8:	464b      	mov	r3, r9
100034ca:	7199      	strb	r1, [r3, #6]
100034cc:	9900      	ldr	r1, [sp, #0]
100034ce:	809d      	strh	r5, [r3, #4]
100034d0:	6099      	str	r1, [r3, #8]
100034d2:	4649      	mov	r1, r9
100034d4:	71df      	strb	r7, [r3, #7]
100034d6:	4b33      	ldr	r3, [pc, #204]	@ (100035a4 <irq_add_shared_handler+0x1ec>)
100034d8:	4301      	orrs	r1, r0
100034da:	6013      	str	r3, [r2, #0]
100034dc:	e7bb      	b.n	10003456 <irq_add_shared_handler+0x9e>
100034de:	0058      	lsls	r0, r3, #1
100034e0:	18c0      	adds	r0, r0, r3
100034e2:	0080      	lsls	r0, r0, #2
100034e4:	1820      	adds	r0, r4, r0
100034e6:	79c1      	ldrb	r1, [r0, #7]
100034e8:	42b9      	cmp	r1, r7
100034ea:	d92f      	bls.n	1000354c <irq_add_shared_handler+0x194>
100034ec:	0002      	movs	r2, r0
100034ee:	2306      	movs	r3, #6
100034f0:	56d3      	ldrsb	r3, [r2, r3]
100034f2:	2b00      	cmp	r3, #0
100034f4:	daf3      	bge.n	100034de <irq_add_shared_handler+0x126>
100034f6:	9302      	str	r3, [sp, #8]
100034f8:	4b2b      	ldr	r3, [pc, #172]	@ (100035a8 <irq_add_shared_handler+0x1f0>)
100034fa:	4661      	mov	r1, ip
100034fc:	9303      	str	r3, [sp, #12]
100034fe:	1d13      	adds	r3, r2, #4
10003500:	469a      	mov	sl, r3
10003502:	2304      	movs	r3, #4
10003504:	425b      	negs	r3, r3
10003506:	469c      	mov	ip, r3
10003508:	44e1      	add	r9, ip
1000350a:	4650      	mov	r0, sl
1000350c:	464b      	mov	r3, r9
1000350e:	1a1b      	subs	r3, r3, r0
10003510:	051b      	lsls	r3, r3, #20
10003512:	0d5b      	lsrs	r3, r3, #21
10003514:	469c      	mov	ip, r3
10003516:	4b20      	ldr	r3, [pc, #128]	@ (10003598 <irq_add_shared_handler+0x1e0>)
10003518:	7195      	strb	r5, [r2, #6]
1000351a:	4698      	mov	r8, r3
1000351c:	4663      	mov	r3, ip
1000351e:	4640      	mov	r0, r8
10003520:	4303      	orrs	r3, r0
10003522:	8093      	strh	r3, [r2, #4]
10003524:	9b01      	ldr	r3, [sp, #4]
10003526:	195a      	adds	r2, r3, r5
10003528:	0092      	lsls	r2, r2, #2
1000352a:	9b03      	ldr	r3, [sp, #12]
1000352c:	18a4      	adds	r4, r4, r2
1000352e:	80a3      	strh	r3, [r4, #4]
10003530:	9b02      	ldr	r3, [sp, #8]
10003532:	4a1c      	ldr	r2, [pc, #112]	@ (100035a4 <irq_add_shared_handler+0x1ec>)
10003534:	71a3      	strb	r3, [r4, #6]
10003536:	9b00      	ldr	r3, [sp, #0]
10003538:	6022      	str	r2, [r4, #0]
1000353a:	71e7      	strb	r7, [r4, #7]
1000353c:	60a3      	str	r3, [r4, #8]
1000353e:	e78a      	b.n	10003456 <irq_add_shared_handler+0x9e>
10003540:	f000 feb8 	bl	100042b4 <hard_assertion_failure>
10003544:	2500      	movs	r5, #0
10003546:	4653      	mov	r3, sl
10003548:	575d      	ldrsb	r5, [r3, r5]
1000354a:	e74f      	b.n	100033ec <irq_add_shared_handler+0x34>
1000354c:	8890      	ldrh	r0, [r2, #4]
1000354e:	9302      	str	r3, [sp, #8]
10003550:	0540      	lsls	r0, r0, #21
10003552:	1d13      	adds	r3, r2, #4
10003554:	469a      	mov	sl, r3
10003556:	1503      	asrs	r3, r0, #20
10003558:	4661      	mov	r1, ip
1000355a:	469c      	mov	ip, r3
1000355c:	4640      	mov	r0, r8
1000355e:	44d4      	add	ip, sl
10003560:	4663      	mov	r3, ip
10003562:	3004      	adds	r0, #4
10003564:	1820      	adds	r0, r4, r0
10003566:	1a18      	subs	r0, r3, r0
10003568:	23e0      	movs	r3, #224	@ 0xe0
1000356a:	0500      	lsls	r0, r0, #20
1000356c:	0d40      	lsrs	r0, r0, #21
1000356e:	021b      	lsls	r3, r3, #8
10003570:	4318      	orrs	r0, r3
10003572:	9003      	str	r0, [sp, #12]
10003574:	e7c5      	b.n	10003502 <irq_add_shared_handler+0x14a>
10003576:	f000 fe9d 	bl	100042b4 <hard_assertion_failure>
1000357a:	e74f      	b.n	1000341c <irq_add_shared_handler+0x64>
1000357c:	d0000124 	.word	0xd0000124
10003580:	200051e3 	.word	0x200051e3
10003584:	20001114 	.word	0x20001114
10003588:	e000ed00 	.word	0xe000ed00
1000358c:	100001cd 	.word	0x100001cd
10003590:	ffffa100 	.word	0xffffa100
10003594:	20001144 	.word	0x20001144
10003598:	ffffe000 	.word	0xffffe000
1000359c:	ffffbd01 	.word	0xffffbd01
100035a0:	0000aaaa 	.word	0x0000aaaa
100035a4:	47804801 	.word	0x47804801
100035a8:	0000bd01 	.word	0x0000bd01

100035ac <irq_add_tail_to_free_list>:
100035ac:	b570      	push	{r4, r5, r6, lr}
100035ae:	2401      	movs	r4, #1
100035b0:	4304      	orrs	r4, r0
100035b2:	f3ef 8105 	mrs	r1, IPSR
100035b6:	f3ef 8c10 	mrs	ip, PRIMASK
100035ba:	b672      	cpsid	i
100035bc:	4a21      	ldr	r2, [pc, #132]	@ (10003644 <irq_add_tail_to_free_list+0x98>)
100035be:	6813      	ldr	r3, [r2, #0]
100035c0:	2b00      	cmp	r3, #0
100035c2:	d0fc      	beq.n	100035be <irq_add_tail_to_free_list+0x12>
100035c4:	f3bf 8f5f 	dmb	sy
100035c8:	4b1f      	ldr	r3, [pc, #124]	@ (10003648 <irq_add_tail_to_free_list+0x9c>)
100035ca:	0005      	movs	r5, r0
100035cc:	4a1f      	ldr	r2, [pc, #124]	@ (1000364c <irq_add_tail_to_free_list+0xa0>)
100035ce:	1aed      	subs	r5, r5, r3
100035d0:	416d      	adcs	r5, r5
100035d2:	436a      	muls	r2, r5
100035d4:	0d12      	lsrs	r2, r2, #20
100035d6:	4d1e      	ldr	r5, [pc, #120]	@ (10003650 <irq_add_tail_to_free_list+0xa4>)
100035d8:	0089      	lsls	r1, r1, #2
100035da:	68ae      	ldr	r6, [r5, #8]
100035dc:	b252      	sxtb	r2, r2
100035de:	5876      	ldr	r6, [r6, r1]
100035e0:	42a6      	cmp	r6, r4
100035e2:	d01c      	beq.n	1000361e <irq_add_tail_to_free_list+0x72>
100035e4:	2106      	movs	r1, #6
100035e6:	5659      	ldrsb	r1, [r3, r1]
100035e8:	4291      	cmp	r1, r2
100035ea:	d01c      	beq.n	10003626 <irq_add_tail_to_free_list+0x7a>
100035ec:	2112      	movs	r1, #18
100035ee:	5659      	ldrsb	r1, [r3, r1]
100035f0:	4291      	cmp	r1, r2
100035f2:	d022      	beq.n	1000363a <irq_add_tail_to_free_list+0x8e>
100035f4:	211e      	movs	r1, #30
100035f6:	5659      	ldrsb	r1, [r3, r1]
100035f8:	4291      	cmp	r1, r2
100035fa:	d020      	beq.n	1000363e <irq_add_tail_to_free_list+0x92>
100035fc:	212a      	movs	r1, #42	@ 0x2a
100035fe:	5659      	ldrsb	r1, [r3, r1]
10003600:	2403      	movs	r4, #3
10003602:	4291      	cmp	r1, r2
10003604:	d010      	beq.n	10003628 <irq_add_tail_to_free_list+0x7c>
10003606:	4b13      	ldr	r3, [pc, #76]	@ (10003654 <irq_add_tail_to_free_list+0xa8>)
10003608:	7819      	ldrb	r1, [r3, #0]
1000360a:	701a      	strb	r2, [r3, #0]
1000360c:	7181      	strb	r1, [r0, #6]
1000360e:	f3bf 8f5f 	dmb	sy
10003612:	2200      	movs	r2, #0
10003614:	4b0b      	ldr	r3, [pc, #44]	@ (10003644 <irq_add_tail_to_free_list+0x98>)
10003616:	601a      	str	r2, [r3, #0]
10003618:	f38c 8810 	msr	PRIMASK, ip
1000361c:	bd70      	pop	{r4, r5, r6, pc}
1000361e:	68ab      	ldr	r3, [r5, #8]
10003620:	4c0d      	ldr	r4, [pc, #52]	@ (10003658 <irq_add_tail_to_free_list+0xac>)
10003622:	505c      	str	r4, [r3, r1]
10003624:	e7ef      	b.n	10003606 <irq_add_tail_to_free_list+0x5a>
10003626:	2400      	movs	r4, #0
10003628:	0061      	lsls	r1, r4, #1
1000362a:	1909      	adds	r1, r1, r4
1000362c:	0089      	lsls	r1, r1, #2
1000362e:	185b      	adds	r3, r3, r1
10003630:	21ff      	movs	r1, #255	@ 0xff
10003632:	7199      	strb	r1, [r3, #6]
10003634:	4909      	ldr	r1, [pc, #36]	@ (1000365c <irq_add_tail_to_free_list+0xb0>)
10003636:	8099      	strh	r1, [r3, #4]
10003638:	e7e5      	b.n	10003606 <irq_add_tail_to_free_list+0x5a>
1000363a:	2401      	movs	r4, #1
1000363c:	e7f4      	b.n	10003628 <irq_add_tail_to_free_list+0x7c>
1000363e:	2402      	movs	r4, #2
10003640:	e7f2      	b.n	10003628 <irq_add_tail_to_free_list+0x7c>
10003642:	46c0      	nop			@ (mov r8, r8)
10003644:	d0000124 	.word	0xd0000124
10003648:	20001114 	.word	0x20001114
1000364c:	0000aaaa 	.word	0x0000aaaa
10003650:	e000ed00 	.word	0xe000ed00
10003654:	200051e3 	.word	0x200051e3
10003658:	100001cd 	.word	0x100001cd
1000365c:	ffffbd01 	.word	0xffffbd01

10003660 <user_irq_claim_unused>:
10003660:	b510      	push	{r4, lr}
10003662:	4b08      	ldr	r3, [pc, #32]	@ (10003684 <user_irq_claim_unused+0x24>)
10003664:	4c08      	ldr	r4, [pc, #32]	@ (10003688 <user_irq_claim_unused+0x28>)
10003666:	b082      	sub	sp, #8
10003668:	0001      	movs	r1, r0
1000366a:	9300      	str	r3, [sp, #0]
1000366c:	2200      	movs	r2, #0
1000366e:	2305      	movs	r3, #5
10003670:	0020      	movs	r0, r4
10003672:	f7ff fdaf 	bl	100031d4 <hw_claim_unused_from_range>
10003676:	2800      	cmp	r0, #0
10003678:	db01      	blt.n	1000367e <user_irq_claim_unused+0x1e>
1000367a:	231f      	movs	r3, #31
1000367c:	1a18      	subs	r0, r3, r0
1000367e:	b002      	add	sp, #8
10003680:	bd10      	pop	{r4, pc}
10003682:	46c0      	nop			@ (mov r8, r8)
10003684:	10010724 	.word	0x10010724
10003688:	200051e7 	.word	0x200051e7

1000368c <lock_init>:
1000368c:	4b02      	ldr	r3, [pc, #8]	@ (10003698 <lock_init+0xc>)
1000368e:	469c      	mov	ip, r3
10003690:	4461      	add	r1, ip
10003692:	0089      	lsls	r1, r1, #2
10003694:	6001      	str	r1, [r0, #0]
10003696:	4770      	bx	lr
10003698:	34000040 	.word	0x34000040

1000369c <runtime_init_mutex>:
1000369c:	b570      	push	{r4, r5, r6, lr}
1000369e:	4c11      	ldr	r4, [pc, #68]	@ (100036e4 <runtime_init_mutex+0x48>)
100036a0:	4d11      	ldr	r5, [pc, #68]	@ (100036e8 <runtime_init_mutex+0x4c>)
100036a2:	42ac      	cmp	r4, r5
100036a4:	d20f      	bcs.n	100036c6 <runtime_init_mutex+0x2a>
100036a6:	26ff      	movs	r6, #255	@ 0xff
100036a8:	6823      	ldr	r3, [r4, #0]
100036aa:	2b00      	cmp	r3, #0
100036ac:	d00c      	beq.n	100036c8 <runtime_init_mutex+0x2c>
100036ae:	f7ff fddf 	bl	10003270 <next_striped_spin_lock_num>
100036b2:	0001      	movs	r1, r0
100036b4:	0020      	movs	r0, r4
100036b6:	f7ff ffe9 	bl	1000368c <lock_init>
100036ba:	80a6      	strh	r6, [r4, #4]
100036bc:	f3bf 8f5f 	dmb	sy
100036c0:	3408      	adds	r4, #8
100036c2:	42ac      	cmp	r4, r5
100036c4:	d3f0      	bcc.n	100036a8 <runtime_init_mutex+0xc>
100036c6:	bd70      	pop	{r4, r5, r6, pc}
100036c8:	f7ff fdd2 	bl	10003270 <next_striped_spin_lock_num>
100036cc:	0001      	movs	r1, r0
100036ce:	0020      	movs	r0, r4
100036d0:	f7ff ffdc 	bl	1000368c <lock_init>
100036d4:	7126      	strb	r6, [r4, #4]
100036d6:	f3bf 8f5f 	dmb	sy
100036da:	3408      	adds	r4, #8
100036dc:	42ac      	cmp	r4, r5
100036de:	d3e3      	bcc.n	100036a8 <runtime_init_mutex+0xc>
100036e0:	e7f1      	b.n	100036c6 <runtime_init_mutex+0x2a>
100036e2:	46c0      	nop			@ (mov r8, r8)
100036e4:	200018b0 	.word	0x200018b0
100036e8:	200018c0 	.word	0x200018c0

100036ec <mutex_init>:
100036ec:	b510      	push	{r4, lr}
100036ee:	0004      	movs	r4, r0
100036f0:	f7ff fdbe 	bl	10003270 <next_striped_spin_lock_num>
100036f4:	0001      	movs	r1, r0
100036f6:	0020      	movs	r0, r4
100036f8:	f7ff ffc8 	bl	1000368c <lock_init>
100036fc:	23ff      	movs	r3, #255	@ 0xff
100036fe:	7123      	strb	r3, [r4, #4]
10003700:	f3bf 8f5f 	dmb	sy
10003704:	bd10      	pop	{r4, pc}
10003706:	46c0      	nop			@ (mov r8, r8)

10003708 <critical_section_init>:
10003708:	b510      	push	{r4, lr}
1000370a:	0004      	movs	r4, r0
1000370c:	2001      	movs	r0, #1
1000370e:	f7ff fdbb 	bl	10003288 <spin_lock_claim_unused>
10003712:	4b03      	ldr	r3, [pc, #12]	@ (10003720 <critical_section_init+0x18>)
10003714:	18c3      	adds	r3, r0, r3
10003716:	009b      	lsls	r3, r3, #2
10003718:	6023      	str	r3, [r4, #0]
1000371a:	f3bf 8f5f 	dmb	sy
1000371e:	bd10      	pop	{r4, pc}
10003720:	34000040 	.word	0x34000040

10003724 <critical_section_init_with_lock_num>:
10003724:	4b03      	ldr	r3, [pc, #12]	@ (10003734 <critical_section_init_with_lock_num+0x10>)
10003726:	469c      	mov	ip, r3
10003728:	4461      	add	r1, ip
1000372a:	0089      	lsls	r1, r1, #2
1000372c:	6001      	str	r1, [r0, #0]
1000372e:	f3bf 8f5f 	dmb	sy
10003732:	4770      	bx	lr
10003734:	34000040 	.word	0x34000040

10003738 <sleep_until_callback>:
10003738:	4b0a      	ldr	r3, [pc, #40]	@ (10003764 <sleep_until_callback+0x2c>)
1000373a:	6819      	ldr	r1, [r3, #0]
1000373c:	f3ef 8010 	mrs	r0, PRIMASK
10003740:	b672      	cpsid	i
10003742:	680a      	ldr	r2, [r1, #0]
10003744:	2a00      	cmp	r2, #0
10003746:	d0fc      	beq.n	10003742 <sleep_until_callback+0xa>
10003748:	f3bf 8f5f 	dmb	sy
1000374c:	681b      	ldr	r3, [r3, #0]
1000374e:	f3bf 8f5f 	dmb	sy
10003752:	2200      	movs	r2, #0
10003754:	601a      	str	r2, [r3, #0]
10003756:	f380 8810 	msr	PRIMASK, r0
1000375a:	bf40      	sev
1000375c:	2000      	movs	r0, #0
1000375e:	2100      	movs	r1, #0
10003760:	4770      	bx	lr
10003762:	46c0      	nop			@ (mov r8, r8)
10003764:	200051c0 	.word	0x200051c0

10003768 <alarm_pool_irq_handler>:
10003768:	b5f0      	push	{r4, r5, r6, r7, lr}
1000376a:	46de      	mov	lr, fp
1000376c:	4657      	mov	r7, sl
1000376e:	464e      	mov	r6, r9
10003770:	4645      	mov	r5, r8
10003772:	b5e0      	push	{r5, r6, r7, lr}
10003774:	b083      	sub	sp, #12
10003776:	f3ef 8205 	mrs	r2, IPSR
1000377a:	2303      	movs	r3, #3
1000377c:	4013      	ands	r3, r2
1000377e:	4ab5      	ldr	r2, [pc, #724]	@ (10003a54 <alarm_pool_irq_handler+0x2ec>)
10003780:	0099      	lsls	r1, r3, #2
10003782:	5852      	ldr	r2, [r2, r1]
10003784:	9100      	str	r1, [sp, #0]
10003786:	4690      	mov	r8, r2
10003788:	2201      	movs	r2, #1
1000378a:	409a      	lsls	r2, r3
1000378c:	4bb2      	ldr	r3, [pc, #712]	@ (10003a58 <alarm_pool_irq_handler+0x2f0>)
1000378e:	4693      	mov	fp, r2
10003790:	601a      	str	r2, [r3, #0]
10003792:	4bb2      	ldr	r3, [pc, #712]	@ (10003a5c <alarm_pool_irq_handler+0x2f4>)
10003794:	9301      	str	r3, [sp, #4]
10003796:	e02e      	b.n	100037f6 <alarm_pool_irq_handler+0x8e>
10003798:	4643      	mov	r3, r8
1000379a:	889b      	ldrh	r3, [r3, #4]
1000379c:	b21b      	sxth	r3, r3
1000379e:	2b00      	cmp	r3, #0
100037a0:	db00      	blt.n	100037a4 <alarm_pool_irq_handler+0x3c>
100037a2:	e099      	b.n	100038d8 <alarm_pool_irq_handler+0x170>
100037a4:	4643      	mov	r3, r8
100037a6:	799b      	ldrb	r3, [r3, #6]
100037a8:	2b00      	cmp	r3, #0
100037aa:	d000      	beq.n	100037ae <alarm_pool_irq_handler+0x46>
100037ac:	e0dd      	b.n	1000396a <alarm_pool_irq_handler+0x202>
100037ae:	4643      	mov	r3, r8
100037b0:	2408      	movs	r4, #8
100037b2:	5f1c      	ldrsh	r4, [r3, r4]
100037b4:	2c00      	cmp	r4, #0
100037b6:	da00      	bge.n	100037ba <alarm_pool_irq_handler+0x52>
100037b8:	e106      	b.n	100039c8 <alarm_pool_irq_handler+0x260>
100037ba:	4643      	mov	r3, r8
100037bc:	695a      	ldr	r2, [r3, #20]
100037be:	0063      	lsls	r3, r4, #1
100037c0:	191b      	adds	r3, r3, r4
100037c2:	00db      	lsls	r3, r3, #3
100037c4:	18d3      	adds	r3, r2, r3
100037c6:	689d      	ldr	r5, [r3, #8]
100037c8:	68dc      	ldr	r4, [r3, #12]
100037ca:	1c6b      	adds	r3, r5, #1
100037cc:	d100      	bne.n	100037d0 <alarm_pool_irq_handler+0x68>
100037ce:	e107      	b.n	100039e0 <alarm_pool_irq_handler+0x278>
100037d0:	4ba3      	ldr	r3, [pc, #652]	@ (10003a60 <alarm_pool_irq_handler+0x2f8>)
100037d2:	9900      	ldr	r1, [sp, #0]
100037d4:	469c      	mov	ip, r3
100037d6:	4461      	add	r1, ip
100037d8:	6a9a      	ldr	r2, [r3, #40]	@ 0x28
100037da:	690b      	ldr	r3, [r1, #16]
100037dc:	1aa8      	subs	r0, r5, r2
100037de:	1a9b      	subs	r3, r3, r2
100037e0:	4298      	cmp	r0, r3
100037e2:	d200      	bcs.n	100037e6 <alarm_pool_irq_handler+0x7e>
100037e4:	610d      	str	r5, [r1, #16]
100037e6:	489e      	ldr	r0, [pc, #632]	@ (10003a60 <alarm_pool_irq_handler+0x2f8>)
100037e8:	f000 fb26 	bl	10003e38 <timer_time_us_64>
100037ec:	428c      	cmp	r4, r1
100037ee:	dd00      	ble.n	100037f2 <alarm_pool_irq_handler+0x8a>
100037f0:	e0ea      	b.n	100039c8 <alarm_pool_irq_handler+0x260>
100037f2:	d100      	bne.n	100037f6 <alarm_pool_irq_handler+0x8e>
100037f4:	e126      	b.n	10003a44 <alarm_pool_irq_handler+0x2dc>
100037f6:	465b      	mov	r3, fp
100037f8:	4899      	ldr	r0, [pc, #612]	@ (10003a60 <alarm_pool_irq_handler+0x2f8>)
100037fa:	6343      	str	r3, [r0, #52]	@ 0x34
100037fc:	4643      	mov	r3, r8
100037fe:	2208      	movs	r2, #8
10003800:	5e9b      	ldrsh	r3, [r3, r2]
10003802:	4699      	mov	r9, r3
10003804:	2b00      	cmp	r3, #0
10003806:	dbc7      	blt.n	10003798 <alarm_pool_irq_handler+0x30>
10003808:	4642      	mov	r2, r8
1000380a:	6952      	ldr	r2, [r2, #20]
1000380c:	005b      	lsls	r3, r3, #1
1000380e:	4692      	mov	sl, r2
10003810:	444b      	add	r3, r9
10003812:	00db      	lsls	r3, r3, #3
10003814:	449a      	add	sl, r3
10003816:	4653      	mov	r3, sl
10003818:	689e      	ldr	r6, [r3, #8]
1000381a:	68df      	ldr	r7, [r3, #12]
1000381c:	f000 fb0c 	bl	10003e38 <timer_time_us_64>
10003820:	428f      	cmp	r7, r1
10003822:	dcb9      	bgt.n	10003798 <alarm_pool_irq_handler+0x30>
10003824:	d100      	bne.n	10003828 <alarm_pool_irq_handler+0xc0>
10003826:	e100      	b.n	10003a2a <alarm_pool_irq_handler+0x2c2>
10003828:	2f00      	cmp	r7, #0
1000382a:	da00      	bge.n	1000382e <alarm_pool_irq_handler+0xc6>
1000382c:	e0e1      	b.n	100039f2 <alarm_pool_irq_handler+0x28a>
1000382e:	4652      	mov	r2, sl
10003830:	4653      	mov	r3, sl
10003832:	6954      	ldr	r4, [r2, #20]
10003834:	691b      	ldr	r3, [r3, #16]
10003836:	9a01      	ldr	r2, [sp, #4]
10003838:	4293      	cmp	r3, r2
1000383a:	d100      	bne.n	1000383e <alarm_pool_irq_handler+0xd6>
1000383c:	e0d4      	b.n	100039e8 <alarm_pool_irq_handler+0x280>
1000383e:	4641      	mov	r1, r8
10003840:	4652      	mov	r2, sl
10003842:	2008      	movs	r0, #8
10003844:	5e08      	ldrsh	r0, [r1, r0]
10003846:	8852      	ldrh	r2, [r2, #2]
10003848:	0400      	lsls	r0, r0, #16
1000384a:	0021      	movs	r1, r4
1000384c:	4310      	orrs	r0, r2
1000384e:	4798      	blx	r3
10003850:	0004      	movs	r4, r0
10003852:	000d      	movs	r5, r1
10003854:	0023      	movs	r3, r4
10003856:	432b      	orrs	r3, r5
10003858:	d100      	bne.n	1000385c <alarm_pool_irq_handler+0xf4>
1000385a:	e0ca      	b.n	100039f2 <alarm_pool_irq_handler+0x28a>
1000385c:	2d00      	cmp	r5, #0
1000385e:	db00      	blt.n	10003862 <alarm_pool_irq_handler+0xfa>
10003860:	e0e7      	b.n	10003a32 <alarm_pool_irq_handler+0x2ca>
10003862:	0030      	movs	r0, r6
10003864:	0039      	movs	r1, r7
10003866:	1b00      	subs	r0, r0, r4
10003868:	41a9      	sbcs	r1, r5
1000386a:	4653      	mov	r3, sl
1000386c:	6098      	str	r0, [r3, #8]
1000386e:	60d9      	str	r1, [r3, #12]
10003870:	2200      	movs	r2, #0
10003872:	5e9a      	ldrsh	r2, [r3, r2]
10003874:	2a00      	cmp	r2, #0
10003876:	db8f      	blt.n	10003798 <alarm_pool_irq_handler+0x30>
10003878:	4643      	mov	r3, r8
1000387a:	695d      	ldr	r5, [r3, #20]
1000387c:	0053      	lsls	r3, r2, #1
1000387e:	189c      	adds	r4, r3, r2
10003880:	00e4      	lsls	r4, r4, #3
10003882:	192c      	adds	r4, r5, r4
10003884:	68a7      	ldr	r7, [r4, #8]
10003886:	68e4      	ldr	r4, [r4, #12]
10003888:	428c      	cmp	r4, r1
1000388a:	dd00      	ble.n	1000388e <alarm_pool_irq_handler+0x126>
1000388c:	e784      	b.n	10003798 <alarm_pool_irq_handler+0x30>
1000388e:	d102      	bne.n	10003896 <alarm_pool_irq_handler+0x12e>
10003890:	4287      	cmp	r7, r0
10003892:	d900      	bls.n	10003896 <alarm_pool_irq_handler+0x12e>
10003894:	e780      	b.n	10003798 <alarm_pool_irq_handler+0x30>
10003896:	4646      	mov	r6, r8
10003898:	8132      	strh	r2, [r6, #8]
1000389a:	3608      	adds	r6, #8
1000389c:	e00d      	b.n	100038ba <alarm_pool_irq_handler+0x152>
1000389e:	428c      	cmp	r4, r1
100038a0:	d100      	bne.n	100038a4 <alarm_pool_irq_handler+0x13c>
100038a2:	e0d3      	b.n	10003a4c <alarm_pool_irq_handler+0x2e4>
100038a4:	001e      	movs	r6, r3
100038a6:	2300      	movs	r3, #0
100038a8:	5ef2      	ldrsh	r2, [r6, r3]
100038aa:	2a00      	cmp	r2, #0
100038ac:	db0a      	blt.n	100038c4 <alarm_pool_irq_handler+0x15c>
100038ae:	0053      	lsls	r3, r2, #1
100038b0:	189c      	adds	r4, r3, r2
100038b2:	00e4      	lsls	r4, r4, #3
100038b4:	192c      	adds	r4, r5, r4
100038b6:	68a7      	ldr	r7, [r4, #8]
100038b8:	68e4      	ldr	r4, [r4, #12]
100038ba:	189b      	adds	r3, r3, r2
100038bc:	00db      	lsls	r3, r3, #3
100038be:	18eb      	adds	r3, r5, r3
100038c0:	428c      	cmp	r4, r1
100038c2:	ddec      	ble.n	1000389e <alarm_pool_irq_handler+0x136>
100038c4:	4653      	mov	r3, sl
100038c6:	801a      	strh	r2, [r3, #0]
100038c8:	464b      	mov	r3, r9
100038ca:	8033      	strh	r3, [r6, #0]
100038cc:	4643      	mov	r3, r8
100038ce:	889b      	ldrh	r3, [r3, #4]
100038d0:	b21b      	sxth	r3, r3
100038d2:	2b00      	cmp	r3, #0
100038d4:	da00      	bge.n	100038d8 <alarm_pool_irq_handler+0x170>
100038d6:	e765      	b.n	100037a4 <alarm_pool_irq_handler+0x3c>
100038d8:	4643      	mov	r3, r8
100038da:	691a      	ldr	r2, [r3, #16]
100038dc:	f3ef 8110 	mrs	r1, PRIMASK
100038e0:	b672      	cpsid	i
100038e2:	6813      	ldr	r3, [r2, #0]
100038e4:	2b00      	cmp	r3, #0
100038e6:	d0fc      	beq.n	100038e2 <alarm_pool_irq_handler+0x17a>
100038e8:	f3bf 8f5f 	dmb	sy
100038ec:	4643      	mov	r3, r8
100038ee:	889e      	ldrh	r6, [r3, #4]
100038f0:	2301      	movs	r3, #1
100038f2:	4642      	mov	r2, r8
100038f4:	425b      	negs	r3, r3
100038f6:	8093      	strh	r3, [r2, #4]
100038f8:	b236      	sxth	r6, r6
100038fa:	6913      	ldr	r3, [r2, #16]
100038fc:	f3bf 8f5f 	dmb	sy
10003900:	2200      	movs	r2, #0
10003902:	601a      	str	r2, [r3, #0]
10003904:	f381 8810 	msr	PRIMASK, r1
10003908:	2e00      	cmp	r6, #0
1000390a:	da00      	bge.n	1000390e <alarm_pool_irq_handler+0x1a6>
1000390c:	e74a      	b.n	100037a4 <alarm_pool_irq_handler+0x3c>
1000390e:	4643      	mov	r3, r8
10003910:	695d      	ldr	r5, [r3, #20]
10003912:	3308      	adds	r3, #8
10003914:	4642      	mov	r2, r8
10003916:	469c      	mov	ip, r3
10003918:	0077      	lsls	r7, r6, #1
1000391a:	19bf      	adds	r7, r7, r6
1000391c:	00ff      	lsls	r7, r7, #3
1000391e:	19ef      	adds	r7, r5, r7
10003920:	68bb      	ldr	r3, [r7, #8]
10003922:	4660      	mov	r0, ip
10003924:	4698      	mov	r8, r3
10003926:	2308      	movs	r3, #8
10003928:	5ed1      	ldrsh	r1, [r2, r3]
1000392a:	4692      	mov	sl, r2
1000392c:	68fc      	ldr	r4, [r7, #12]
1000392e:	2900      	cmp	r1, #0
10003930:	da07      	bge.n	10003942 <alarm_pool_irq_handler+0x1da>
10003932:	e00e      	b.n	10003952 <alarm_pool_irq_handler+0x1ea>
10003934:	42a2      	cmp	r2, r4
10003936:	d04f      	beq.n	100039d8 <alarm_pool_irq_handler+0x270>
10003938:	0018      	movs	r0, r3
1000393a:	2300      	movs	r3, #0
1000393c:	5ec1      	ldrsh	r1, [r0, r3]
1000393e:	2900      	cmp	r1, #0
10003940:	db06      	blt.n	10003950 <alarm_pool_irq_handler+0x1e8>
10003942:	004b      	lsls	r3, r1, #1
10003944:	185b      	adds	r3, r3, r1
10003946:	00db      	lsls	r3, r3, #3
10003948:	18eb      	adds	r3, r5, r3
1000394a:	68da      	ldr	r2, [r3, #12]
1000394c:	42a2      	cmp	r2, r4
1000394e:	ddf1      	ble.n	10003934 <alarm_pool_irq_handler+0x1cc>
10003950:	4652      	mov	r2, sl
10003952:	8006      	strh	r6, [r0, #0]
10003954:	2300      	movs	r3, #0
10003956:	5efe      	ldrsh	r6, [r7, r3]
10003958:	8039      	strh	r1, [r7, #0]
1000395a:	2e00      	cmp	r6, #0
1000395c:	dadc      	bge.n	10003918 <alarm_pool_irq_handler+0x1b0>
1000395e:	4690      	mov	r8, r2
10003960:	4643      	mov	r3, r8
10003962:	799b      	ldrb	r3, [r3, #6]
10003964:	2b00      	cmp	r3, #0
10003966:	d100      	bne.n	1000396a <alarm_pool_irq_handler+0x202>
10003968:	e721      	b.n	100037ae <alarm_pool_irq_handler+0x46>
1000396a:	2300      	movs	r3, #0
1000396c:	4642      	mov	r2, r8
1000396e:	7193      	strb	r3, [r2, #6]
10003970:	4643      	mov	r3, r8
10003972:	4646      	mov	r6, r8
10003974:	2108      	movs	r1, #8
10003976:	5e59      	ldrsh	r1, [r3, r1]
10003978:	3608      	adds	r6, #8
1000397a:	1c4b      	adds	r3, r1, #1
1000397c:	d024      	beq.n	100039c8 <alarm_pool_irq_handler+0x260>
1000397e:	4647      	mov	r7, r8
10003980:	4689      	mov	r9, r1
10003982:	6955      	ldr	r5, [r2, #20]
10003984:	e002      	b.n	1000398c <alarm_pool_irq_handler+0x224>
10003986:	0006      	movs	r6, r0
10003988:	1c4b      	adds	r3, r1, #1
1000398a:	d018      	beq.n	100039be <alarm_pool_irq_handler+0x256>
1000398c:	004b      	lsls	r3, r1, #1
1000398e:	185b      	adds	r3, r3, r1
10003990:	00db      	lsls	r3, r3, #3
10003992:	18e8      	adds	r0, r5, r3
10003994:	000a      	movs	r2, r1
10003996:	468c      	mov	ip, r1
10003998:	5ee9      	ldrsh	r1, [r5, r3]
1000399a:	8843      	ldrh	r3, [r0, #2]
1000399c:	b21b      	sxth	r3, r3
1000399e:	2b00      	cmp	r3, #0
100039a0:	daf1      	bge.n	10003986 <alarm_pool_irq_handler+0x21e>
100039a2:	2301      	movs	r3, #1
100039a4:	425b      	negs	r3, r3
100039a6:	17dc      	asrs	r4, r3, #31
100039a8:	6083      	str	r3, [r0, #8]
100039aa:	60c4      	str	r4, [r0, #12]
100039ac:	454a      	cmp	r2, r9
100039ae:	d003      	beq.n	100039b8 <alarm_pool_irq_handler+0x250>
100039b0:	8031      	strh	r1, [r6, #0]
100039b2:	893b      	ldrh	r3, [r7, #8]
100039b4:	8003      	strh	r3, [r0, #0]
100039b6:	813a      	strh	r2, [r7, #8]
100039b8:	46e1      	mov	r9, ip
100039ba:	1c4b      	adds	r3, r1, #1
100039bc:	d1e6      	bne.n	1000398c <alarm_pool_irq_handler+0x224>
100039be:	464c      	mov	r4, r9
100039c0:	46b8      	mov	r8, r7
100039c2:	2c00      	cmp	r4, #0
100039c4:	db00      	blt.n	100039c8 <alarm_pool_irq_handler+0x260>
100039c6:	e6f8      	b.n	100037ba <alarm_pool_irq_handler+0x52>
100039c8:	bf40      	sev
100039ca:	b003      	add	sp, #12
100039cc:	bcf0      	pop	{r4, r5, r6, r7}
100039ce:	46bb      	mov	fp, r7
100039d0:	46b2      	mov	sl, r6
100039d2:	46a9      	mov	r9, r5
100039d4:	46a0      	mov	r8, r4
100039d6:	bdf0      	pop	{r4, r5, r6, r7, pc}
100039d8:	689a      	ldr	r2, [r3, #8]
100039da:	4542      	cmp	r2, r8
100039dc:	d9ac      	bls.n	10003938 <alarm_pool_irq_handler+0x1d0>
100039de:	e7b7      	b.n	10003950 <alarm_pool_irq_handler+0x1e8>
100039e0:	1c63      	adds	r3, r4, #1
100039e2:	d000      	beq.n	100039e6 <alarm_pool_irq_handler+0x27e>
100039e4:	e6f4      	b.n	100037d0 <alarm_pool_irq_handler+0x68>
100039e6:	e6fe      	b.n	100037e6 <alarm_pool_irq_handler+0x7e>
100039e8:	0020      	movs	r0, r4
100039ea:	6923      	ldr	r3, [r4, #16]
100039ec:	4798      	blx	r3
100039ee:	2800      	cmp	r0, #0
100039f0:	d125      	bne.n	10003a3e <alarm_pool_irq_handler+0x2d6>
100039f2:	4653      	mov	r3, sl
100039f4:	4642      	mov	r2, r8
100039f6:	881b      	ldrh	r3, [r3, #0]
100039f8:	8113      	strh	r3, [r2, #8]
100039fa:	6912      	ldr	r2, [r2, #16]
100039fc:	f3ef 8310 	mrs	r3, PRIMASK
10003a00:	b672      	cpsid	i
10003a02:	6811      	ldr	r1, [r2, #0]
10003a04:	2900      	cmp	r1, #0
10003a06:	d0fc      	beq.n	10003a02 <alarm_pool_irq_handler+0x29a>
10003a08:	f3bf 8f5f 	dmb	sy
10003a0c:	4642      	mov	r2, r8
10003a0e:	4651      	mov	r1, sl
10003a10:	8852      	ldrh	r2, [r2, #2]
10003a12:	800a      	strh	r2, [r1, #0]
10003a14:	4642      	mov	r2, r8
10003a16:	4649      	mov	r1, r9
10003a18:	8051      	strh	r1, [r2, #2]
10003a1a:	6912      	ldr	r2, [r2, #16]
10003a1c:	f3bf 8f5f 	dmb	sy
10003a20:	2100      	movs	r1, #0
10003a22:	6011      	str	r1, [r2, #0]
10003a24:	f383 8810 	msr	PRIMASK, r3
10003a28:	e6b6      	b.n	10003798 <alarm_pool_irq_handler+0x30>
10003a2a:	4286      	cmp	r6, r0
10003a2c:	d800      	bhi.n	10003a30 <alarm_pool_irq_handler+0x2c8>
10003a2e:	e6fb      	b.n	10003828 <alarm_pool_irq_handler+0xc0>
10003a30:	e6b2      	b.n	10003798 <alarm_pool_irq_handler+0x30>
10003a32:	480b      	ldr	r0, [pc, #44]	@ (10003a60 <alarm_pool_irq_handler+0x2f8>)
10003a34:	f000 fa00 	bl	10003e38 <timer_time_us_64>
10003a38:	1900      	adds	r0, r0, r4
10003a3a:	4169      	adcs	r1, r5
10003a3c:	e715      	b.n	1000386a <alarm_pool_irq_handler+0x102>
10003a3e:	6865      	ldr	r5, [r4, #4]
10003a40:	6824      	ldr	r4, [r4, #0]
10003a42:	e707      	b.n	10003854 <alarm_pool_irq_handler+0xec>
10003a44:	4285      	cmp	r5, r0
10003a46:	d800      	bhi.n	10003a4a <alarm_pool_irq_handler+0x2e2>
10003a48:	e6d5      	b.n	100037f6 <alarm_pool_irq_handler+0x8e>
10003a4a:	e7bd      	b.n	100039c8 <alarm_pool_irq_handler+0x260>
10003a4c:	4287      	cmp	r7, r0
10003a4e:	d800      	bhi.n	10003a52 <alarm_pool_irq_handler+0x2ea>
10003a50:	e728      	b.n	100038a4 <alarm_pool_irq_handler+0x13c>
10003a52:	e737      	b.n	100038c4 <alarm_pool_irq_handler+0x15c>
10003a54:	200051a4 	.word	0x200051a4
10003a58:	4005703c 	.word	0x4005703c
10003a5c:	10003769 	.word	0x10003769
10003a60:	40054000 	.word	0x40054000

10003a64 <runtime_init_default_alarm_pool>:
10003a64:	b570      	push	{r4, r5, r6, lr}
10003a66:	4c2e      	ldr	r4, [pc, #184]	@ (10003b20 <runtime_init_default_alarm_pool+0xbc>)
10003a68:	6925      	ldr	r5, [r4, #16]
10003a6a:	2d00      	cmp	r5, #0
10003a6c:	d004      	beq.n	10003a78 <runtime_init_default_alarm_pool+0x14>
10003a6e:	210a      	movs	r1, #10
10003a70:	482c      	ldr	r0, [pc, #176]	@ (10003b24 <runtime_init_default_alarm_pool+0xc0>)
10003a72:	f7ff fe0b 	bl	1000368c <lock_init>
10003a76:	bd70      	pop	{r4, r5, r6, pc}
10003a78:	4e2b      	ldr	r6, [pc, #172]	@ (10003b28 <runtime_init_default_alarm_pool+0xc4>)
10003a7a:	2103      	movs	r1, #3
10003a7c:	0030      	movs	r0, r6
10003a7e:	f000 f9d1 	bl	10003e24 <timer_hardware_alarm_claim>
10003a82:	60e6      	str	r6, [r4, #12]
10003a84:	f7ff fbf4 	bl	10003270 <next_striped_spin_lock_num>
10003a88:	4b28      	ldr	r3, [pc, #160]	@ (10003b2c <runtime_init_default_alarm_pool+0xc8>)
10003a8a:	2203      	movs	r2, #3
10003a8c:	469c      	mov	ip, r3
10003a8e:	23d0      	movs	r3, #208	@ 0xd0
10003a90:	7022      	strb	r2, [r4, #0]
10003a92:	061b      	lsls	r3, r3, #24
10003a94:	681b      	ldr	r3, [r3, #0]
10003a96:	2101      	movs	r1, #1
10003a98:	7063      	strb	r3, [r4, #1]
10003a9a:	4b25      	ldr	r3, [pc, #148]	@ (10003b30 <runtime_init_default_alarm_pool+0xcc>)
10003a9c:	4460      	add	r0, ip
10003a9e:	60a3      	str	r3, [r4, #8]
10003aa0:	230f      	movs	r3, #15
10003aa2:	0080      	lsls	r0, r0, #2
10003aa4:	6120      	str	r0, [r4, #16]
10003aa6:	2002      	movs	r0, #2
10003aa8:	8063      	strh	r3, [r4, #2]
10003aaa:	6963      	ldr	r3, [r4, #20]
10003aac:	4249      	negs	r1, r1
10003aae:	80a1      	strh	r1, [r4, #4]
10003ab0:	8019      	strh	r1, [r3, #0]
10003ab2:	3102      	adds	r1, #2
10003ab4:	8619      	strh	r1, [r3, #48]	@ 0x30
10003ab6:	3147      	adds	r1, #71	@ 0x47
10003ab8:	831d      	strh	r5, [r3, #24]
10003aba:	5258      	strh	r0, [r3, r1]
10003abc:	3118      	adds	r1, #24
10003abe:	525a      	strh	r2, [r3, r1]
10003ac0:	3275      	adds	r2, #117	@ 0x75
10003ac2:	395c      	subs	r1, #92	@ 0x5c
10003ac4:	5299      	strh	r1, [r3, r2]
10003ac6:	3218      	adds	r2, #24
10003ac8:	3101      	adds	r1, #1
10003aca:	5299      	strh	r1, [r3, r2]
10003acc:	3218      	adds	r2, #24
10003ace:	3101      	adds	r1, #1
10003ad0:	5299      	strh	r1, [r3, r2]
10003ad2:	3218      	adds	r2, #24
10003ad4:	3101      	adds	r1, #1
10003ad6:	5299      	strh	r1, [r3, r2]
10003ad8:	3508      	adds	r5, #8
10003ada:	3218      	adds	r2, #24
10003adc:	529d      	strh	r5, [r3, r2]
10003ade:	3102      	adds	r1, #2
10003ae0:	3218      	adds	r2, #24
10003ae2:	5299      	strh	r1, [r3, r2]
10003ae4:	3218      	adds	r2, #24
10003ae6:	3101      	adds	r1, #1
10003ae8:	5299      	strh	r1, [r3, r2]
10003aea:	3218      	adds	r2, #24
10003aec:	3101      	adds	r1, #1
10003aee:	5299      	strh	r1, [r3, r2]
10003af0:	3218      	adds	r2, #24
10003af2:	3101      	adds	r1, #1
10003af4:	5299      	strh	r1, [r3, r2]
10003af6:	3218      	adds	r2, #24
10003af8:	3101      	adds	r1, #1
10003afa:	5299      	strh	r1, [r3, r2]
10003afc:	3218      	adds	r2, #24
10003afe:	3101      	adds	r1, #1
10003b00:	5299      	strh	r1, [r3, r2]
10003b02:	4b0c      	ldr	r3, [pc, #48]	@ (10003b34 <runtime_init_default_alarm_pool+0xd0>)
10003b04:	490c      	ldr	r1, [pc, #48]	@ (10003b38 <runtime_init_default_alarm_pool+0xd4>)
10003b06:	60dc      	str	r4, [r3, #12]
10003b08:	3001      	adds	r0, #1
10003b0a:	6235      	str	r5, [r6, #32]
10003b0c:	f7ff fc2a 	bl	10003364 <irq_set_exclusive_handler>
10003b10:	2101      	movs	r1, #1
10003b12:	2003      	movs	r0, #3
10003b14:	f7ff fbea 	bl	100032ec <irq_set_enabled>
10003b18:	4b08      	ldr	r3, [pc, #32]	@ (10003b3c <runtime_init_default_alarm_pool+0xd8>)
10003b1a:	601d      	str	r5, [r3, #0]
10003b1c:	e7a7      	b.n	10003a6e <runtime_init_default_alarm_pool+0xa>
10003b1e:	46c0      	nop			@ (mov r8, r8)
10003b20:	2000115c 	.word	0x2000115c
10003b24:	200051c0 	.word	0x200051c0
10003b28:	40054000 	.word	0x40054000
10003b2c:	34000040 	.word	0x34000040
10003b30:	0010ffff 	.word	0x0010ffff
10003b34:	200051a4 	.word	0x200051a4
10003b38:	10003769 	.word	0x10003769
10003b3c:	40056038 	.word	0x40056038

10003b40 <alarm_pool_get_default>:
10003b40:	4800      	ldr	r0, [pc, #0]	@ (10003b44 <alarm_pool_get_default+0x4>)
10003b42:	4770      	bx	lr
10003b44:	2000115c 	.word	0x2000115c

10003b48 <alarm_pool_add_alarm_at>:
10003b48:	b5f8      	push	{r3, r4, r5, r6, r7, lr}
10003b4a:	001f      	movs	r7, r3
10003b4c:	ab08      	add	r3, sp, #32
10003b4e:	781b      	ldrb	r3, [r3, #0]
10003b50:	0004      	movs	r4, r0
10003b52:	0016      	movs	r6, r2
10003b54:	2b00      	cmp	r3, #0
10003b56:	d108      	bne.n	10003b6a <alarm_pool_add_alarm_at+0x22>
10003b58:	f000 f976 	bl	10003e48 <time_us_64>
10003b5c:	0032      	movs	r2, r6
10003b5e:	003b      	movs	r3, r7
10003b60:	1a12      	subs	r2, r2, r0
10003b62:	418b      	sbcs	r3, r1
10003b64:	2b00      	cmp	r3, #0
10003b66:	da00      	bge.n	10003b6a <alarm_pool_add_alarm_at+0x22>
10003b68:	e053      	b.n	10003c12 <alarm_pool_add_alarm_at+0xca>
10003b6a:	6922      	ldr	r2, [r4, #16]
10003b6c:	f3ef 8010 	mrs	r0, PRIMASK
10003b70:	b672      	cpsid	i
10003b72:	6813      	ldr	r3, [r2, #0]
10003b74:	2b00      	cmp	r3, #0
10003b76:	d0fc      	beq.n	10003b72 <alarm_pool_add_alarm_at+0x2a>
10003b78:	f3bf 8f5f 	dmb	sy
10003b7c:	2302      	movs	r3, #2
10003b7e:	5ee1      	ldrsh	r1, [r4, r3]
10003b80:	6963      	ldr	r3, [r4, #20]
10003b82:	004a      	lsls	r2, r1, #1
10003b84:	1852      	adds	r2, r2, r1
10003b86:	00d2      	lsls	r2, r2, #3
10003b88:	189b      	adds	r3, r3, r2
10003b8a:	2900      	cmp	r1, #0
10003b8c:	db37      	blt.n	10003bfe <alarm_pool_add_alarm_at+0xb6>
10003b8e:	881a      	ldrh	r2, [r3, #0]
10003b90:	8062      	strh	r2, [r4, #2]
10003b92:	6922      	ldr	r2, [r4, #16]
10003b94:	f3bf 8f5f 	dmb	sy
10003b98:	2500      	movs	r5, #0
10003b9a:	6015      	str	r5, [r2, #0]
10003b9c:	f380 8810 	msr	PRIMASK, r0
10003ba0:	9a06      	ldr	r2, [sp, #24]
10003ba2:	609e      	str	r6, [r3, #8]
10003ba4:	60df      	str	r7, [r3, #12]
10003ba6:	611a      	str	r2, [r3, #16]
10003ba8:	9a07      	ldr	r2, [sp, #28]
10003baa:	615a      	str	r2, [r3, #20]
10003bac:	885a      	ldrh	r2, [r3, #2]
10003bae:	3201      	adds	r2, #1
10003bb0:	0452      	lsls	r2, r2, #17
10003bb2:	0c52      	lsrs	r2, r2, #17
10003bb4:	1c10      	adds	r0, r2, #0
10003bb6:	2a00      	cmp	r2, #0
10003bb8:	d01f      	beq.n	10003bfa <alarm_pool_add_alarm_at+0xb2>
10003bba:	b282      	uxth	r2, r0
10003bbc:	8058      	strh	r0, [r3, #2]
10003bbe:	0408      	lsls	r0, r1, #16
10003bc0:	4310      	orrs	r0, r2
10003bc2:	6926      	ldr	r6, [r4, #16]
10003bc4:	f3ef 8710 	mrs	r7, PRIMASK
10003bc8:	b672      	cpsid	i
10003bca:	6832      	ldr	r2, [r6, #0]
10003bcc:	2a00      	cmp	r2, #0
10003bce:	d0fc      	beq.n	10003bca <alarm_pool_add_alarm_at+0x82>
10003bd0:	f3bf 8f5f 	dmb	sy
10003bd4:	88a2      	ldrh	r2, [r4, #4]
10003bd6:	801a      	strh	r2, [r3, #0]
10003bd8:	80a1      	strh	r1, [r4, #4]
10003bda:	6923      	ldr	r3, [r4, #16]
10003bdc:	f3bf 8f5f 	dmb	sy
10003be0:	2200      	movs	r2, #0
10003be2:	601a      	str	r2, [r3, #0]
10003be4:	f387 8810 	msr	PRIMASK, r7
10003be8:	490b      	ldr	r1, [pc, #44]	@ (10003c18 <alarm_pool_add_alarm_at+0xd0>)
10003bea:	7823      	ldrb	r3, [r4, #0]
10003bec:	468c      	mov	ip, r1
10003bee:	3201      	adds	r2, #1
10003bf0:	409a      	lsls	r2, r3
10003bf2:	68e3      	ldr	r3, [r4, #12]
10003bf4:	4463      	add	r3, ip
10003bf6:	601a      	str	r2, [r3, #0]
10003bf8:	bdf8      	pop	{r3, r4, r5, r6, r7, pc}
10003bfa:	2001      	movs	r0, #1
10003bfc:	e7dd      	b.n	10003bba <alarm_pool_add_alarm_at+0x72>
10003bfe:	6923      	ldr	r3, [r4, #16]
10003c00:	f3bf 8f5f 	dmb	sy
10003c04:	2200      	movs	r2, #0
10003c06:	601a      	str	r2, [r3, #0]
10003c08:	f380 8810 	msr	PRIMASK, r0
10003c0c:	2001      	movs	r0, #1
10003c0e:	4240      	negs	r0, r0
10003c10:	e7f2      	b.n	10003bf8 <alarm_pool_add_alarm_at+0xb0>
10003c12:	2000      	movs	r0, #0
10003c14:	e7f0      	b.n	10003bf8 <alarm_pool_add_alarm_at+0xb0>
10003c16:	46c0      	nop			@ (mov r8, r8)
10003c18:	0000203c 	.word	0x0000203c

10003c1c <alarm_pool_add_alarm_at_force_in_context>:
10003c1c:	b570      	push	{r4, r5, r6, lr}
10003c1e:	0001      	movs	r1, r0
10003c20:	6904      	ldr	r4, [r0, #16]
10003c22:	f3ef 8c10 	mrs	ip, PRIMASK
10003c26:	b672      	cpsid	i
10003c28:	6820      	ldr	r0, [r4, #0]
10003c2a:	2800      	cmp	r0, #0
10003c2c:	d0fc      	beq.n	10003c28 <alarm_pool_add_alarm_at_force_in_context+0xc>
10003c2e:	f3bf 8f5f 	dmb	sy
10003c32:	2002      	movs	r0, #2
10003c34:	5e0d      	ldrsh	r5, [r1, r0]
10003c36:	694c      	ldr	r4, [r1, #20]
10003c38:	0068      	lsls	r0, r5, #1
10003c3a:	1940      	adds	r0, r0, r5
10003c3c:	00c0      	lsls	r0, r0, #3
10003c3e:	1824      	adds	r4, r4, r0
10003c40:	2d00      	cmp	r5, #0
10003c42:	db37      	blt.n	10003cb4 <alarm_pool_add_alarm_at_force_in_context+0x98>
10003c44:	8820      	ldrh	r0, [r4, #0]
10003c46:	8048      	strh	r0, [r1, #2]
10003c48:	6908      	ldr	r0, [r1, #16]
10003c4a:	f3bf 8f5f 	dmb	sy
10003c4e:	2600      	movs	r6, #0
10003c50:	6006      	str	r6, [r0, #0]
10003c52:	f38c 8810 	msr	PRIMASK, ip
10003c56:	60e3      	str	r3, [r4, #12]
10003c58:	8863      	ldrh	r3, [r4, #2]
10003c5a:	9804      	ldr	r0, [sp, #16]
10003c5c:	3301      	adds	r3, #1
10003c5e:	6120      	str	r0, [r4, #16]
10003c60:	045b      	lsls	r3, r3, #17
10003c62:	9805      	ldr	r0, [sp, #20]
10003c64:	0c5b      	lsrs	r3, r3, #17
10003c66:	60a2      	str	r2, [r4, #8]
10003c68:	6160      	str	r0, [r4, #20]
10003c6a:	1c1a      	adds	r2, r3, #0
10003c6c:	2b00      	cmp	r3, #0
10003c6e:	d01f      	beq.n	10003cb0 <alarm_pool_add_alarm_at_force_in_context+0x94>
10003c70:	b293      	uxth	r3, r2
10003c72:	0428      	lsls	r0, r5, #16
10003c74:	8062      	strh	r2, [r4, #2]
10003c76:	4318      	orrs	r0, r3
10003c78:	690a      	ldr	r2, [r1, #16]
10003c7a:	f3ef 8c10 	mrs	ip, PRIMASK
10003c7e:	b672      	cpsid	i
10003c80:	6813      	ldr	r3, [r2, #0]
10003c82:	2b00      	cmp	r3, #0
10003c84:	d0fc      	beq.n	10003c80 <alarm_pool_add_alarm_at_force_in_context+0x64>
10003c86:	f3bf 8f5f 	dmb	sy
10003c8a:	888b      	ldrh	r3, [r1, #4]
10003c8c:	8023      	strh	r3, [r4, #0]
10003c8e:	808d      	strh	r5, [r1, #4]
10003c90:	690b      	ldr	r3, [r1, #16]
10003c92:	f3bf 8f5f 	dmb	sy
10003c96:	2200      	movs	r2, #0
10003c98:	601a      	str	r2, [r3, #0]
10003c9a:	f38c 8810 	msr	PRIMASK, ip
10003c9e:	780b      	ldrb	r3, [r1, #0]
10003ca0:	3201      	adds	r2, #1
10003ca2:	409a      	lsls	r2, r3
10003ca4:	68cb      	ldr	r3, [r1, #12]
10003ca6:	4908      	ldr	r1, [pc, #32]	@ (10003cc8 <alarm_pool_add_alarm_at_force_in_context+0xac>)
10003ca8:	468c      	mov	ip, r1
10003caa:	4463      	add	r3, ip
10003cac:	601a      	str	r2, [r3, #0]
10003cae:	bd70      	pop	{r4, r5, r6, pc}
10003cb0:	2201      	movs	r2, #1
10003cb2:	e7dd      	b.n	10003c70 <alarm_pool_add_alarm_at_force_in_context+0x54>
10003cb4:	690b      	ldr	r3, [r1, #16]
10003cb6:	f3bf 8f5f 	dmb	sy
10003cba:	2200      	movs	r2, #0
10003cbc:	601a      	str	r2, [r3, #0]
10003cbe:	f38c 8810 	msr	PRIMASK, ip
10003cc2:	2001      	movs	r0, #1
10003cc4:	4240      	negs	r0, r0
10003cc6:	e7f2      	b.n	10003cae <alarm_pool_add_alarm_at_force_in_context+0x92>
10003cc8:	0000203c 	.word	0x0000203c

10003ccc <alarm_pool_cancel_alarm>:
10003ccc:	b510      	push	{r4, lr}
10003cce:	8943      	ldrh	r3, [r0, #10]
10003cd0:	140a      	asrs	r2, r1, #16
10003cd2:	4293      	cmp	r3, r2
10003cd4:	dd1a      	ble.n	10003d0c <alarm_pool_cancel_alarm+0x40>
10003cd6:	0053      	lsls	r3, r2, #1
10003cd8:	189b      	adds	r3, r3, r2
10003cda:	6942      	ldr	r2, [r0, #20]
10003cdc:	00db      	lsls	r3, r3, #3
10003cde:	18d3      	adds	r3, r2, r3
10003ce0:	6904      	ldr	r4, [r0, #16]
10003ce2:	f3ef 8c10 	mrs	ip, PRIMASK
10003ce6:	b672      	cpsid	i
10003ce8:	6822      	ldr	r2, [r4, #0]
10003cea:	2a00      	cmp	r2, #0
10003cec:	d0fc      	beq.n	10003ce8 <alarm_pool_cancel_alarm+0x1c>
10003cee:	f3bf 8f5f 	dmb	sy
10003cf2:	885a      	ldrh	r2, [r3, #2]
10003cf4:	0409      	lsls	r1, r1, #16
10003cf6:	b294      	uxth	r4, r2
10003cf8:	0c09      	lsrs	r1, r1, #16
10003cfa:	428a      	cmp	r2, r1
10003cfc:	d008      	beq.n	10003d10 <alarm_pool_cancel_alarm+0x44>
10003cfe:	6903      	ldr	r3, [r0, #16]
10003d00:	f3bf 8f5f 	dmb	sy
10003d04:	2200      	movs	r2, #0
10003d06:	601a      	str	r2, [r3, #0]
10003d08:	f38c 8810 	msr	PRIMASK, ip
10003d0c:	2000      	movs	r0, #0
10003d0e:	bd10      	pop	{r4, pc}
10003d10:	2280      	movs	r2, #128	@ 0x80
10003d12:	0212      	lsls	r2, r2, #8
10003d14:	4314      	orrs	r4, r2
10003d16:	805c      	strh	r4, [r3, #2]
10003d18:	2301      	movs	r3, #1
10003d1a:	6902      	ldr	r2, [r0, #16]
10003d1c:	7183      	strb	r3, [r0, #6]
10003d1e:	f3bf 8f5f 	dmb	sy
10003d22:	2100      	movs	r1, #0
10003d24:	6011      	str	r1, [r2, #0]
10003d26:	f38c 8810 	msr	PRIMASK, ip
10003d2a:	4904      	ldr	r1, [pc, #16]	@ (10003d3c <alarm_pool_cancel_alarm+0x70>)
10003d2c:	7802      	ldrb	r2, [r0, #0]
10003d2e:	468c      	mov	ip, r1
10003d30:	4093      	lsls	r3, r2
10003d32:	68c2      	ldr	r2, [r0, #12]
10003d34:	2001      	movs	r0, #1
10003d36:	4462      	add	r2, ip
10003d38:	6013      	str	r3, [r2, #0]
10003d3a:	e7e8      	b.n	10003d0e <alarm_pool_cancel_alarm+0x42>
10003d3c:	0000203c 	.word	0x0000203c

10003d40 <alarm_pool_core_num>:
10003d40:	7840      	ldrb	r0, [r0, #1]
10003d42:	4770      	bx	lr

10003d44 <best_effort_wfe_or_timeout>:
10003d44:	b5f0      	push	{r4, r5, r6, r7, lr}
10003d46:	46ce      	mov	lr, r9
10003d48:	4647      	mov	r7, r8
10003d4a:	b580      	push	{r7, lr}
10003d4c:	0004      	movs	r4, r0
10003d4e:	000d      	movs	r5, r1
10003d50:	b083      	sub	sp, #12
10003d52:	f3ef 8705 	mrs	r7, IPSR
10003d56:	4688      	mov	r8, r1
10003d58:	2f00      	cmp	r7, #0
10003d5a:	d13e      	bne.n	10003dda <best_effort_wfe_or_timeout+0x96>
10003d5c:	4e2e      	ldr	r6, [pc, #184]	@ (10003e18 <best_effort_wfe_or_timeout+0xd4>)
10003d5e:	46a1      	mov	r9, r4
10003d60:	7833      	ldrb	r3, [r6, #0]
10003d62:	68f0      	ldr	r0, [r6, #12]
10003d64:	3304      	adds	r3, #4
10003d66:	009b      	lsls	r3, r3, #2
10003d68:	6a81      	ldr	r1, [r0, #40]	@ 0x28
10003d6a:	581b      	ldr	r3, [r3, r0]
10003d6c:	1a60      	subs	r0, r4, r1
10003d6e:	1a5b      	subs	r3, r3, r1
10003d70:	4298      	cmp	r0, r3
10003d72:	d30e      	bcc.n	10003d92 <best_effort_wfe_or_timeout+0x4e>
10003d74:	bf20      	wfe
10003d76:	4929      	ldr	r1, [pc, #164]	@ (10003e1c <best_effort_wfe_or_timeout+0xd8>)
10003d78:	2000      	movs	r0, #0
10003d7a:	6a4b      	ldr	r3, [r1, #36]	@ 0x24
10003d7c:	42ab      	cmp	r3, r5
10003d7e:	d303      	bcc.n	10003d88 <best_effort_wfe_or_timeout+0x44>
10003d80:	6a8a      	ldr	r2, [r1, #40]	@ 0x28
10003d82:	3001      	adds	r0, #1
10003d84:	4294      	cmp	r4, r2
10003d86:	d831      	bhi.n	10003dec <best_effort_wfe_or_timeout+0xa8>
10003d88:	b003      	add	sp, #12
10003d8a:	bcc0      	pop	{r6, r7}
10003d8c:	46b9      	mov	r9, r7
10003d8e:	46b0      	mov	r8, r6
10003d90:	bdf0      	pop	{r4, r5, r6, r7, pc}
10003d92:	f000 f859 	bl	10003e48 <time_us_64>
10003d96:	0022      	movs	r2, r4
10003d98:	002b      	movs	r3, r5
10003d9a:	1a12      	subs	r2, r2, r0
10003d9c:	418b      	sbcs	r3, r1
10003d9e:	2b00      	cmp	r3, #0
10003da0:	db2f      	blt.n	10003e02 <best_effort_wfe_or_timeout+0xbe>
10003da2:	4b1f      	ldr	r3, [pc, #124]	@ (10003e20 <best_effort_wfe_or_timeout+0xdc>)
10003da4:	0022      	movs	r2, r4
10003da6:	9300      	str	r3, [sp, #0]
10003da8:	0030      	movs	r0, r6
10003daa:	002b      	movs	r3, r5
10003dac:	9701      	str	r7, [sp, #4]
10003dae:	f7ff ff35 	bl	10003c1c <alarm_pool_add_alarm_at_force_in_context>
10003db2:	1e01      	subs	r1, r0, #0
10003db4:	dd25      	ble.n	10003e02 <best_effort_wfe_or_timeout+0xbe>
10003db6:	4b19      	ldr	r3, [pc, #100]	@ (10003e1c <best_effort_wfe_or_timeout+0xd8>)
10003db8:	6a5a      	ldr	r2, [r3, #36]	@ 0x24
10003dba:	42aa      	cmp	r2, r5
10003dbc:	d21b      	bcs.n	10003df6 <best_effort_wfe_or_timeout+0xb2>
10003dbe:	bf20      	wfe
10003dc0:	0030      	movs	r0, r6
10003dc2:	f7ff ff83 	bl	10003ccc <alarm_pool_cancel_alarm>
10003dc6:	4a15      	ldr	r2, [pc, #84]	@ (10003e1c <best_effort_wfe_or_timeout+0xd8>)
10003dc8:	2000      	movs	r0, #0
10003dca:	6a53      	ldr	r3, [r2, #36]	@ 0x24
10003dcc:	4543      	cmp	r3, r8
10003dce:	d3db      	bcc.n	10003d88 <best_effort_wfe_or_timeout+0x44>
10003dd0:	6a92      	ldr	r2, [r2, #40]	@ 0x28
10003dd2:	3001      	adds	r0, #1
10003dd4:	4591      	cmp	r9, r2
10003dd6:	d9d7      	bls.n	10003d88 <best_effort_wfe_or_timeout+0x44>
10003dd8:	e008      	b.n	10003dec <best_effort_wfe_or_timeout+0xa8>
10003dda:	4910      	ldr	r1, [pc, #64]	@ (10003e1c <best_effort_wfe_or_timeout+0xd8>)
10003ddc:	2000      	movs	r0, #0
10003dde:	6a4b      	ldr	r3, [r1, #36]	@ 0x24
10003de0:	42ab      	cmp	r3, r5
10003de2:	d3d1      	bcc.n	10003d88 <best_effort_wfe_or_timeout+0x44>
10003de4:	6a8a      	ldr	r2, [r1, #40]	@ 0x28
10003de6:	3001      	adds	r0, #1
10003de8:	42a2      	cmp	r2, r4
10003dea:	d2cd      	bcs.n	10003d88 <best_effort_wfe_or_timeout+0x44>
10003dec:	1b5b      	subs	r3, r3, r5
10003dee:	1e5a      	subs	r2, r3, #1
10003df0:	4193      	sbcs	r3, r2
10003df2:	b2d8      	uxtb	r0, r3
10003df4:	e7c8      	b.n	10003d88 <best_effort_wfe_or_timeout+0x44>
10003df6:	6a9b      	ldr	r3, [r3, #40]	@ 0x28
10003df8:	429c      	cmp	r4, r3
10003dfa:	d9e1      	bls.n	10003dc0 <best_effort_wfe_or_timeout+0x7c>
10003dfc:	42aa      	cmp	r2, r5
10003dfe:	d1df      	bne.n	10003dc0 <best_effort_wfe_or_timeout+0x7c>
10003e00:	e7dd      	b.n	10003dbe <best_effort_wfe_or_timeout+0x7a>
10003e02:	4a06      	ldr	r2, [pc, #24]	@ (10003e1c <best_effort_wfe_or_timeout+0xd8>)
10003e04:	2000      	movs	r0, #0
10003e06:	6a53      	ldr	r3, [r2, #36]	@ 0x24
10003e08:	4543      	cmp	r3, r8
10003e0a:	d3bd      	bcc.n	10003d88 <best_effort_wfe_or_timeout+0x44>
10003e0c:	6a92      	ldr	r2, [r2, #40]	@ 0x28
10003e0e:	2001      	movs	r0, #1
10003e10:	4591      	cmp	r9, r2
10003e12:	d9b9      	bls.n	10003d88 <best_effort_wfe_or_timeout+0x44>
10003e14:	e7ea      	b.n	10003dec <best_effort_wfe_or_timeout+0xa8>
10003e16:	46c0      	nop			@ (mov r8, r8)
10003e18:	2000115c 	.word	0x2000115c
10003e1c:	40054000 	.word	0x40054000
10003e20:	10003739 	.word	0x10003739

10003e24 <timer_hardware_alarm_claim>:
10003e24:	b510      	push	{r4, lr}
10003e26:	4a02      	ldr	r2, [pc, #8]	@ (10003e30 <timer_hardware_alarm_claim+0xc>)
10003e28:	4802      	ldr	r0, [pc, #8]	@ (10003e34 <timer_hardware_alarm_claim+0x10>)
10003e2a:	f7ff f9b1 	bl	10003190 <hw_claim_or_assert>
10003e2e:	bd10      	pop	{r4, pc}
10003e30:	10010740 	.word	0x10010740
10003e34:	20004d0c 	.word	0x20004d0c

10003e38 <timer_time_us_64>:
10003e38:	0003      	movs	r3, r0
10003e3a:	6a41      	ldr	r1, [r0, #36]	@ 0x24
10003e3c:	000a      	movs	r2, r1
10003e3e:	6a98      	ldr	r0, [r3, #40]	@ 0x28
10003e40:	6a59      	ldr	r1, [r3, #36]	@ 0x24
10003e42:	428a      	cmp	r2, r1
10003e44:	d1fa      	bne.n	10003e3c <timer_time_us_64+0x4>
10003e46:	4770      	bx	lr

10003e48 <time_us_64>:
10003e48:	4b03      	ldr	r3, [pc, #12]	@ (10003e58 <time_us_64+0x10>)
10003e4a:	6a59      	ldr	r1, [r3, #36]	@ 0x24
10003e4c:	000a      	movs	r2, r1
10003e4e:	6a98      	ldr	r0, [r3, #40]	@ 0x28
10003e50:	6a59      	ldr	r1, [r3, #36]	@ 0x24
10003e52:	4291      	cmp	r1, r2
10003e54:	d1fa      	bne.n	10003e4c <time_us_64+0x4>
10003e56:	4770      	bx	lr
10003e58:	40054000 	.word	0x40054000

10003e5c <busy_wait_us>:
10003e5c:	b570      	push	{r4, r5, r6, lr}
10003e5e:	0004      	movs	r4, r0
10003e60:	000d      	movs	r5, r1
10003e62:	4a17      	ldr	r2, [pc, #92]	@ (10003ec0 <busy_wait_us+0x64>)
10003e64:	6a53      	ldr	r3, [r2, #36]	@ 0x24
10003e66:	0019      	movs	r1, r3
10003e68:	6a96      	ldr	r6, [r2, #40]	@ 0x28
10003e6a:	6a53      	ldr	r3, [r2, #36]	@ 0x24
10003e6c:	428b      	cmp	r3, r1
10003e6e:	d1fa      	bne.n	10003e66 <busy_wait_us+0xa>
10003e70:	0030      	movs	r0, r6
10003e72:	0019      	movs	r1, r3
10003e74:	1824      	adds	r4, r4, r0
10003e76:	414d      	adcs	r5, r1
10003e78:	42ab      	cmp	r3, r5
10003e7a:	d816      	bhi.n	10003eaa <busy_wait_us+0x4e>
10003e7c:	d013      	beq.n	10003ea6 <busy_wait_us+0x4a>
10003e7e:	4a10      	ldr	r2, [pc, #64]	@ (10003ec0 <busy_wait_us+0x64>)
10003e80:	002b      	movs	r3, r5
10003e82:	6a52      	ldr	r2, [r2, #36]	@ 0x24
10003e84:	4295      	cmp	r5, r2
10003e86:	d903      	bls.n	10003e90 <busy_wait_us+0x34>
10003e88:	490d      	ldr	r1, [pc, #52]	@ (10003ec0 <busy_wait_us+0x64>)
10003e8a:	6a4a      	ldr	r2, [r1, #36]	@ 0x24
10003e8c:	429a      	cmp	r2, r3
10003e8e:	d3fc      	bcc.n	10003e8a <busy_wait_us+0x2e>
10003e90:	429a      	cmp	r2, r3
10003e92:	d107      	bne.n	10003ea4 <busy_wait_us+0x48>
10003e94:	4a0a      	ldr	r2, [pc, #40]	@ (10003ec0 <busy_wait_us+0x64>)
10003e96:	e002      	b.n	10003e9e <busy_wait_us+0x42>
10003e98:	6a51      	ldr	r1, [r2, #36]	@ 0x24
10003e9a:	4299      	cmp	r1, r3
10003e9c:	d102      	bne.n	10003ea4 <busy_wait_us+0x48>
10003e9e:	6a91      	ldr	r1, [r2, #40]	@ 0x28
10003ea0:	42a1      	cmp	r1, r4
10003ea2:	d3f9      	bcc.n	10003e98 <busy_wait_us+0x3c>
10003ea4:	bd70      	pop	{r4, r5, r6, pc}
10003ea6:	42a6      	cmp	r6, r4
10003ea8:	d9e9      	bls.n	10003e7e <busy_wait_us+0x22>
10003eaa:	4b05      	ldr	r3, [pc, #20]	@ (10003ec0 <busy_wait_us+0x64>)
10003eac:	6a5b      	ldr	r3, [r3, #36]	@ 0x24
10003eae:	001c      	movs	r4, r3
10003eb0:	1c5a      	adds	r2, r3, #1
10003eb2:	d0ef      	beq.n	10003e94 <busy_wait_us+0x38>
10003eb4:	2301      	movs	r3, #1
10003eb6:	2401      	movs	r4, #1
10003eb8:	4264      	negs	r4, r4
10003eba:	17e5      	asrs	r5, r4, #31
10003ebc:	425b      	negs	r3, r3
10003ebe:	e7e3      	b.n	10003e88 <busy_wait_us+0x2c>
10003ec0:	40054000 	.word	0x40054000

10003ec4 <clock_configure_int_divider>:
10003ec4:	b5f8      	push	{r3, r4, r5, r6, r7, lr}
10003ec6:	46de      	mov	lr, fp
10003ec8:	464e      	mov	r6, r9
10003eca:	4657      	mov	r7, sl
10003ecc:	4645      	mov	r5, r8
10003ece:	b5e0      	push	{r5, r6, r7, lr}
10003ed0:	468b      	mov	fp, r1
10003ed2:	0005      	movs	r5, r0
10003ed4:	990a      	ldr	r1, [sp, #40]	@ 0x28
10003ed6:	0018      	movs	r0, r3
10003ed8:	0016      	movs	r6, r2
10003eda:	f000 faf1 	bl	100044c0 <__wrap___aeabi_uidiv>
10003ede:	9b0a      	ldr	r3, [sp, #40]	@ 0x28
10003ee0:	006c      	lsls	r4, r5, #1
10003ee2:	021f      	lsls	r7, r3, #8
10003ee4:	4b32      	ldr	r3, [pc, #200]	@ (10003fb0 <clock_configure_int_divider+0xec>)
10003ee6:	1964      	adds	r4, r4, r5
10003ee8:	469c      	mov	ip, r3
10003eea:	00a4      	lsls	r4, r4, #2
10003eec:	4464      	add	r4, ip
10003eee:	6863      	ldr	r3, [r4, #4]
10003ef0:	4681      	mov	r9, r0
10003ef2:	429f      	cmp	r7, r3
10003ef4:	d900      	bls.n	10003ef8 <clock_configure_int_divider+0x34>
10003ef6:	6067      	str	r7, [r4, #4]
10003ef8:	1f2b      	subs	r3, r5, #4
10003efa:	b2db      	uxtb	r3, r3
10003efc:	4698      	mov	r8, r3
10003efe:	2b01      	cmp	r3, #1
10003f00:	d930      	bls.n	10003f64 <clock_configure_int_divider+0xa0>
10003f02:	23c0      	movs	r3, #192	@ 0xc0
10003f04:	2280      	movs	r2, #128	@ 0x80
10003f06:	019b      	lsls	r3, r3, #6
10003f08:	18e3      	adds	r3, r4, r3
10003f0a:	0112      	lsls	r2, r2, #4
10003f0c:	601a      	str	r2, [r3, #0]
10003f0e:	4b29      	ldr	r3, [pc, #164]	@ (10003fb4 <clock_configure_int_divider+0xf0>)
10003f10:	00ad      	lsls	r5, r5, #2
10003f12:	5959      	ldr	r1, [r3, r5]
10003f14:	469a      	mov	sl, r3
10003f16:	2900      	cmp	r1, #0
10003f18:	d11b      	bne.n	10003f52 <clock_configure_int_divider+0x8e>
10003f1a:	0173      	lsls	r3, r6, #5
10003f1c:	26e0      	movs	r6, #224	@ 0xe0
10003f1e:	6822      	ldr	r2, [r4, #0]
10003f20:	4053      	eors	r3, r2
10003f22:	401e      	ands	r6, r3
10003f24:	2380      	movs	r3, #128	@ 0x80
10003f26:	4642      	mov	r2, r8
10003f28:	015b      	lsls	r3, r3, #5
10003f2a:	18e3      	adds	r3, r4, r3
10003f2c:	601e      	str	r6, [r3, #0]
10003f2e:	2a01      	cmp	r2, #1
10003f30:	d930      	bls.n	10003f94 <clock_configure_int_divider+0xd0>
10003f32:	2380      	movs	r3, #128	@ 0x80
10003f34:	2280      	movs	r2, #128	@ 0x80
10003f36:	019b      	lsls	r3, r3, #6
10003f38:	18e3      	adds	r3, r4, r3
10003f3a:	0112      	lsls	r2, r2, #4
10003f3c:	601a      	str	r2, [r3, #0]
10003f3e:	4653      	mov	r3, sl
10003f40:	464a      	mov	r2, r9
10003f42:	6067      	str	r7, [r4, #4]
10003f44:	515a      	str	r2, [r3, r5]
10003f46:	bcf0      	pop	{r4, r5, r6, r7}
10003f48:	46bb      	mov	fp, r7
10003f4a:	46b2      	mov	sl, r6
10003f4c:	46a9      	mov	r9, r5
10003f4e:	46a0      	mov	r8, r4
10003f50:	bdf8      	pop	{r3, r4, r5, r6, r7, pc}
10003f52:	6958      	ldr	r0, [r3, #20]
10003f54:	f000 fab4 	bl	100044c0 <__wrap___aeabi_uidiv>
10003f58:	3001      	adds	r0, #1
10003f5a:	0043      	lsls	r3, r0, #1
10003f5c:	181b      	adds	r3, r3, r0
10003f5e:	3b03      	subs	r3, #3
10003f60:	d2fd      	bcs.n	10003f5e <clock_configure_int_divider+0x9a>
10003f62:	e7da      	b.n	10003f1a <clock_configure_int_divider+0x56>
10003f64:	465b      	mov	r3, fp
10003f66:	2b01      	cmp	r3, #1
10003f68:	d1cb      	bne.n	10003f02 <clock_configure_int_divider+0x3e>
10003f6a:	23c0      	movs	r3, #192	@ 0xc0
10003f6c:	2203      	movs	r2, #3
10003f6e:	019b      	lsls	r3, r3, #6
10003f70:	18e3      	adds	r3, r4, r3
10003f72:	601a      	str	r2, [r3, #0]
10003f74:	3a02      	subs	r2, #2
10003f76:	68a3      	ldr	r3, [r4, #8]
10003f78:	421a      	tst	r2, r3
10003f7a:	d0fc      	beq.n	10003f76 <clock_configure_int_divider+0xb2>
10003f7c:	0173      	lsls	r3, r6, #5
10003f7e:	26e0      	movs	r6, #224	@ 0xe0
10003f80:	6822      	ldr	r2, [r4, #0]
10003f82:	00ad      	lsls	r5, r5, #2
10003f84:	4053      	eors	r3, r2
10003f86:	401e      	ands	r6, r3
10003f88:	2380      	movs	r3, #128	@ 0x80
10003f8a:	4a0a      	ldr	r2, [pc, #40]	@ (10003fb4 <clock_configure_int_divider+0xf0>)
10003f8c:	015b      	lsls	r3, r3, #5
10003f8e:	4692      	mov	sl, r2
10003f90:	18e3      	adds	r3, r4, r3
10003f92:	601e      	str	r6, [r3, #0]
10003f94:	465a      	mov	r2, fp
10003f96:	6821      	ldr	r1, [r4, #0]
10003f98:	4051      	eors	r1, r2
10003f9a:	2203      	movs	r2, #3
10003f9c:	400a      	ands	r2, r1
10003f9e:	601a      	str	r2, [r3, #0]
10003fa0:	2201      	movs	r2, #1
10003fa2:	465b      	mov	r3, fp
10003fa4:	409a      	lsls	r2, r3
10003fa6:	68a3      	ldr	r3, [r4, #8]
10003fa8:	421a      	tst	r2, r3
10003faa:	d0fc      	beq.n	10003fa6 <clock_configure_int_divider+0xe2>
10003fac:	e7c1      	b.n	10003f32 <clock_configure_int_divider+0x6e>
10003fae:	46c0      	nop			@ (mov r8, r8)
10003fb0:	40008000 	.word	0x40008000
10003fb4:	20004d10 	.word	0x20004d10

10003fb8 <clock_configure_undivided>:
10003fb8:	b5f0      	push	{r4, r5, r6, r7, lr}
10003fba:	4646      	mov	r6, r8
10003fbc:	464f      	mov	r7, r9
10003fbe:	46d6      	mov	lr, sl
10003fc0:	b5c0      	push	{r6, r7, lr}
10003fc2:	001f      	movs	r7, r3
10003fc4:	4b34      	ldr	r3, [pc, #208]	@ (10004098 <clock_configure_undivided+0xe0>)
10003fc6:	0044      	lsls	r4, r0, #1
10003fc8:	469c      	mov	ip, r3
10003fca:	1824      	adds	r4, r4, r0
10003fcc:	00a4      	lsls	r4, r4, #2
10003fce:	4464      	add	r4, ip
10003fd0:	6863      	ldr	r3, [r4, #4]
10003fd2:	4688      	mov	r8, r1
10003fd4:	0016      	movs	r6, r2
10003fd6:	2bff      	cmp	r3, #255	@ 0xff
10003fd8:	d802      	bhi.n	10003fe0 <clock_configure_undivided+0x28>
10003fda:	2380      	movs	r3, #128	@ 0x80
10003fdc:	005b      	lsls	r3, r3, #1
10003fde:	6063      	str	r3, [r4, #4]
10003fe0:	1f03      	subs	r3, r0, #4
10003fe2:	b2db      	uxtb	r3, r3
10003fe4:	469a      	mov	sl, r3
10003fe6:	2b01      	cmp	r3, #1
10003fe8:	d930      	bls.n	1000404c <clock_configure_undivided+0x94>
10003fea:	23c0      	movs	r3, #192	@ 0xc0
10003fec:	2280      	movs	r2, #128	@ 0x80
10003fee:	019b      	lsls	r3, r3, #6
10003ff0:	18e3      	adds	r3, r4, r3
10003ff2:	0112      	lsls	r2, r2, #4
10003ff4:	601a      	str	r2, [r3, #0]
10003ff6:	4b29      	ldr	r3, [pc, #164]	@ (1000409c <clock_configure_undivided+0xe4>)
10003ff8:	0085      	lsls	r5, r0, #2
10003ffa:	5959      	ldr	r1, [r3, r5]
10003ffc:	4699      	mov	r9, r3
10003ffe:	2900      	cmp	r1, #0
10004000:	d11b      	bne.n	1000403a <clock_configure_undivided+0x82>
10004002:	0173      	lsls	r3, r6, #5
10004004:	26e0      	movs	r6, #224	@ 0xe0
10004006:	6822      	ldr	r2, [r4, #0]
10004008:	4053      	eors	r3, r2
1000400a:	401e      	ands	r6, r3
1000400c:	2380      	movs	r3, #128	@ 0x80
1000400e:	4652      	mov	r2, sl
10004010:	015b      	lsls	r3, r3, #5
10004012:	18e3      	adds	r3, r4, r3
10004014:	601e      	str	r6, [r3, #0]
10004016:	2a01      	cmp	r2, #1
10004018:	d930      	bls.n	1000407c <clock_configure_undivided+0xc4>
1000401a:	2380      	movs	r3, #128	@ 0x80
1000401c:	2280      	movs	r2, #128	@ 0x80
1000401e:	019b      	lsls	r3, r3, #6
10004020:	18e3      	adds	r3, r4, r3
10004022:	0112      	lsls	r2, r2, #4
10004024:	601a      	str	r2, [r3, #0]
10004026:	2380      	movs	r3, #128	@ 0x80
10004028:	005b      	lsls	r3, r3, #1
1000402a:	6063      	str	r3, [r4, #4]
1000402c:	464b      	mov	r3, r9
1000402e:	515f      	str	r7, [r3, r5]
10004030:	bce0      	pop	{r5, r6, r7}
10004032:	46ba      	mov	sl, r7
10004034:	46b1      	mov	r9, r6
10004036:	46a8      	mov	r8, r5
10004038:	bdf0      	pop	{r4, r5, r6, r7, pc}
1000403a:	6958      	ldr	r0, [r3, #20]
1000403c:	f000 fa40 	bl	100044c0 <__wrap___aeabi_uidiv>
10004040:	3001      	adds	r0, #1
10004042:	0043      	lsls	r3, r0, #1
10004044:	181b      	adds	r3, r3, r0
10004046:	3b03      	subs	r3, #3
10004048:	d2fd      	bcs.n	10004046 <clock_configure_undivided+0x8e>
1000404a:	e7da      	b.n	10004002 <clock_configure_undivided+0x4a>
1000404c:	4643      	mov	r3, r8
1000404e:	2b01      	cmp	r3, #1
10004050:	d1cb      	bne.n	10003fea <clock_configure_undivided+0x32>
10004052:	23c0      	movs	r3, #192	@ 0xc0
10004054:	2203      	movs	r2, #3
10004056:	019b      	lsls	r3, r3, #6
10004058:	18e3      	adds	r3, r4, r3
1000405a:	601a      	str	r2, [r3, #0]
1000405c:	3a02      	subs	r2, #2
1000405e:	68a3      	ldr	r3, [r4, #8]
10004060:	421a      	tst	r2, r3
10004062:	d0fc      	beq.n	1000405e <clock_configure_undivided+0xa6>
10004064:	0173      	lsls	r3, r6, #5
10004066:	26e0      	movs	r6, #224	@ 0xe0
10004068:	6822      	ldr	r2, [r4, #0]
1000406a:	0085      	lsls	r5, r0, #2
1000406c:	4053      	eors	r3, r2
1000406e:	401e      	ands	r6, r3
10004070:	2380      	movs	r3, #128	@ 0x80
10004072:	4a0a      	ldr	r2, [pc, #40]	@ (1000409c <clock_configure_undivided+0xe4>)
10004074:	015b      	lsls	r3, r3, #5
10004076:	4691      	mov	r9, r2
10004078:	18e3      	adds	r3, r4, r3
1000407a:	601e      	str	r6, [r3, #0]
1000407c:	4642      	mov	r2, r8
1000407e:	6821      	ldr	r1, [r4, #0]
10004080:	4051      	eors	r1, r2
10004082:	2203      	movs	r2, #3
10004084:	400a      	ands	r2, r1
10004086:	601a      	str	r2, [r3, #0]
10004088:	2301      	movs	r3, #1
1000408a:	4642      	mov	r2, r8
1000408c:	4093      	lsls	r3, r2
1000408e:	68a2      	ldr	r2, [r4, #8]
10004090:	4213      	tst	r3, r2
10004092:	d0fc      	beq.n	1000408e <clock_configure_undivided+0xd6>
10004094:	e7c1      	b.n	1000401a <clock_configure_undivided+0x62>
10004096:	46c0      	nop			@ (mov r8, r8)
10004098:	40008000 	.word	0x40008000
1000409c:	20004d10 	.word	0x20004d10

100040a0 <clock_get_hz>:
100040a0:	4b01      	ldr	r3, [pc, #4]	@ (100040a8 <clock_get_hz+0x8>)
100040a2:	0080      	lsls	r0, r0, #2
100040a4:	58c0      	ldr	r0, [r0, r3]
100040a6:	4770      	bx	lr
100040a8:	20004d10 	.word	0x20004d10

100040ac <pll_init>:
100040ac:	b5f8      	push	{r3, r4, r5, r6, r7, lr}
100040ae:	0004      	movs	r4, r0
100040b0:	4821      	ldr	r0, [pc, #132]	@ (10004138 <pll_init+0x8c>)
100040b2:	001e      	movs	r6, r3
100040b4:	0017      	movs	r7, r2
100040b6:	000d      	movs	r5, r1
100040b8:	f000 fa02 	bl	100044c0 <__wrap___aeabi_uidiv>
100040bc:	0001      	movs	r1, r0
100040be:	0038      	movs	r0, r7
100040c0:	f000 f9fe 	bl	100044c0 <__wrap___aeabi_uidiv>
100040c4:	9b06      	ldr	r3, [sp, #24]
100040c6:	0436      	lsls	r6, r6, #16
100040c8:	031b      	lsls	r3, r3, #12
100040ca:	431e      	orrs	r6, r3
100040cc:	6823      	ldr	r3, [r4, #0]
100040ce:	2b00      	cmp	r3, #0
100040d0:	db20      	blt.n	10004114 <pll_init+0x68>
100040d2:	4b1a      	ldr	r3, [pc, #104]	@ (1000413c <pll_init+0x90>)
100040d4:	491a      	ldr	r1, [pc, #104]	@ (10004140 <pll_init+0x94>)
100040d6:	18e3      	adds	r3, r4, r3
100040d8:	1e5a      	subs	r2, r3, #1
100040da:	4193      	sbcs	r3, r2
100040dc:	2280      	movs	r2, #128	@ 0x80
100040de:	0192      	lsls	r2, r2, #6
100040e0:	4694      	mov	ip, r2
100040e2:	425b      	negs	r3, r3
100040e4:	0b1b      	lsrs	r3, r3, #12
100040e6:	4a17      	ldr	r2, [pc, #92]	@ (10004144 <pll_init+0x98>)
100040e8:	031b      	lsls	r3, r3, #12
100040ea:	4463      	add	r3, ip
100040ec:	6013      	str	r3, [r2, #0]
100040ee:	4a16      	ldr	r2, [pc, #88]	@ (10004148 <pll_init+0x9c>)
100040f0:	6013      	str	r3, [r2, #0]
100040f2:	001f      	movs	r7, r3
100040f4:	680a      	ldr	r2, [r1, #0]
100040f6:	4397      	bics	r7, r2
100040f8:	d1fb      	bne.n	100040f2 <pll_init+0x46>
100040fa:	4b14      	ldr	r3, [pc, #80]	@ (1000414c <pll_init+0xa0>)
100040fc:	6025      	str	r5, [r4, #0]
100040fe:	18e2      	adds	r2, r4, r3
10004100:	2321      	movs	r3, #33	@ 0x21
10004102:	60a0      	str	r0, [r4, #8]
10004104:	6013      	str	r3, [r2, #0]
10004106:	6823      	ldr	r3, [r4, #0]
10004108:	2b00      	cmp	r3, #0
1000410a:	dafc      	bge.n	10004106 <pll_init+0x5a>
1000410c:	2308      	movs	r3, #8
1000410e:	60e6      	str	r6, [r4, #12]
10004110:	6013      	str	r3, [r2, #0]
10004112:	bdf8      	pop	{r3, r4, r5, r6, r7, pc}
10004114:	233f      	movs	r3, #63	@ 0x3f
10004116:	6822      	ldr	r2, [r4, #0]
10004118:	4013      	ands	r3, r2
1000411a:	42ab      	cmp	r3, r5
1000411c:	d1d9      	bne.n	100040d2 <pll_init+0x26>
1000411e:	68a3      	ldr	r3, [r4, #8]
10004120:	051b      	lsls	r3, r3, #20
10004122:	0d1b      	lsrs	r3, r3, #20
10004124:	4283      	cmp	r3, r0
10004126:	d1d4      	bne.n	100040d2 <pll_init+0x26>
10004128:	22ee      	movs	r2, #238	@ 0xee
1000412a:	68e3      	ldr	r3, [r4, #12]
1000412c:	02d2      	lsls	r2, r2, #11
1000412e:	4013      	ands	r3, r2
10004130:	42b3      	cmp	r3, r6
10004132:	d1ce      	bne.n	100040d2 <pll_init+0x26>
10004134:	e7ed      	b.n	10004112 <pll_init+0x66>
10004136:	46c0      	nop			@ (mov r8, r8)
10004138:	00b71b00 	.word	0x00b71b00
1000413c:	bffd4000 	.word	0xbffd4000
10004140:	4000c008 	.word	0x4000c008
10004144:	4000e000 	.word	0x4000e000
10004148:	4000f000 	.word	0x4000f000
1000414c:	00003004 	.word	0x00003004

10004150 <watchdog_reboot>:
10004150:	b510      	push	{r4, lr}
10004152:	2480      	movs	r4, #128	@ 0x80
10004154:	4b1c      	ldr	r3, [pc, #112]	@ (100041c8 <watchdog_reboot+0x78>)
10004156:	05e4      	lsls	r4, r4, #23
10004158:	601c      	str	r4, [r3, #0]
1000415a:	2800      	cmp	r0, #0
1000415c:	d01a      	beq.n	10004194 <watchdog_reboot+0x44>
1000415e:	2301      	movs	r3, #1
10004160:	4c1a      	ldr	r4, [pc, #104]	@ (100041cc <watchdog_reboot+0x7c>)
10004162:	4318      	orrs	r0, r3
10004164:	4b1a      	ldr	r3, [pc, #104]	@ (100041d0 <watchdog_reboot+0x80>)
10004166:	61dc      	str	r4, [r3, #28]
10004168:	4c1a      	ldr	r4, [pc, #104]	@ (100041d4 <watchdog_reboot+0x84>)
1000416a:	4044      	eors	r4, r0
1000416c:	621c      	str	r4, [r3, #32]
1000416e:	6259      	str	r1, [r3, #36]	@ 0x24
10004170:	6298      	str	r0, [r3, #40]	@ 0x28
10004172:	2180      	movs	r1, #128	@ 0x80
10004174:	4b14      	ldr	r3, [pc, #80]	@ (100041c8 <watchdog_reboot+0x78>)
10004176:	05c9      	lsls	r1, r1, #23
10004178:	6019      	str	r1, [r3, #0]
1000417a:	4817      	ldr	r0, [pc, #92]	@ (100041d8 <watchdog_reboot+0x88>)
1000417c:	4917      	ldr	r1, [pc, #92]	@ (100041dc <watchdog_reboot+0x8c>)
1000417e:	6008      	str	r0, [r1, #0]
10004180:	21e0      	movs	r1, #224	@ 0xe0
10004182:	04c9      	lsls	r1, r1, #19
10004184:	6019      	str	r1, [r3, #0]
10004186:	2a00      	cmp	r2, #0
10004188:	d107      	bne.n	1000419a <watchdog_reboot+0x4a>
1000418a:	2280      	movs	r2, #128	@ 0x80
1000418c:	4b14      	ldr	r3, [pc, #80]	@ (100041e0 <watchdog_reboot+0x90>)
1000418e:	0612      	lsls	r2, r2, #24
10004190:	601a      	str	r2, [r3, #0]
10004192:	bd10      	pop	{r4, pc}
10004194:	4b0e      	ldr	r3, [pc, #56]	@ (100041d0 <watchdog_reboot+0x80>)
10004196:	61d8      	str	r0, [r3, #28]
10004198:	e7eb      	b.n	10004172 <watchdog_reboot+0x22>
1000419a:	0153      	lsls	r3, r2, #5
1000419c:	1a9b      	subs	r3, r3, r2
1000419e:	009b      	lsls	r3, r3, #2
100041a0:	189a      	adds	r2, r3, r2
100041a2:	2380      	movs	r3, #128	@ 0x80
100041a4:	0112      	lsls	r2, r2, #4
100041a6:	045b      	lsls	r3, r3, #17
100041a8:	429a      	cmp	r2, r3
100041aa:	d209      	bcs.n	100041c0 <watchdog_reboot+0x70>
100041ac:	0013      	movs	r3, r2
100041ae:	490d      	ldr	r1, [pc, #52]	@ (100041e4 <watchdog_reboot+0x94>)
100041b0:	600b      	str	r3, [r1, #0]
100041b2:	4b07      	ldr	r3, [pc, #28]	@ (100041d0 <watchdog_reboot+0x80>)
100041b4:	605a      	str	r2, [r3, #4]
100041b6:	2280      	movs	r2, #128	@ 0x80
100041b8:	4b09      	ldr	r3, [pc, #36]	@ (100041e0 <watchdog_reboot+0x90>)
100041ba:	05d2      	lsls	r2, r2, #23
100041bc:	601a      	str	r2, [r3, #0]
100041be:	e7e8      	b.n	10004192 <watchdog_reboot+0x42>
100041c0:	4b09      	ldr	r3, [pc, #36]	@ (100041e8 <watchdog_reboot+0x98>)
100041c2:	001a      	movs	r2, r3
100041c4:	e7f3      	b.n	100041ae <watchdog_reboot+0x5e>
100041c6:	46c0      	nop			@ (mov r8, r8)
100041c8:	4005b000 	.word	0x4005b000
100041cc:	b007c0d3 	.word	0xb007c0d3
100041d0:	40058000 	.word	0x40058000
100041d4:	4ff83f2d 	.word	0x4ff83f2d
100041d8:	0001fffc 	.word	0x0001fffc
100041dc:	40012008 	.word	0x40012008
100041e0:	4005a000 	.word	0x4005a000
100041e4:	2000517c 	.word	0x2000517c
100041e8:	00ffffff 	.word	0x00ffffff

100041ec <tick_start>:
100041ec:	2380      	movs	r3, #128	@ 0x80
100041ee:	4a02      	ldr	r2, [pc, #8]	@ (100041f8 <tick_start+0xc>)
100041f0:	009b      	lsls	r3, r3, #2
100041f2:	430b      	orrs	r3, r1
100041f4:	62d3      	str	r3, [r2, #44]	@ 0x2c
100041f6:	4770      	bx	lr
100041f8:	40058000 	.word	0x40058000

100041fc <rom_func_lookup>:
100041fc:	2314      	movs	r3, #20
100041fe:	b510      	push	{r4, lr}
10004200:	0001      	movs	r1, r0
10004202:	8818      	ldrh	r0, [r3, #0]
10004204:	3304      	adds	r3, #4
10004206:	881b      	ldrh	r3, [r3, #0]
10004208:	4798      	blx	r3
1000420a:	bd10      	pop	{r4, pc}

1000420c <rom_data_lookup>:
1000420c:	2316      	movs	r3, #22
1000420e:	b510      	push	{r4, lr}
10004210:	0001      	movs	r1, r0
10004212:	8818      	ldrh	r0, [r3, #0]
10004214:	3302      	adds	r3, #2
10004216:	881b      	ldrh	r3, [r3, #0]
10004218:	4798      	blx	r3
1000421a:	bd10      	pop	{r4, pc}

1000421c <rom_funcs_lookup>:
1000421c:	b5f8      	push	{r3, r4, r5, r6, r7, lr}
1000421e:	4647      	mov	r7, r8
10004220:	46ce      	mov	lr, r9
10004222:	b580      	push	{r7, lr}
10004224:	1e0f      	subs	r7, r1, #0
10004226:	d019      	beq.n	1000425c <rom_funcs_lookup+0x40>
10004228:	2314      	movs	r3, #20
1000422a:	4699      	mov	r9, r3
1000422c:	3304      	adds	r3, #4
1000422e:	0004      	movs	r4, r0
10004230:	2500      	movs	r5, #0
10004232:	2601      	movs	r6, #1
10004234:	4698      	mov	r8, r3
10004236:	464b      	mov	r3, r9
10004238:	8818      	ldrh	r0, [r3, #0]
1000423a:	4643      	mov	r3, r8
1000423c:	6821      	ldr	r1, [r4, #0]
1000423e:	881b      	ldrh	r3, [r3, #0]
10004240:	4798      	blx	r3
10004242:	c401      	stmia	r4!, {r0}
10004244:	1e43      	subs	r3, r0, #1
10004246:	4198      	sbcs	r0, r3
10004248:	3501      	adds	r5, #1
1000424a:	4240      	negs	r0, r0
1000424c:	4006      	ands	r6, r0
1000424e:	42af      	cmp	r7, r5
10004250:	d1f1      	bne.n	10004236 <rom_funcs_lookup+0x1a>
10004252:	0030      	movs	r0, r6
10004254:	bcc0      	pop	{r6, r7}
10004256:	46b9      	mov	r9, r7
10004258:	46b0      	mov	r8, r6
1000425a:	bdf8      	pop	{r3, r4, r5, r6, r7, pc}
1000425c:	2601      	movs	r6, #1
1000425e:	e7f8      	b.n	10004252 <rom_funcs_lookup+0x36>

10004260 <rom_reset_usb_boot_extra>:
10004260:	2314      	movs	r3, #20
10004262:	b570      	push	{r4, r5, r6, lr}
10004264:	0004      	movs	r4, r0
10004266:	8818      	ldrh	r0, [r3, #0]
10004268:	3304      	adds	r3, #4
1000426a:	881b      	ldrh	r3, [r3, #0]
1000426c:	000d      	movs	r5, r1
1000426e:	4905      	ldr	r1, [pc, #20]	@ (10004284 <rom_reset_usb_boot_extra+0x24>)
10004270:	4798      	blx	r3
10004272:	0003      	movs	r3, r0
10004274:	2000      	movs	r0, #0
10004276:	2c00      	cmp	r4, #0
10004278:	db01      	blt.n	1000427e <rom_reset_usb_boot_extra+0x1e>
1000427a:	3001      	adds	r0, #1
1000427c:	40a0      	lsls	r0, r4
1000427e:	0029      	movs	r1, r5
10004280:	4798      	blx	r3
10004282:	46c0      	nop			@ (mov r8, r8)
10004284:	00004255 	.word	0x00004255

10004288 <xosc_init>:
10004288:	23aa      	movs	r3, #170	@ 0xaa
1000428a:	4a06      	ldr	r2, [pc, #24]	@ (100042a4 <xosc_init+0x1c>)
1000428c:	011b      	lsls	r3, r3, #4
1000428e:	6013      	str	r3, [r2, #0]
10004290:	232f      	movs	r3, #47	@ 0x2f
10004292:	4905      	ldr	r1, [pc, #20]	@ (100042a8 <xosc_init+0x20>)
10004294:	60d3      	str	r3, [r2, #12]
10004296:	4b05      	ldr	r3, [pc, #20]	@ (100042ac <xosc_init+0x24>)
10004298:	6019      	str	r1, [r3, #0]
1000429a:	6853      	ldr	r3, [r2, #4]
1000429c:	2b00      	cmp	r3, #0
1000429e:	dafc      	bge.n	1000429a <xosc_init+0x12>
100042a0:	4770      	bx	lr
100042a2:	46c0      	nop			@ (mov r8, r8)
100042a4:	40024000 	.word	0x40024000
100042a8:	00fab000 	.word	0x00fab000
100042ac:	40026000 	.word	0x40026000

100042b0 <first_per_core_initializer>:
100042b0:	4770      	bx	lr
100042b2:	46c0      	nop			@ (mov r8, r8)

100042b4 <hard_assertion_failure>:
100042b4:	b510      	push	{r4, lr}
100042b6:	4801      	ldr	r0, [pc, #4]	@ (100042bc <hard_assertion_failure+0x8>)
100042b8:	f7fe ff52 	bl	10003160 <panic>
100042bc:	10010764 	.word	0x10010764

100042c0 <runtime_run_initializers>:
100042c0:	b570      	push	{r4, r5, r6, lr}
100042c2:	4d07      	ldr	r5, [pc, #28]	@ (100042e0 <runtime_run_initializers+0x20>)
100042c4:	4e07      	ldr	r6, [pc, #28]	@ (100042e4 <runtime_run_initializers+0x24>)
100042c6:	42b5      	cmp	r5, r6
100042c8:	d209      	bcs.n	100042de <runtime_run_initializers+0x1e>
100042ca:	2400      	movs	r4, #0
100042cc:	3e01      	subs	r6, #1
100042ce:	1b76      	subs	r6, r6, r5
100042d0:	08b6      	lsrs	r6, r6, #2
100042d2:	cd08      	ldmia	r5!, {r3}
100042d4:	4798      	blx	r3
100042d6:	0023      	movs	r3, r4
100042d8:	3401      	adds	r4, #1
100042da:	42b3      	cmp	r3, r6
100042dc:	d1f9      	bne.n	100042d2 <runtime_run_initializers+0x12>
100042de:	bd70      	pop	{r4, r5, r6, pc}
100042e0:	100102e8 	.word	0x100102e8
100042e4:	10010324 	.word	0x10010324

100042e8 <runtime_init_early_resets>:
100042e8:	4b05      	ldr	r3, [pc, #20]	@ (10004300 <runtime_init_early_resets+0x18>)
100042ea:	4a06      	ldr	r2, [pc, #24]	@ (10004304 <runtime_init_early_resets+0x1c>)
100042ec:	4906      	ldr	r1, [pc, #24]	@ (10004308 <runtime_init_early_resets+0x20>)
100042ee:	601a      	str	r2, [r3, #0]
100042f0:	4a06      	ldr	r2, [pc, #24]	@ (1000430c <runtime_init_early_resets+0x24>)
100042f2:	4b07      	ldr	r3, [pc, #28]	@ (10004310 <runtime_init_early_resets+0x28>)
100042f4:	601a      	str	r2, [r3, #0]
100042f6:	0010      	movs	r0, r2
100042f8:	680b      	ldr	r3, [r1, #0]
100042fa:	4398      	bics	r0, r3
100042fc:	d1fb      	bne.n	100042f6 <runtime_init_early_resets+0xe>
100042fe:	4770      	bx	lr
10004300:	4000e000 	.word	0x4000e000
10004304:	fefbcdbf 	.word	0xfefbcdbf
10004308:	4000c008 	.word	0x4000c008
1000430c:	003c7ffe 	.word	0x003c7ffe
10004310:	4000f000 	.word	0x4000f000

10004314 <runtime_init_usb_power_down>:
10004314:	4b04      	ldr	r3, [pc, #16]	@ (10004328 <runtime_init_usb_power_down+0x14>)
10004316:	6cdb      	ldr	r3, [r3, #76]	@ 0x4c
10004318:	2b00      	cmp	r3, #0
1000431a:	d103      	bne.n	10004324 <runtime_init_usb_power_down+0x10>
1000431c:	2280      	movs	r2, #128	@ 0x80
1000431e:	4b03      	ldr	r3, [pc, #12]	@ (1000432c <runtime_init_usb_power_down+0x18>)
10004320:	02d2      	lsls	r2, r2, #11
10004322:	601a      	str	r2, [r3, #0]
10004324:	4770      	bx	lr
10004326:	46c0      	nop			@ (mov r8, r8)
10004328:	50110000 	.word	0x50110000
1000432c:	5011204c 	.word	0x5011204c

10004330 <runtime_init_post_clock_resets>:
10004330:	4a04      	ldr	r2, [pc, #16]	@ (10004344 <runtime_init_post_clock_resets+0x14>)
10004332:	4b05      	ldr	r3, [pc, #20]	@ (10004348 <runtime_init_post_clock_resets+0x18>)
10004334:	601a      	str	r2, [r3, #0]
10004336:	4a05      	ldr	r2, [pc, #20]	@ (1000434c <runtime_init_post_clock_resets+0x1c>)
10004338:	6813      	ldr	r3, [r2, #0]
1000433a:	01db      	lsls	r3, r3, #7
1000433c:	3380      	adds	r3, #128	@ 0x80
1000433e:	d1fb      	bne.n	10004338 <runtime_init_post_clock_resets+0x8>
10004340:	4770      	bx	lr
10004342:	46c0      	nop			@ (mov r8, r8)
10004344:	01ffffff 	.word	0x01ffffff
10004348:	4000f000 	.word	0x4000f000
1000434c:	4000c008 	.word	0x4000c008

10004350 <runtime_init_rp2040_gpio_ie_disable>:
10004350:	2240      	movs	r2, #64	@ 0x40
10004352:	4b03      	ldr	r3, [pc, #12]	@ (10004360 <runtime_init_rp2040_gpio_ie_disable+0x10>)
10004354:	679a      	str	r2, [r3, #120]	@ 0x78
10004356:	675a      	str	r2, [r3, #116]	@ 0x74
10004358:	671a      	str	r2, [r3, #112]	@ 0x70
1000435a:	66da      	str	r2, [r3, #108]	@ 0x6c
1000435c:	4770      	bx	lr
1000435e:	46c0      	nop			@ (mov r8, r8)
10004360:	4001f000 	.word	0x4001f000

10004364 <runtime_init_spin_locks_reset>:
10004364:	b510      	push	{r4, lr}
10004366:	f7fe ffa1 	bl	100032ac <spin_locks_reset>
1000436a:	bd10      	pop	{r4, pc}

1000436c <runtime_init_install_ram_vector_table>:
1000436c:	b570      	push	{r4, r5, r6, lr}
1000436e:	4d04      	ldr	r5, [pc, #16]	@ (10004380 <runtime_init_install_ram_vector_table+0x14>)
10004370:	4c04      	ldr	r4, [pc, #16]	@ (10004384 <runtime_init_install_ram_vector_table+0x18>)
10004372:	68a9      	ldr	r1, [r5, #8]
10004374:	22c0      	movs	r2, #192	@ 0xc0
10004376:	0020      	movs	r0, r4
10004378:	f001 f89c 	bl	100054b4 <__wrap___aeabi_memcpy>
1000437c:	60ac      	str	r4, [r5, #8]
1000437e:	bd70      	pop	{r4, r5, r6, pc}
10004380:	e000ed00 	.word	0xe000ed00
10004384:	20000000 	.word	0x20000000

10004388 <runtime_init_clocks>:
10004388:	2300      	movs	r3, #0
1000438a:	b510      	push	{r4, lr}
1000438c:	4c29      	ldr	r4, [pc, #164]	@ (10004434 <runtime_init_clocks+0xac>)
1000438e:	b082      	sub	sp, #8
10004390:	67a3      	str	r3, [r4, #120]	@ 0x78
10004392:	f7ff ff79 	bl	10004288 <xosc_init>
10004396:	2201      	movs	r2, #1
10004398:	4b27      	ldr	r3, [pc, #156]	@ (10004438 <runtime_init_clocks+0xb0>)
1000439a:	601a      	str	r2, [r3, #0]
1000439c:	6c63      	ldr	r3, [r4, #68]	@ 0x44
1000439e:	2b01      	cmp	r3, #1
100043a0:	d1fc      	bne.n	1000439c <runtime_init_clocks+0x14>
100043a2:	2203      	movs	r2, #3
100043a4:	4b25      	ldr	r3, [pc, #148]	@ (1000443c <runtime_init_clocks+0xb4>)
100043a6:	601a      	str	r2, [r3, #0]
100043a8:	4a22      	ldr	r2, [pc, #136]	@ (10004434 <runtime_init_clocks+0xac>)
100043aa:	6b93      	ldr	r3, [r2, #56]	@ 0x38
100043ac:	2b01      	cmp	r3, #1
100043ae:	d1fc      	bne.n	100043aa <runtime_init_clocks+0x22>
100043b0:	3301      	adds	r3, #1
100043b2:	9300      	str	r3, [sp, #0]
100043b4:	2101      	movs	r1, #1
100043b6:	4a22      	ldr	r2, [pc, #136]	@ (10004440 <runtime_init_clocks+0xb8>)
100043b8:	4822      	ldr	r0, [pc, #136]	@ (10004444 <runtime_init_clocks+0xbc>)
100043ba:	3304      	adds	r3, #4
100043bc:	f7ff fe76 	bl	100040ac <pll_init>
100043c0:	2305      	movs	r3, #5
100043c2:	2101      	movs	r1, #1
100043c4:	9300      	str	r3, [sp, #0]
100043c6:	4a20      	ldr	r2, [pc, #128]	@ (10004448 <runtime_init_clocks+0xc0>)
100043c8:	4820      	ldr	r0, [pc, #128]	@ (1000444c <runtime_init_clocks+0xc4>)
100043ca:	f7ff fe6f 	bl	100040ac <pll_init>
100043ce:	2200      	movs	r2, #0
100043d0:	2102      	movs	r1, #2
100043d2:	2004      	movs	r0, #4
100043d4:	4b1e      	ldr	r3, [pc, #120]	@ (10004450 <runtime_init_clocks+0xc8>)
100043d6:	f7ff fdef 	bl	10003fb8 <clock_configure_undivided>
100043da:	2200      	movs	r2, #0
100043dc:	2101      	movs	r1, #1
100043de:	2005      	movs	r0, #5
100043e0:	4b1c      	ldr	r3, [pc, #112]	@ (10004454 <runtime_init_clocks+0xcc>)
100043e2:	f7ff fde9 	bl	10003fb8 <clock_configure_undivided>
100043e6:	2200      	movs	r2, #0
100043e8:	2100      	movs	r1, #0
100043ea:	2007      	movs	r0, #7
100043ec:	4b1a      	ldr	r3, [pc, #104]	@ (10004458 <runtime_init_clocks+0xd0>)
100043ee:	f7ff fde3 	bl	10003fb8 <clock_configure_undivided>
100043f2:	2200      	movs	r2, #0
100043f4:	2100      	movs	r1, #0
100043f6:	2008      	movs	r0, #8
100043f8:	4b17      	ldr	r3, [pc, #92]	@ (10004458 <runtime_init_clocks+0xd0>)
100043fa:	f7ff fddd 	bl	10003fb8 <clock_configure_undivided>
100043fe:	2380      	movs	r3, #128	@ 0x80
10004400:	00db      	lsls	r3, r3, #3
10004402:	9300      	str	r3, [sp, #0]
10004404:	2200      	movs	r2, #0
10004406:	2100      	movs	r1, #0
10004408:	2009      	movs	r0, #9
1000440a:	4b13      	ldr	r3, [pc, #76]	@ (10004458 <runtime_init_clocks+0xd0>)
1000440c:	f7ff fd5a 	bl	10003ec4 <clock_configure_int_divider>
10004410:	2200      	movs	r2, #0
10004412:	4b10      	ldr	r3, [pc, #64]	@ (10004454 <runtime_init_clocks+0xcc>)
10004414:	2100      	movs	r1, #0
10004416:	2006      	movs	r0, #6
10004418:	f7ff fdce 	bl	10003fb8 <clock_configure_undivided>
1000441c:	2004      	movs	r0, #4
1000441e:	f7ff fe3f 	bl	100040a0 <clock_get_hz>
10004422:	490e      	ldr	r1, [pc, #56]	@ (1000445c <runtime_init_clocks+0xd4>)
10004424:	f000 f84c 	bl	100044c0 <__wrap___aeabi_uidiv>
10004428:	0001      	movs	r1, r0
1000442a:	2000      	movs	r0, #0
1000442c:	f7ff fede 	bl	100041ec <tick_start>
10004430:	b002      	add	sp, #8
10004432:	bd10      	pop	{r4, pc}
10004434:	40008000 	.word	0x40008000
10004438:	4000b03c 	.word	0x4000b03c
1000443c:	4000b030 	.word	0x4000b030
10004440:	59682f00 	.word	0x59682f00
10004444:	40028000 	.word	0x40028000
10004448:	47868c00 	.word	0x47868c00
1000444c:	4002c000 	.word	0x4002c000
10004450:	00b71b00 	.word	0x00b71b00
10004454:	07735940 	.word	0x07735940
10004458:	02dc6c00 	.word	0x02dc6c00
1000445c:	000f4240 	.word	0x000f4240

10004460 <__aeabi_bits_init>:
10004460:	4801      	ldr	r0, [pc, #4]	@ (10004468 <__aeabi_bits_init+0x8>)
10004462:	2104      	movs	r1, #4
10004464:	4b01      	ldr	r3, [pc, #4]	@ (1000446c <__aeabi_bits_init+0xc>)
10004466:	4718      	bx	r3
10004468:	20001180 	.word	0x20001180
1000446c:	1000421d 	.word	0x1000421d

10004470 <__wrap___aeabi_idiv>:
10004470:	4a12      	ldr	r2, [pc, #72]	@ (100044bc <divmod_s32s32_savestate+0x18>)
10004472:	6f93      	ldr	r3, [r2, #120]	@ 0x78
10004474:	089b      	lsrs	r3, r3, #2
10004476:	d215      	bcs.n	100044a4 <divmod_s32s32_savestate>

10004478 <divmod_s32s32_unsafe>:
10004478:	6690      	str	r0, [r2, #104]	@ 0x68
1000447a:	66d1      	str	r1, [r2, #108]	@ 0x6c
1000447c:	2900      	cmp	r1, #0
1000447e:	d005      	beq.n	1000448c <divmod_s32s32_unsafe+0x14>
10004480:	e7ff      	b.n	10004482 <divmod_s32s32_unsafe+0xa>
10004482:	e7ff      	b.n	10004484 <divmod_s32s32_unsafe+0xc>
10004484:	e7ff      	b.n	10004486 <divmod_s32s32_unsafe+0xe>
10004486:	6f51      	ldr	r1, [r2, #116]	@ 0x74
10004488:	6f10      	ldr	r0, [r2, #112]	@ 0x70
1000448a:	4770      	bx	lr
1000448c:	b504      	push	{r2, lr}
1000448e:	2180      	movs	r1, #128	@ 0x80
10004490:	0609      	lsls	r1, r1, #24
10004492:	17c2      	asrs	r2, r0, #31
10004494:	4051      	eors	r1, r2
10004496:	2800      	cmp	r0, #0
10004498:	d000      	beq.n	1000449c <divmod_s32s32_unsafe+0x24>
1000449a:	43c8      	mvns	r0, r1
1000449c:	f00b fec4 	bl	10010228 <____aeabi_idiv0_veneer>
100044a0:	2100      	movs	r1, #0
100044a2:	bd04      	pop	{r2, pc}

100044a4 <divmod_s32s32_savestate>:
100044a4:	b5f0      	push	{r4, r5, r6, r7, lr}
100044a6:	6e14      	ldr	r4, [r2, #96]	@ 0x60
100044a8:	6e55      	ldr	r5, [r2, #100]	@ 0x64
100044aa:	6f57      	ldr	r7, [r2, #116]	@ 0x74
100044ac:	6f16      	ldr	r6, [r2, #112]	@ 0x70
100044ae:	f7ff ffe3 	bl	10004478 <divmod_s32s32_unsafe>
100044b2:	6614      	str	r4, [r2, #96]	@ 0x60
100044b4:	6655      	str	r5, [r2, #100]	@ 0x64
100044b6:	6757      	str	r7, [r2, #116]	@ 0x74
100044b8:	6716      	str	r6, [r2, #112]	@ 0x70
100044ba:	bdf0      	pop	{r4, r5, r6, r7, pc}
100044bc:	d0000000 	.word	0xd0000000

100044c0 <__wrap___aeabi_uidiv>:
100044c0:	4a11      	ldr	r2, [pc, #68]	@ (10004508 <divmod_u32u32_savestate+0x18>)
100044c2:	6f93      	ldr	r3, [r2, #120]	@ 0x78
100044c4:	089b      	lsrs	r3, r3, #2
100044c6:	d213      	bcs.n	100044f0 <divmod_u32u32_savestate>

100044c8 <divmod_u32u32_unsafe>:
100044c8:	6610      	str	r0, [r2, #96]	@ 0x60
100044ca:	6651      	str	r1, [r2, #100]	@ 0x64
100044cc:	2900      	cmp	r1, #0
100044ce:	d005      	beq.n	100044dc <divmod_u32u32_unsafe+0x14>
100044d0:	e7ff      	b.n	100044d2 <divmod_u32u32_unsafe+0xa>
100044d2:	e7ff      	b.n	100044d4 <divmod_u32u32_unsafe+0xc>
100044d4:	e7ff      	b.n	100044d6 <divmod_u32u32_unsafe+0xe>
100044d6:	6f51      	ldr	r1, [r2, #116]	@ 0x74
100044d8:	6f10      	ldr	r0, [r2, #112]	@ 0x70
100044da:	4770      	bx	lr
100044dc:	b504      	push	{r2, lr}
100044de:	2800      	cmp	r0, #0
100044e0:	d001      	beq.n	100044e6 <divmod_u32u32_unsafe+0x1e>
100044e2:	2000      	movs	r0, #0
100044e4:	43c0      	mvns	r0, r0
100044e6:	f00b fe9f 	bl	10010228 <____aeabi_idiv0_veneer>
100044ea:	2100      	movs	r1, #0
100044ec:	bd04      	pop	{r2, pc}
100044ee:	46c0      	nop			@ (mov r8, r8)

100044f0 <divmod_u32u32_savestate>:
100044f0:	b5f0      	push	{r4, r5, r6, r7, lr}
100044f2:	6e14      	ldr	r4, [r2, #96]	@ 0x60
100044f4:	6e55      	ldr	r5, [r2, #100]	@ 0x64
100044f6:	6f57      	ldr	r7, [r2, #116]	@ 0x74
100044f8:	6f16      	ldr	r6, [r2, #112]	@ 0x70
100044fa:	f7ff ffe5 	bl	100044c8 <divmod_u32u32_unsafe>
100044fe:	6614      	str	r4, [r2, #96]	@ 0x60
10004500:	6655      	str	r5, [r2, #100]	@ 0x64
10004502:	6757      	str	r7, [r2, #116]	@ 0x74
10004504:	6716      	str	r6, [r2, #112]	@ 0x70
10004506:	bdf0      	pop	{r4, r5, r6, r7, pc}
10004508:	d0000000 	.word	0xd0000000

1000450c <__wrap___aeabi_ldivmod>:
1000450c:	4694      	mov	ip, r2
1000450e:	4a4a      	ldr	r2, [pc, #296]	@ (10004638 <udiv0+0x1a>)
10004510:	6f92      	ldr	r2, [r2, #120]	@ 0x78
10004512:	0892      	lsrs	r2, r2, #2
10004514:	4662      	mov	r2, ip
10004516:	d201      	bcs.n	1000451c <divmod_s64s64_savestate>
10004518:	e028      	b.n	1000456c <divmod_s64s64_unsafe>
1000451a:	46c0      	nop			@ (mov r8, r8)

1000451c <divmod_s64s64_savestate>:
1000451c:	b5f0      	push	{r4, r5, r6, r7, lr}
1000451e:	4e46      	ldr	r6, [pc, #280]	@ (10004638 <udiv0+0x1a>)
10004520:	6e34      	ldr	r4, [r6, #96]	@ 0x60
10004522:	6e75      	ldr	r5, [r6, #100]	@ 0x64
10004524:	6f77      	ldr	r7, [r6, #116]	@ 0x74
10004526:	6f36      	ldr	r6, [r6, #112]	@ 0x70
10004528:	f000 f820 	bl	1000456c <divmod_s64s64_unsafe>
1000452c:	4694      	mov	ip, r2
1000452e:	4a42      	ldr	r2, [pc, #264]	@ (10004638 <udiv0+0x1a>)
10004530:	6614      	str	r4, [r2, #96]	@ 0x60
10004532:	6655      	str	r5, [r2, #100]	@ 0x64
10004534:	6757      	str	r7, [r2, #116]	@ 0x74
10004536:	6716      	str	r6, [r2, #112]	@ 0x70
10004538:	4662      	mov	r2, ip
1000453a:	bdf0      	pop	{r4, r5, r6, r7, pc}

1000453c <__wrap___aeabi_uldivmod>:
1000453c:	4694      	mov	ip, r2
1000453e:	4a3e      	ldr	r2, [pc, #248]	@ (10004638 <udiv0+0x1a>)
10004540:	6f92      	ldr	r2, [r2, #120]	@ 0x78
10004542:	0892      	lsrs	r2, r2, #2
10004544:	4662      	mov	r2, ip
10004546:	d201      	bcs.n	1000454c <divmod_u64u64_savestate>
10004548:	e054      	b.n	100045f4 <divmod_u64u64_unsafe>
1000454a:	46c0      	nop			@ (mov r8, r8)

1000454c <divmod_u64u64_savestate>:
1000454c:	b5f0      	push	{r4, r5, r6, r7, lr}
1000454e:	4e3a      	ldr	r6, [pc, #232]	@ (10004638 <udiv0+0x1a>)
10004550:	6e34      	ldr	r4, [r6, #96]	@ 0x60
10004552:	6e75      	ldr	r5, [r6, #100]	@ 0x64
10004554:	6f77      	ldr	r7, [r6, #116]	@ 0x74
10004556:	6f36      	ldr	r6, [r6, #112]	@ 0x70
10004558:	f000 f84c 	bl	100045f4 <divmod_u64u64_unsafe>
1000455c:	4694      	mov	ip, r2
1000455e:	4a36      	ldr	r2, [pc, #216]	@ (10004638 <udiv0+0x1a>)
10004560:	6614      	str	r4, [r2, #96]	@ 0x60
10004562:	6655      	str	r5, [r2, #100]	@ 0x64
10004564:	6757      	str	r7, [r2, #116]	@ 0x74
10004566:	6716      	str	r6, [r2, #112]	@ 0x70
10004568:	4662      	mov	r2, ip
1000456a:	bdf0      	pop	{r4, r5, r6, r7, pc}

1000456c <divmod_s64s64_unsafe>:
1000456c:	2b00      	cmp	r3, #0
1000456e:	db24      	blt.n	100045ba <l42_1+0x26>
10004570:	d011      	beq.n	10004596 <l42_1+0x2>
10004572:	2900      	cmp	r1, #0
10004574:	da3e      	bge.n	100045f4 <divmod_u64u64_unsafe>
10004576:	b500      	push	{lr}
10004578:	43c9      	mvns	r1, r1
1000457a:	4240      	negs	r0, r0
1000457c:	d100      	bne.n	10004580 <l40_1>
1000457e:	3101      	adds	r1, #1

10004580 <l40_1>:
10004580:	f000 f838 	bl	100045f4 <divmod_u64u64_unsafe>
10004584:	43c9      	mvns	r1, r1
10004586:	4240      	negs	r0, r0
10004588:	d100      	bne.n	1000458c <l41_1>
1000458a:	3101      	adds	r1, #1

1000458c <l41_1>:
1000458c:	43db      	mvns	r3, r3
1000458e:	4252      	negs	r2, r2
10004590:	d100      	bne.n	10004594 <l42_1>
10004592:	3301      	adds	r3, #1

10004594 <l42_1>:
10004594:	bd00      	pop	{pc}
10004596:	2a00      	cmp	r2, #0
10004598:	d1eb      	bne.n	10004572 <divmod_s64s64_unsafe+0x6>
1000459a:	2800      	cmp	r0, #0
1000459c:	d101      	bne.n	100045a2 <l42_1+0xe>
1000459e:	2900      	cmp	r1, #0
100045a0:	d005      	beq.n	100045ae <l42_1+0x1a>
100045a2:	2000      	movs	r0, #0
100045a4:	0fc9      	lsrs	r1, r1, #31
100045a6:	07c9      	lsls	r1, r1, #31
100045a8:	d101      	bne.n	100045ae <l42_1+0x1a>
100045aa:	43c0      	mvns	r0, r0
100045ac:	0841      	lsrs	r1, r0, #1
100045ae:	b500      	push	{lr}
100045b0:	f00b fe2a 	bl	10010208 <____aeabi_ldiv0_veneer>
100045b4:	2200      	movs	r2, #0
100045b6:	2300      	movs	r3, #0
100045b8:	bd00      	pop	{pc}
100045ba:	b500      	push	{lr}
100045bc:	2900      	cmp	r1, #0
100045be:	db0a      	blt.n	100045d6 <l44_1+0x2>
100045c0:	43db      	mvns	r3, r3
100045c2:	4252      	negs	r2, r2
100045c4:	d100      	bne.n	100045c8 <l43_1>
100045c6:	3301      	adds	r3, #1

100045c8 <l43_1>:
100045c8:	f000 f814 	bl	100045f4 <divmod_u64u64_unsafe>
100045cc:	43c9      	mvns	r1, r1
100045ce:	4240      	negs	r0, r0
100045d0:	d100      	bne.n	100045d4 <l44_1>
100045d2:	3101      	adds	r1, #1

100045d4 <l44_1>:
100045d4:	bd00      	pop	{pc}
100045d6:	43c9      	mvns	r1, r1
100045d8:	4240      	negs	r0, r0
100045da:	d100      	bne.n	100045de <l45_1>
100045dc:	3101      	adds	r1, #1

100045de <l45_1>:
100045de:	43db      	mvns	r3, r3
100045e0:	4252      	negs	r2, r2
100045e2:	d100      	bne.n	100045e6 <l46_1>
100045e4:	3301      	adds	r3, #1

100045e6 <l46_1>:
100045e6:	f000 f805 	bl	100045f4 <divmod_u64u64_unsafe>
100045ea:	43db      	mvns	r3, r3
100045ec:	4252      	negs	r2, r2
100045ee:	d100      	bne.n	100045f2 <l47_1>
100045f0:	3301      	adds	r3, #1

100045f2 <l47_1>:
100045f2:	bd00      	pop	{pc}

100045f4 <divmod_u64u64_unsafe>:
100045f4:	2900      	cmp	r1, #0
100045f6:	d123      	bne.n	10004640 <y64>
100045f8:	2b00      	cmp	r3, #0
100045fa:	d118      	bne.n	1000462e <udiv0+0x10>
100045fc:	2a00      	cmp	r2, #0
100045fe:	d00c      	beq.n	1000461a <divmod_u64u64_unsafe+0x26>
10004600:	46bc      	mov	ip, r7
10004602:	4f0d      	ldr	r7, [pc, #52]	@ (10004638 <udiv0+0x1a>)
10004604:	6638      	str	r0, [r7, #96]	@ 0x60
10004606:	667a      	str	r2, [r7, #100]	@ 0x64
10004608:	2100      	movs	r1, #0
1000460a:	2300      	movs	r3, #0
1000460c:	e7ff      	b.n	1000460e <divmod_u64u64_unsafe+0x1a>
1000460e:	e7ff      	b.n	10004610 <divmod_u64u64_unsafe+0x1c>
10004610:	e7ff      	b.n	10004612 <divmod_u64u64_unsafe+0x1e>
10004612:	6f7a      	ldr	r2, [r7, #116]	@ 0x74
10004614:	6f38      	ldr	r0, [r7, #112]	@ 0x70
10004616:	4667      	mov	r7, ip
10004618:	4770      	bx	lr
1000461a:	2800      	cmp	r0, #0
1000461c:	d001      	beq.n	10004622 <udiv0+0x4>

1000461e <udiv0>:
1000461e:	4807      	ldr	r0, [pc, #28]	@ (1000463c <udiv0+0x1e>)
10004620:	0001      	movs	r1, r0
10004622:	b500      	push	{lr}
10004624:	f00b fdf0 	bl	10010208 <____aeabi_ldiv0_veneer>
10004628:	2200      	movs	r2, #0
1000462a:	2300      	movs	r3, #0
1000462c:	bd00      	pop	{pc}
1000462e:	0002      	movs	r2, r0
10004630:	000b      	movs	r3, r1
10004632:	2000      	movs	r0, #0
10004634:	2100      	movs	r1, #0
10004636:	4770      	bx	lr
10004638:	d0000000 	.word	0xd0000000
1000463c:	ffffffff 	.word	0xffffffff

10004640 <y64>:
10004640:	2b00      	cmp	r3, #0
10004642:	d000      	beq.n	10004646 <y64+0x6>
10004644:	e0bf      	b.n	100047c6 <y64_x48>
10004646:	0c13      	lsrs	r3, r2, #16
10004648:	d128      	bne.n	1000469c <y64_x32>
1000464a:	2a00      	cmp	r2, #0
1000464c:	d0e7      	beq.n	1000461e <udiv0>
1000464e:	b480      	push	{r7}
10004650:	4f11      	ldr	r7, [pc, #68]	@ (10004698 <y64+0x58>)
10004652:	6639      	str	r1, [r7, #96]	@ 0x60
10004654:	667a      	str	r2, [r7, #100]	@ 0x64
10004656:	e7ff      	b.n	10004658 <y64+0x18>
10004658:	e7ff      	b.n	1000465a <y64+0x1a>
1000465a:	b430      	push	{r4, r5}
1000465c:	0c04      	lsrs	r4, r0, #16
1000465e:	6f7b      	ldr	r3, [r7, #116]	@ 0x74
10004660:	6f39      	ldr	r1, [r7, #112]	@ 0x70
10004662:	041b      	lsls	r3, r3, #16
10004664:	4323      	orrs	r3, r4
10004666:	663b      	str	r3, [r7, #96]	@ 0x60
10004668:	667a      	str	r2, [r7, #100]	@ 0x64
1000466a:	e7ff      	b.n	1000466c <y64+0x2c>
1000466c:	e7ff      	b.n	1000466e <y64+0x2e>
1000466e:	e7ff      	b.n	10004670 <y64+0x30>
10004670:	46c0      	nop			@ (mov r8, r8)
10004672:	b284      	uxth	r4, r0
10004674:	6f7b      	ldr	r3, [r7, #116]	@ 0x74
10004676:	6f3d      	ldr	r5, [r7, #112]	@ 0x70
10004678:	041b      	lsls	r3, r3, #16
1000467a:	4323      	orrs	r3, r4
1000467c:	663b      	str	r3, [r7, #96]	@ 0x60
1000467e:	667a      	str	r2, [r7, #100]	@ 0x64
10004680:	e7ff      	b.n	10004682 <y64+0x42>
10004682:	e7ff      	b.n	10004684 <y64+0x44>
10004684:	46c0      	nop			@ (mov r8, r8)
10004686:	2300      	movs	r3, #0
10004688:	042c      	lsls	r4, r5, #16
1000468a:	0c2d      	lsrs	r5, r5, #16
1000468c:	6f7a      	ldr	r2, [r7, #116]	@ 0x74
1000468e:	6f38      	ldr	r0, [r7, #112]	@ 0x70
10004690:	1900      	adds	r0, r0, r4
10004692:	4169      	adcs	r1, r5
10004694:	bcb0      	pop	{r4, r5, r7}
10004696:	4770      	bx	lr
10004698:	d0000000 	.word	0xd0000000

1000469c <y64_x32>:
1000469c:	b5f0      	push	{r4, r5, r6, r7, lr}
1000469e:	4694      	mov	ip, r2
100046a0:	2500      	movs	r5, #0
100046a2:	0e14      	lsrs	r4, r2, #24
100046a4:	d101      	bne.n	100046aa <y64_x32+0xe>
100046a6:	0212      	lsls	r2, r2, #8
100046a8:	3508      	adds	r5, #8
100046aa:	0f14      	lsrs	r4, r2, #28
100046ac:	d101      	bne.n	100046b2 <y64_x32+0x16>
100046ae:	0112      	lsls	r2, r2, #4
100046b0:	3504      	adds	r5, #4
100046b2:	0f94      	lsrs	r4, r2, #30
100046b4:	d101      	bne.n	100046ba <y64_x32+0x1e>
100046b6:	0092      	lsls	r2, r2, #2
100046b8:	3502      	adds	r5, #2
100046ba:	0fd4      	lsrs	r4, r2, #31
100046bc:	d101      	bne.n	100046c2 <y64_x32+0x26>
100046be:	0052      	lsls	r2, r2, #1
100046c0:	3501      	adds	r5, #1
100046c2:	0bd4      	lsrs	r4, r2, #15
100046c4:	3401      	adds	r4, #1
100046c6:	4f25      	ldr	r7, [pc, #148]	@ (1000475c <y64_x32+0xc0>)
100046c8:	667c      	str	r4, [r7, #100]	@ 0x64
100046ca:	4c25      	ldr	r4, [pc, #148]	@ (10004760 <y64_x32+0xc4>)
100046cc:	663c      	str	r4, [r7, #96]	@ 0x60
100046ce:	0c0e      	lsrs	r6, r1, #16
100046d0:	b293      	uxth	r3, r2
100046d2:	e7ff      	b.n	100046d4 <y64_x32+0x38>
100046d4:	e7ff      	b.n	100046d6 <y64_x32+0x3a>
100046d6:	e7ff      	b.n	100046d8 <y64_x32+0x3c>
100046d8:	6f3c      	ldr	r4, [r7, #112]	@ 0x70
100046da:	4366      	muls	r6, r4
100046dc:	0c36      	lsrs	r6, r6, #16
100046de:	0377      	lsls	r7, r6, #13
100046e0:	46be      	mov	lr, r7
100046e2:	4373      	muls	r3, r6
100046e4:	0bdf      	lsrs	r7, r3, #15
100046e6:	045b      	lsls	r3, r3, #17
100046e8:	1ac0      	subs	r0, r0, r3
100046ea:	41b9      	sbcs	r1, r7
100046ec:	0c13      	lsrs	r3, r2, #16
100046ee:	4373      	muls	r3, r6
100046f0:	18db      	adds	r3, r3, r3
100046f2:	1ac9      	subs	r1, r1, r3
100046f4:	08ce      	lsrs	r6, r1, #3
100046f6:	4366      	muls	r6, r4
100046f8:	0c36      	lsrs	r6, r6, #16
100046fa:	44b6      	add	lr, r6
100046fc:	b293      	uxth	r3, r2
100046fe:	4373      	muls	r3, r6
10004700:	0f1f      	lsrs	r7, r3, #28
10004702:	011b      	lsls	r3, r3, #4
10004704:	1ac0      	subs	r0, r0, r3
10004706:	41b9      	sbcs	r1, r7
10004708:	0c13      	lsrs	r3, r2, #16
1000470a:	4373      	muls	r3, r6
1000470c:	0b1f      	lsrs	r7, r3, #12
1000470e:	051b      	lsls	r3, r3, #20
10004710:	1ac0      	subs	r0, r0, r3
10004712:	41b9      	sbcs	r1, r7
10004714:	0d86      	lsrs	r6, r0, #22
10004716:	028f      	lsls	r7, r1, #10
10004718:	433e      	orrs	r6, r7
1000471a:	4366      	muls	r6, r4
1000471c:	0c36      	lsrs	r6, r6, #16
1000471e:	2d09      	cmp	r5, #9
10004720:	db24      	blt.n	1000476c <last0>
10004722:	0a52      	lsrs	r2, r2, #9
10004724:	4372      	muls	r2, r6
10004726:	1a80      	subs	r0, r0, r2
10004728:	0377      	lsls	r7, r6, #13
1000472a:	0a46      	lsrs	r6, r0, #9
1000472c:	4366      	muls	r6, r4
1000472e:	0c36      	lsrs	r6, r6, #16
10004730:	2316      	movs	r3, #22
10004732:	1b5b      	subs	r3, r3, r5
10004734:	40de      	lsrs	r6, r3
10004736:	40df      	lsrs	r7, r3
10004738:	19bf      	adds	r7, r7, r6
1000473a:	4664      	mov	r4, ip
1000473c:	4366      	muls	r6, r4
1000473e:	1b82      	subs	r2, r0, r6
10004740:	4670      	mov	r0, lr
10004742:	3504      	adds	r5, #4
10004744:	3306      	adds	r3, #6
10004746:	0001      	movs	r1, r0
10004748:	40d9      	lsrs	r1, r3
1000474a:	40a8      	lsls	r0, r5
1000474c:	19c0      	adds	r0, r0, r7
1000474e:	d300      	bcc.n	10004752 <y64_x32+0xb6>
10004750:	3101      	adds	r1, #1
10004752:	42a2      	cmp	r2, r4
10004754:	d206      	bcs.n	10004764 <y64_x32+0xc8>
10004756:	2300      	movs	r3, #0
10004758:	bdf0      	pop	{r4, r5, r6, r7, pc}
1000475a:	0000      	.short	0x0000
1000475c:	d0000000 	.word	0xd0000000
10004760:	ffffffff 	.word	0xffffffff
10004764:	1b12      	subs	r2, r2, r4
10004766:	3001      	adds	r0, #1
10004768:	d3f3      	bcc.n	10004752 <y64_x32+0xb6>
1000476a:	e7f1      	b.n	10004750 <y64_x32+0xb4>

1000476c <last0>:
1000476c:	2709      	movs	r7, #9
1000476e:	1b7f      	subs	r7, r7, r5
10004770:	40fe      	lsrs	r6, r7
10004772:	4664      	mov	r4, ip
10004774:	b2a2      	uxth	r2, r4
10004776:	4372      	muls	r2, r6
10004778:	1a80      	subs	r0, r0, r2
1000477a:	d200      	bcs.n	1000477e <last0+0x12>
1000477c:	3901      	subs	r1, #1
1000477e:	0c22      	lsrs	r2, r4, #16
10004780:	4372      	muls	r2, r6
10004782:	0c13      	lsrs	r3, r2, #16
10004784:	0412      	lsls	r2, r2, #16
10004786:	1a82      	subs	r2, r0, r2
10004788:	4199      	sbcs	r1, r3
1000478a:	000b      	movs	r3, r1
1000478c:	4670      	mov	r0, lr
1000478e:	3504      	adds	r5, #4
10004790:	3713      	adds	r7, #19
10004792:	0001      	movs	r1, r0
10004794:	40f9      	lsrs	r1, r7
10004796:	40a8      	lsls	r0, r5
10004798:	1980      	adds	r0, r0, r6
1000479a:	d300      	bcc.n	1000479e <last0+0x32>
1000479c:	3101      	adds	r1, #1
1000479e:	2b00      	cmp	r3, #0
100047a0:	d102      	bne.n	100047a8 <last0+0x3c>
100047a2:	42a2      	cmp	r2, r4
100047a4:	d20a      	bcs.n	100047bc <last0+0x50>
100047a6:	bdf0      	pop	{r4, r5, r6, r7, pc}
100047a8:	3001      	adds	r0, #1
100047aa:	d300      	bcc.n	100047ae <last0+0x42>
100047ac:	3101      	adds	r1, #1
100047ae:	1b12      	subs	r2, r2, r4
100047b0:	d2fa      	bcs.n	100047a8 <last0+0x3c>
100047b2:	3b01      	subs	r3, #1
100047b4:	d1f8      	bne.n	100047a8 <last0+0x3c>
100047b6:	42a2      	cmp	r2, r4
100047b8:	d200      	bcs.n	100047bc <last0+0x50>
100047ba:	bdf0      	pop	{r4, r5, r6, r7, pc}
100047bc:	3001      	adds	r0, #1
100047be:	d300      	bcc.n	100047c2 <last0+0x56>
100047c0:	3101      	adds	r1, #1
100047c2:	1b12      	subs	r2, r2, r4
100047c4:	e7f7      	b.n	100047b6 <last0+0x4a>

100047c6 <y64_x48>:
100047c6:	b5f0      	push	{r4, r5, r6, r7, lr}
100047c8:	0c1c      	lsrs	r4, r3, #16
100047ca:	d000      	beq.n	100047ce <y64_x48+0x8>
100047cc:	e080      	b.n	100048d0 <y64_x64>
100047ce:	b40c      	push	{r2, r3}
100047d0:	2500      	movs	r5, #0
100047d2:	0a1c      	lsrs	r4, r3, #8
100047d4:	d104      	bne.n	100047e0 <y64_x48+0x1a>
100047d6:	021b      	lsls	r3, r3, #8
100047d8:	0e16      	lsrs	r6, r2, #24
100047da:	4333      	orrs	r3, r6
100047dc:	0212      	lsls	r2, r2, #8
100047de:	3508      	adds	r5, #8
100047e0:	0b1c      	lsrs	r4, r3, #12
100047e2:	d104      	bne.n	100047ee <y64_x48+0x28>
100047e4:	011b      	lsls	r3, r3, #4
100047e6:	0f16      	lsrs	r6, r2, #28
100047e8:	4333      	orrs	r3, r6
100047ea:	0112      	lsls	r2, r2, #4
100047ec:	3504      	adds	r5, #4
100047ee:	0b9c      	lsrs	r4, r3, #14
100047f0:	d104      	bne.n	100047fc <y64_x48+0x36>
100047f2:	009b      	lsls	r3, r3, #2
100047f4:	0f96      	lsrs	r6, r2, #30
100047f6:	4333      	orrs	r3, r6
100047f8:	0092      	lsls	r2, r2, #2
100047fa:	3502      	adds	r5, #2
100047fc:	0bdc      	lsrs	r4, r3, #15
100047fe:	d102      	bne.n	10004806 <y64_x48+0x40>
10004800:	1892      	adds	r2, r2, r2
10004802:	415b      	adcs	r3, r3
10004804:	3501      	adds	r5, #1
10004806:	001c      	movs	r4, r3
10004808:	1897      	adds	r7, r2, r2
1000480a:	4164      	adcs	r4, r4
1000480c:	3401      	adds	r4, #1
1000480e:	4f46      	ldr	r7, [pc, #280]	@ (10004928 <y64_x64+0x58>)
10004810:	667c      	str	r4, [r7, #100]	@ 0x64
10004812:	4c46      	ldr	r4, [pc, #280]	@ (1000492c <y64_x64+0x5c>)
10004814:	663c      	str	r4, [r7, #96]	@ 0x60
10004816:	0c0e      	lsrs	r6, r1, #16
10004818:	e7ff      	b.n	1000481a <y64_x48+0x54>
1000481a:	e7ff      	b.n	1000481c <y64_x48+0x56>
1000481c:	e7ff      	b.n	1000481e <y64_x48+0x58>
1000481e:	46c0      	nop			@ (mov r8, r8)
10004820:	6f3c      	ldr	r4, [r7, #112]	@ 0x70
10004822:	4366      	muls	r6, r4
10004824:	0c36      	lsrs	r6, r6, #16
10004826:	0377      	lsls	r7, r6, #13
10004828:	46be      	mov	lr, r7
1000482a:	b297      	uxth	r7, r2
1000482c:	4377      	muls	r7, r6
1000482e:	1bc0      	subs	r0, r0, r7
10004830:	d200      	bcs.n	10004834 <y64_x48+0x6e>
10004832:	3901      	subs	r1, #1
10004834:	1bc0      	subs	r0, r0, r7
10004836:	d200      	bcs.n	1000483a <y64_x48+0x74>
10004838:	3901      	subs	r1, #1
1000483a:	b29f      	uxth	r7, r3
1000483c:	4377      	muls	r7, r6
1000483e:	1bc9      	subs	r1, r1, r7
10004840:	1bc9      	subs	r1, r1, r7
10004842:	0c17      	lsrs	r7, r2, #16
10004844:	4377      	muls	r7, r6
10004846:	047e      	lsls	r6, r7, #17
10004848:	0bff      	lsrs	r7, r7, #15
1000484a:	1b80      	subs	r0, r0, r6
1000484c:	41b9      	sbcs	r1, r7
1000484e:	08ce      	lsrs	r6, r1, #3
10004850:	4366      	muls	r6, r4
10004852:	0c36      	lsrs	r6, r6, #16
10004854:	2d0c      	cmp	r5, #12
10004856:	db33      	blt.n	100048c0 <last1>
10004858:	44b6      	add	lr, r6
1000485a:	0b12      	lsrs	r2, r2, #12
1000485c:	051f      	lsls	r7, r3, #20
1000485e:	433a      	orrs	r2, r7
10004860:	0b1b      	lsrs	r3, r3, #12
10004862:	b297      	uxth	r7, r2
10004864:	4377      	muls	r7, r6
10004866:	1bc0      	subs	r0, r0, r7
10004868:	d200      	bcs.n	1000486c <y64_x48+0xa6>
1000486a:	3901      	subs	r1, #1
1000486c:	b29f      	uxth	r7, r3
1000486e:	4377      	muls	r7, r6
10004870:	1bc9      	subs	r1, r1, r7
10004872:	0c17      	lsrs	r7, r2, #16
10004874:	4377      	muls	r7, r6
10004876:	043e      	lsls	r6, r7, #16
10004878:	0c3f      	lsrs	r7, r7, #16
1000487a:	1b80      	subs	r0, r0, r6
1000487c:	41b9      	sbcs	r1, r7
1000487e:	0d86      	lsrs	r6, r0, #22
10004880:	028f      	lsls	r7, r1, #10
10004882:	433e      	orrs	r6, r7
10004884:	4366      	muls	r6, r4
10004886:	2729      	movs	r7, #41	@ 0x29
10004888:	1b7f      	subs	r7, r7, r5
1000488a:	40fe      	lsrs	r6, r7
1000488c:	3d0c      	subs	r5, #12
1000488e:	4677      	mov	r7, lr
10004890:	40af      	lsls	r7, r5
10004892:	19bf      	adds	r7, r7, r6
10004894:	bc30      	pop	{r4, r5}
10004896:	b2a2      	uxth	r2, r4
10004898:	b2ab      	uxth	r3, r5
1000489a:	4372      	muls	r2, r6
1000489c:	4373      	muls	r3, r6
1000489e:	1a80      	subs	r0, r0, r2
100048a0:	4199      	sbcs	r1, r3
100048a2:	0c22      	lsrs	r2, r4, #16
100048a4:	4372      	muls	r2, r6
100048a6:	0c13      	lsrs	r3, r2, #16
100048a8:	0412      	lsls	r2, r2, #16
100048aa:	1a80      	subs	r0, r0, r2
100048ac:	4199      	sbcs	r1, r3
100048ae:	0002      	movs	r2, r0
100048b0:	000b      	movs	r3, r1
100048b2:	3701      	adds	r7, #1
100048b4:	1b00      	subs	r0, r0, r4
100048b6:	41a9      	sbcs	r1, r5
100048b8:	d2f9      	bcs.n	100048ae <y64_x48+0xe8>
100048ba:	1e78      	subs	r0, r7, #1
100048bc:	2100      	movs	r1, #0
100048be:	bdf0      	pop	{r4, r5, r6, r7, pc}

100048c0 <last1>:
100048c0:	270c      	movs	r7, #12
100048c2:	1b7f      	subs	r7, r7, r5
100048c4:	40fe      	lsrs	r6, r7
100048c6:	4677      	mov	r7, lr
100048c8:	0b7f      	lsrs	r7, r7, #13
100048ca:	40af      	lsls	r7, r5
100048cc:	19ff      	adds	r7, r7, r7
100048ce:	e7e0      	b.n	10004892 <y64_x48+0xcc>

100048d0 <y64_x64>:
100048d0:	2400      	movs	r4, #0
100048d2:	1c5d      	adds	r5, r3, #1
100048d4:	d007      	beq.n	100048e6 <y64_x64+0x16>
100048d6:	4f14      	ldr	r7, [pc, #80]	@ (10004928 <y64_x64+0x58>)
100048d8:	667d      	str	r5, [r7, #100]	@ 0x64
100048da:	6639      	str	r1, [r7, #96]	@ 0x60
100048dc:	e7ff      	b.n	100048de <y64_x64+0xe>
100048de:	e7ff      	b.n	100048e0 <y64_x64+0x10>
100048e0:	e7ff      	b.n	100048e2 <y64_x64+0x12>
100048e2:	e7ff      	b.n	100048e4 <y64_x64+0x14>
100048e4:	6f3c      	ldr	r4, [r7, #112]	@ 0x70
100048e6:	b295      	uxth	r5, r2
100048e8:	b29e      	uxth	r6, r3
100048ea:	4365      	muls	r5, r4
100048ec:	4366      	muls	r6, r4
100048ee:	1b40      	subs	r0, r0, r5
100048f0:	41b1      	sbcs	r1, r6
100048f2:	0c15      	lsrs	r5, r2, #16
100048f4:	0c1e      	lsrs	r6, r3, #16
100048f6:	4365      	muls	r5, r4
100048f8:	4366      	muls	r6, r4
100048fa:	0436      	lsls	r6, r6, #16
100048fc:	0c2f      	lsrs	r7, r5, #16
100048fe:	433e      	orrs	r6, r7
10004900:	042d      	lsls	r5, r5, #16
10004902:	1b40      	subs	r0, r0, r5
10004904:	41b1      	sbcs	r1, r6
10004906:	4299      	cmp	r1, r3
10004908:	d204      	bcs.n	10004914 <y64_x64+0x44>
1000490a:	0002      	movs	r2, r0
1000490c:	000b      	movs	r3, r1
1000490e:	0020      	movs	r0, r4
10004910:	2100      	movs	r1, #0
10004912:	bdf0      	pop	{r4, r5, r6, r7, pc}
10004914:	d101      	bne.n	1000491a <y64_x64+0x4a>
10004916:	4290      	cmp	r0, r2
10004918:	d3f7      	bcc.n	1000490a <y64_x64+0x3a>
1000491a:	1a80      	subs	r0, r0, r2
1000491c:	4199      	sbcs	r1, r3
1000491e:	3401      	adds	r4, #1
10004920:	4299      	cmp	r1, r3
10004922:	d3f2      	bcc.n	1000490a <y64_x64+0x3a>
10004924:	e7f6      	b.n	10004914 <y64_x64+0x44>
10004926:	0000      	.short	0x0000
10004928:	d0000000 	.word	0xd0000000
1000492c:	ffffffff 	.word	0xffffffff

10004930 <__wrap___aeabi_drsub>:
10004930:	4048      	eors	r0, r1
10004932:	4041      	eors	r1, r0
10004934:	4048      	eors	r0, r1

10004936 <__wrap___aeabi_dsub>:
10004936:	b418      	push	{r3, r4}
10004938:	4b1b      	ldr	r3, [pc, #108]	@ (100049a8 <__wrap___aeabi_dmul+0x12>)
1000493a:	685b      	ldr	r3, [r3, #4]
1000493c:	46fc      	mov	ip, pc
1000493e:	9301      	str	r3, [sp, #4]
10004940:	bd08      	pop	{r3, pc}
10004942:	df04      	.short	0xdf04
10004944:	10004cb7 	.word	0x10004cb7

10004948 <__wrap___aeabi_dadd>:
10004948:	b418      	push	{r3, r4}
1000494a:	4b17      	ldr	r3, [pc, #92]	@ (100049a8 <__wrap___aeabi_dmul+0x12>)
1000494c:	681b      	ldr	r3, [r3, #0]
1000494e:	46fc      	mov	ip, pc
10004950:	9301      	str	r3, [sp, #4]
10004952:	bd08      	pop	{r3, pc}
10004954:	4cc1df00 	.word	0x4cc1df00
10004958:	1000      	.short	0x1000

1000495a <__wrap___aeabi_ddiv>:
1000495a:	4694      	mov	ip, r2
1000495c:	4a13      	ldr	r2, [pc, #76]	@ (100049ac <__wrap___aeabi_dmul+0x16>)
1000495e:	6f92      	ldr	r2, [r2, #120]	@ 0x78
10004960:	0892      	lsrs	r2, r2, #2
10004962:	d209      	bcs.n	10004978 <ddiv_save_state>
10004964:	4662      	mov	r2, ip

10004966 <ddiv_shim_call>:
10004966:	b418      	push	{r3, r4}
10004968:	4b0f      	ldr	r3, [pc, #60]	@ (100049a8 <__wrap___aeabi_dmul+0x12>)
1000496a:	68db      	ldr	r3, [r3, #12]
1000496c:	46fc      	mov	ip, pc
1000496e:	9301      	str	r3, [sp, #4]
10004970:	bd08      	pop	{r3, pc}
10004972:	df0c      	.short	0xdf0c
10004974:	10004f79 	.word	0x10004f79

10004978 <ddiv_save_state>:
10004978:	4a0c      	ldr	r2, [pc, #48]	@ (100049ac <__wrap___aeabi_dmul+0x16>)
1000497a:	b5f0      	push	{r4, r5, r6, r7, lr}
1000497c:	6e14      	ldr	r4, [r2, #96]	@ 0x60
1000497e:	6e55      	ldr	r5, [r2, #100]	@ 0x64
10004980:	6f57      	ldr	r7, [r2, #116]	@ 0x74
10004982:	6f16      	ldr	r6, [r2, #112]	@ 0x70
10004984:	4662      	mov	r2, ip
10004986:	f7ff ffee 	bl	10004966 <ddiv_shim_call>
1000498a:	4a08      	ldr	r2, [pc, #32]	@ (100049ac <__wrap___aeabi_dmul+0x16>)
1000498c:	6614      	str	r4, [r2, #96]	@ 0x60
1000498e:	6655      	str	r5, [r2, #100]	@ 0x64
10004990:	6757      	str	r7, [r2, #116]	@ 0x74
10004992:	6716      	str	r6, [r2, #112]	@ 0x70
10004994:	bdf0      	pop	{r4, r5, r6, r7, pc}

10004996 <__wrap___aeabi_dmul>:
10004996:	b418      	push	{r3, r4}
10004998:	4b03      	ldr	r3, [pc, #12]	@ (100049a8 <__wrap___aeabi_dmul+0x12>)
1000499a:	689b      	ldr	r3, [r3, #8]
1000499c:	46fc      	mov	ip, pc
1000499e:	9301      	str	r3, [sp, #4]
100049a0:	bd08      	pop	{r3, pc}
100049a2:	df08      	.short	0xdf08
100049a4:	10004e1d 	.word	0x10004e1d
100049a8:	20001a48 	.word	0x20001a48
100049ac:	d0000000 	.word	0xd0000000

100049b0 <__wrap___aeabi_cdrcmple>:
100049b0:	b5ff      	push	{r0, r1, r2, r3, r4, r5, r6, r7, lr}
100049b2:	4050      	eors	r0, r2
100049b4:	4042      	eors	r2, r0
100049b6:	4050      	eors	r0, r2
100049b8:	4059      	eors	r1, r3
100049ba:	404b      	eors	r3, r1
100049bc:	4059      	eors	r1, r3
100049be:	e000      	b.n	100049c2 <__aeabi_dfcmple_guts>

100049c0 <__wrap___aeabi_cdcmpeq>:
100049c0:	b5ff      	push	{r0, r1, r2, r3, r4, r5, r6, r7, lr}

100049c2 <__aeabi_dfcmple_guts>:
100049c2:	4f15      	ldr	r7, [pc, #84]	@ (10004a18 <__aeabi_dfcmple_guts+0x56>)
100049c4:	004c      	lsls	r4, r1, #1
100049c6:	0d64      	lsrs	r4, r4, #21
100049c8:	d003      	beq.n	100049d2 <__aeabi_dfcmple_guts+0x10>
100049ca:	42bc      	cmp	r4, r7
100049cc:	d104      	bne.n	100049d8 <__aeabi_dfcmple_guts+0x16>
100049ce:	030c      	lsls	r4, r1, #12
100049d0:	d814      	bhi.n	100049fc <__aeabi_dfcmple_guts+0x3a>
100049d2:	2000      	movs	r0, #0
100049d4:	0d09      	lsrs	r1, r1, #20
100049d6:	0509      	lsls	r1, r1, #20
100049d8:	005c      	lsls	r4, r3, #1
100049da:	0d64      	lsrs	r4, r4, #21
100049dc:	d003      	beq.n	100049e6 <__aeabi_dfcmple_guts+0x24>
100049de:	42bc      	cmp	r4, r7
100049e0:	d104      	bne.n	100049ec <__aeabi_dfcmple_guts+0x2a>
100049e2:	031c      	lsls	r4, r3, #12
100049e4:	d80a      	bhi.n	100049fc <__aeabi_dfcmple_guts+0x3a>
100049e6:	2200      	movs	r2, #0
100049e8:	0d1b      	lsrs	r3, r3, #20
100049ea:	051b      	lsls	r3, r3, #20
100049ec:	2601      	movs	r6, #1
100049ee:	404b      	eors	r3, r1
100049f0:	d409      	bmi.n	10004a06 <__aeabi_dfcmple_guts+0x44>
100049f2:	404b      	eors	r3, r1
100049f4:	d503      	bpl.n	100049fe <__aeabi_dfcmple_guts+0x3c>
100049f6:	428b      	cmp	r3, r1
100049f8:	d100      	bne.n	100049fc <__aeabi_dfcmple_guts+0x3a>
100049fa:	4282      	cmp	r2, r0
100049fc:	bdff      	pop	{r0, r1, r2, r3, r4, r5, r6, r7, pc}
100049fe:	4299      	cmp	r1, r3
10004a00:	d1fc      	bne.n	100049fc <__aeabi_dfcmple_guts+0x3a>
10004a02:	4290      	cmp	r0, r2
10004a04:	bdff      	pop	{r0, r1, r2, r3, r4, r5, r6, r7, pc}
10004a06:	430b      	orrs	r3, r1
10004a08:	18db      	adds	r3, r3, r3
10004a0a:	4303      	orrs	r3, r0
10004a0c:	4313      	orrs	r3, r2
10004a0e:	d0f5      	beq.n	100049fc <__aeabi_dfcmple_guts+0x3a>
10004a10:	43c9      	mvns	r1, r1
10004a12:	1849      	adds	r1, r1, r1
10004a14:	bdff      	pop	{r0, r1, r2, r3, r4, r5, r6, r7, pc}
10004a16:	0000      	.short	0x0000
10004a18:	000007ff 	.word	0x000007ff

10004a1c <__wrap___aeabi_dcmpeq>:
10004a1c:	b500      	push	{lr}
10004a1e:	f7ff ffcf 	bl	100049c0 <__wrap___aeabi_cdcmpeq>
10004a22:	d001      	beq.n	10004a28 <__wrap___aeabi_dcmpeq+0xc>
10004a24:	2000      	movs	r0, #0
10004a26:	bd00      	pop	{pc}
10004a28:	2001      	movs	r0, #1
10004a2a:	bd00      	pop	{pc}

10004a2c <__wrap___aeabi_dcmplt>:
10004a2c:	b500      	push	{lr}
10004a2e:	f7ff ffc7 	bl	100049c0 <__wrap___aeabi_cdcmpeq>
10004a32:	4180      	sbcs	r0, r0
10004a34:	bd00      	pop	{pc}
10004a36:	46c0      	nop			@ (mov r8, r8)

10004a38 <__wrap___aeabi_dcmple>:
10004a38:	b500      	push	{lr}
10004a3a:	f7ff ffc1 	bl	100049c0 <__wrap___aeabi_cdcmpeq>
10004a3e:	d901      	bls.n	10004a44 <__wrap___aeabi_dcmple+0xc>
10004a40:	2000      	movs	r0, #0
10004a42:	bd00      	pop	{pc}
10004a44:	2001      	movs	r0, #1
10004a46:	bd00      	pop	{pc}

10004a48 <__wrap___aeabi_dcmpgt>:
10004a48:	b500      	push	{lr}
10004a4a:	f7ff ffb1 	bl	100049b0 <__wrap___aeabi_cdrcmple>
10004a4e:	4180      	sbcs	r0, r0
10004a50:	bd00      	pop	{pc}

10004a52 <__wrap___aeabi_dcmpun>:
10004a52:	2001      	movs	r0, #1
10004a54:	0540      	lsls	r0, r0, #21
10004a56:	004a      	lsls	r2, r1, #1
10004a58:	1812      	adds	r2, r2, r0
10004a5a:	d804      	bhi.n	10004a66 <__wrap___aeabi_dcmpun+0x14>
10004a5c:	005a      	lsls	r2, r3, #1
10004a5e:	1812      	adds	r2, r2, r0
10004a60:	d801      	bhi.n	10004a66 <__wrap___aeabi_dcmpun+0x14>
10004a62:	2000      	movs	r0, #0
10004a64:	4770      	bx	lr
10004a66:	2001      	movs	r0, #1
10004a68:	4770      	bx	lr
	...

10004a6c <__wrap___aeabi_ui2d>:
10004a6c:	2100      	movs	r1, #0
10004a6e:	2800      	cmp	r0, #0
10004a70:	d105      	bne.n	10004a7e <__wrap___aeabi_i2d+0xa>
10004a72:	4770      	bx	lr

10004a74 <__wrap___aeabi_i2d>:
10004a74:	17c1      	asrs	r1, r0, #31
10004a76:	4048      	eors	r0, r1
10004a78:	1a40      	subs	r0, r0, r1
10004a7a:	d0fa      	beq.n	10004a72 <__wrap___aeabi_ui2d+0x6>
10004a7c:	07c9      	lsls	r1, r1, #31
10004a7e:	b513      	push	{r0, r1, r4, lr}
10004a80:	4b06      	ldr	r3, [pc, #24]	@ (10004a9c <__wrap___aeabi_i2d+0x28>)
10004a82:	681b      	ldr	r3, [r3, #0]
10004a84:	4798      	blx	r3
10004a86:	bc0c      	pop	{r2, r3}
10004a88:	1c44      	adds	r4, r0, #1
10004a8a:	40a2      	lsls	r2, r4
10004a8c:	0510      	lsls	r0, r2, #20
10004a8e:	0b12      	lsrs	r2, r2, #12
10004a90:	4903      	ldr	r1, [pc, #12]	@ (10004aa0 <__wrap___aeabi_i2d+0x2c>)
10004a92:	1b09      	subs	r1, r1, r4
10004a94:	0509      	lsls	r1, r1, #20
10004a96:	4319      	orrs	r1, r3
10004a98:	4311      	orrs	r1, r2
10004a9a:	bd10      	pop	{r4, pc}
10004a9c:	200051bc 	.word	0x200051bc
10004aa0:	0000041f 	.word	0x0000041f

10004aa4 <__wrap___aeabi_d2iz>:
10004aa4:	b510      	push	{r4, lr}
10004aa6:	004c      	lsls	r4, r1, #1
10004aa8:	0d62      	lsrs	r2, r4, #21
10004aaa:	2380      	movs	r3, #128	@ 0x80
10004aac:	18d2      	adds	r2, r2, r3
10004aae:	00db      	lsls	r3, r3, #3
10004ab0:	1ad2      	subs	r2, r2, r3
10004ab2:	055b      	lsls	r3, r3, #21
10004ab4:	2a7e      	cmp	r2, #126	@ 0x7e
10004ab6:	dd10      	ble.n	10004ada <__wrap___aeabi_d2iz+0x36>
10004ab8:	3a9e      	subs	r2, #158	@ 0x9e
10004aba:	da13      	bge.n	10004ae4 <__wrap___aeabi_d2iz+0x40>
10004abc:	17cc      	asrs	r4, r1, #31
10004abe:	0309      	lsls	r1, r1, #12
10004ac0:	0849      	lsrs	r1, r1, #1
10004ac2:	4319      	orrs	r1, r3
10004ac4:	4252      	negs	r2, r2
10004ac6:	40d1      	lsrs	r1, r2
10004ac8:	0064      	lsls	r4, r4, #1
10004aca:	3401      	adds	r4, #1
10004acc:	3215      	adds	r2, #21
10004ace:	2a20      	cmp	r2, #32
10004ad0:	da05      	bge.n	10004ade <__wrap___aeabi_d2iz+0x3a>
10004ad2:	40d0      	lsrs	r0, r2
10004ad4:	4308      	orrs	r0, r1
10004ad6:	4360      	muls	r0, r4
10004ad8:	bd10      	pop	{r4, pc}
10004ada:	2000      	movs	r0, #0
10004adc:	bd10      	pop	{r4, pc}
10004ade:	4608      	mov	r0, r1
10004ae0:	4360      	muls	r0, r4
10004ae2:	bd10      	pop	{r4, pc}
10004ae4:	0fc8      	lsrs	r0, r1, #31
10004ae6:	18c0      	adds	r0, r0, r3
10004ae8:	3801      	subs	r0, #1
10004aea:	bd10      	pop	{r4, pc}

10004aec <__wrap___aeabi_d2lz>:
10004aec:	42c9      	cmn	r1, r1
10004aee:	d311      	bcc.n	10004b14 <double2int64>
10004af0:	b500      	push	{lr}
10004af2:	0049      	lsls	r1, r1, #1
10004af4:	0849      	lsrs	r1, r1, #1
10004af6:	2200      	movs	r2, #0
10004af8:	f000 f818 	bl	10004b2c <double2ufix64>
10004afc:	2900      	cmp	r1, #0
10004afe:	d404      	bmi.n	10004b0a <__wrap___aeabi_d2lz+0x1e>
10004b00:	2200      	movs	r2, #0
10004b02:	4240      	negs	r0, r0
10004b04:	418a      	sbcs	r2, r1
10004b06:	4611      	mov	r1, r2
10004b08:	bd00      	pop	{pc}
10004b0a:	2180      	movs	r1, #128	@ 0x80
10004b0c:	0609      	lsls	r1, r1, #24
10004b0e:	2000      	movs	r0, #0
10004b10:	bd00      	pop	{pc}
	...

10004b14 <double2int64>:
10004b14:	b418      	push	{r3, r4}
10004b16:	4b04      	ldr	r3, [pc, #16]	@ (10004b28 <double2int64+0x14>)
10004b18:	6edb      	ldr	r3, [r3, #108]	@ 0x6c
10004b1a:	46fc      	mov	ip, pc
10004b1c:	9301      	str	r3, [sp, #4]
10004b1e:	bd08      	pop	{r3, pc}
10004b20:	5129df6c 	.word	0x5129df6c
10004b24:	00001000 	.word	0x00001000
10004b28:	20001a48 	.word	0x20001a48

10004b2c <double2ufix64>:
10004b2c:	b418      	push	{r3, r4}
10004b2e:	4b04      	ldr	r3, [pc, #16]	@ (10004b40 <double2ufix64+0x14>)
10004b30:	6f9b      	ldr	r3, [r3, #120]	@ 0x78
10004b32:	46fc      	mov	ip, pc
10004b34:	9301      	str	r3, [sp, #4]
10004b36:	bd08      	pop	{r3, pc}
10004b38:	5147df78 	.word	0x5147df78
10004b3c:	00001000 	.word	0x00001000
10004b40:	20001a48 	.word	0x20001a48

10004b44 <__aeabi_double_init>:
10004b44:	2313      	movs	r3, #19
10004b46:	b570      	push	{r4, r5, r6, lr}
10004b48:	781d      	ldrb	r5, [r3, #0]
10004b4a:	2d01      	cmp	r5, #1
10004b4c:	d019      	beq.n	10004b82 <__aeabi_double_init+0x3e>
10004b4e:	dd14      	ble.n	10004b7a <__aeabi_double_init+0x36>
10004b50:	481f      	ldr	r0, [pc, #124]	@ (10004bd0 <__aeabi_double_init+0x8c>)
10004b52:	f7ff fb5b 	bl	1000420c <rom_data_lookup>
10004b56:	0006      	movs	r6, r0
10004b58:	481e      	ldr	r0, [pc, #120]	@ (10004bd4 <__aeabi_double_init+0x90>)
10004b5a:	f7ff fb57 	bl	1000420c <rom_data_lookup>
10004b5e:	4c1e      	ldr	r4, [pc, #120]	@ (10004bd8 <__aeabi_double_init+0x94>)
10004b60:	2280      	movs	r2, #128	@ 0x80
10004b62:	0031      	movs	r1, r6
10004b64:	0020      	movs	r0, r4
10004b66:	f000 fca5 	bl	100054b4 <__wrap___aeabi_memcpy>
10004b6a:	2d02      	cmp	r5, #2
10004b6c:	d02d      	beq.n	10004bca <__aeabi_double_init+0x86>
10004b6e:	481b      	ldr	r0, [pc, #108]	@ (10004bdc <__aeabi_double_init+0x98>)
10004b70:	f7ff fb44 	bl	100041fc <rom_func_lookup>
10004b74:	4b1a      	ldr	r3, [pc, #104]	@ (10004be0 <__aeabi_double_init+0x9c>)
10004b76:	6018      	str	r0, [r3, #0]
10004b78:	bd70      	pop	{r4, r5, r6, pc}
10004b7a:	4b1a      	ldr	r3, [pc, #104]	@ (10004be4 <__aeabi_double_init+0xa0>)
10004b7c:	4c16      	ldr	r4, [pc, #88]	@ (10004bd8 <__aeabi_double_init+0x94>)
10004b7e:	64a3      	str	r3, [r4, #72]	@ 0x48
10004b80:	e7f5      	b.n	10004b6e <__aeabi_double_init+0x2a>
10004b82:	4b18      	ldr	r3, [pc, #96]	@ (10004be4 <__aeabi_double_init+0xa0>)
10004b84:	4c14      	ldr	r4, [pc, #80]	@ (10004bd8 <__aeabi_double_init+0x94>)
10004b86:	6023      	str	r3, [r4, #0]
10004b88:	6063      	str	r3, [r4, #4]
10004b8a:	60a3      	str	r3, [r4, #8]
10004b8c:	60e3      	str	r3, [r4, #12]
10004b8e:	6123      	str	r3, [r4, #16]
10004b90:	6163      	str	r3, [r4, #20]
10004b92:	61a3      	str	r3, [r4, #24]
10004b94:	61e3      	str	r3, [r4, #28]
10004b96:	6223      	str	r3, [r4, #32]
10004b98:	6263      	str	r3, [r4, #36]	@ 0x24
10004b9a:	62a3      	str	r3, [r4, #40]	@ 0x28
10004b9c:	62e3      	str	r3, [r4, #44]	@ 0x2c
10004b9e:	6323      	str	r3, [r4, #48]	@ 0x30
10004ba0:	6363      	str	r3, [r4, #52]	@ 0x34
10004ba2:	63a3      	str	r3, [r4, #56]	@ 0x38
10004ba4:	63e3      	str	r3, [r4, #60]	@ 0x3c
10004ba6:	6423      	str	r3, [r4, #64]	@ 0x40
10004ba8:	6463      	str	r3, [r4, #68]	@ 0x44
10004baa:	64a3      	str	r3, [r4, #72]	@ 0x48
10004bac:	64e3      	str	r3, [r4, #76]	@ 0x4c
10004bae:	6523      	str	r3, [r4, #80]	@ 0x50
10004bb0:	6563      	str	r3, [r4, #84]	@ 0x54
10004bb2:	65a3      	str	r3, [r4, #88]	@ 0x58
10004bb4:	65e3      	str	r3, [r4, #92]	@ 0x5c
10004bb6:	6623      	str	r3, [r4, #96]	@ 0x60
10004bb8:	6663      	str	r3, [r4, #100]	@ 0x64
10004bba:	66a3      	str	r3, [r4, #104]	@ 0x68
10004bbc:	66e3      	str	r3, [r4, #108]	@ 0x6c
10004bbe:	6723      	str	r3, [r4, #112]	@ 0x70
10004bc0:	6763      	str	r3, [r4, #116]	@ 0x74
10004bc2:	67a3      	str	r3, [r4, #120]	@ 0x78
10004bc4:	67e3      	str	r3, [r4, #124]	@ 0x7c
10004bc6:	64a3      	str	r3, [r4, #72]	@ 0x48
10004bc8:	e7d1      	b.n	10004b6e <__aeabi_double_init+0x2a>
10004bca:	4b06      	ldr	r3, [pc, #24]	@ (10004be4 <__aeabi_double_init+0xa0>)
10004bcc:	64a3      	str	r3, [r4, #72]	@ 0x48
10004bce:	e7ce      	b.n	10004b6e <__aeabi_double_init+0x2a>
10004bd0:	00004453 	.word	0x00004453
10004bd4:	00004653 	.word	0x00004653
10004bd8:	20001a48 	.word	0x20001a48
10004bdc:	0000334c 	.word	0x0000334c
10004be0:	200051bc 	.word	0x200051bc
10004be4:	10004c85 	.word	0x10004c85

10004be8 <__wrap_round>:
10004be8:	4a24      	ldr	r2, [pc, #144]	@ (10004c7c <__wrap_round+0x94>)
10004bea:	004b      	lsls	r3, r1, #1
10004bec:	4694      	mov	ip, r2
10004bee:	0d5b      	lsrs	r3, r3, #21
10004bf0:	4463      	add	r3, ip
10004bf2:	b5f0      	push	{r4, r5, r6, r7, lr}
10004bf4:	0004      	movs	r4, r0
10004bf6:	000d      	movs	r5, r1
10004bf8:	1c5a      	adds	r2, r3, #1
10004bfa:	db21      	blt.n	10004c40 <__wrap_round+0x58>
10004bfc:	1c5a      	adds	r2, r3, #1
10004bfe:	d035      	beq.n	10004c6c <__wrap_round+0x84>
10004c00:	2b34      	cmp	r3, #52	@ 0x34
10004c02:	da1c      	bge.n	10004c3e <__wrap_round+0x56>
10004c04:	2633      	movs	r6, #51	@ 0x33
10004c06:	1af6      	subs	r6, r6, r3
10004c08:	0037      	movs	r7, r6
10004c0a:	3f20      	subs	r7, #32
10004c0c:	d41c      	bmi.n	10004c48 <__wrap_round+0x60>
10004c0e:	2101      	movs	r1, #1
10004c10:	40b9      	lsls	r1, r7
10004c12:	000b      	movs	r3, r1
10004c14:	2101      	movs	r1, #1
10004c16:	40b1      	lsls	r1, r6
10004c18:	000a      	movs	r2, r1
10004c1a:	1912      	adds	r2, r2, r4
10004c1c:	416b      	adcs	r3, r5
10004c1e:	2f00      	cmp	r7, #0
10004c20:	db1e      	blt.n	10004c60 <__wrap_round+0x78>
10004c22:	2402      	movs	r4, #2
10004c24:	40bc      	lsls	r4, r7
10004c26:	0021      	movs	r1, r4
10004c28:	2402      	movs	r4, #2
10004c2a:	40b4      	lsls	r4, r6
10004c2c:	0020      	movs	r0, r4
10004c2e:	0016      	movs	r6, r2
10004c30:	2500      	movs	r5, #0
10004c32:	4244      	negs	r4, r0
10004c34:	418d      	sbcs	r5, r1
10004c36:	4026      	ands	r6, r4
10004c38:	402b      	ands	r3, r5
10004c3a:	0030      	movs	r0, r6
10004c3c:	0019      	movs	r1, r3
10004c3e:	bdf0      	pop	{r4, r5, r6, r7, pc}
10004c40:	0fcb      	lsrs	r3, r1, #31
10004c42:	2000      	movs	r0, #0
10004c44:	07d9      	lsls	r1, r3, #31
10004c46:	e7fa      	b.n	10004c3e <__wrap_round+0x56>
10004c48:	2120      	movs	r1, #32
10004c4a:	2001      	movs	r0, #1
10004c4c:	1b89      	subs	r1, r1, r6
10004c4e:	40c8      	lsrs	r0, r1
10004c50:	2101      	movs	r1, #1
10004c52:	40b1      	lsls	r1, r6
10004c54:	0003      	movs	r3, r0
10004c56:	000a      	movs	r2, r1
10004c58:	1912      	adds	r2, r2, r4
10004c5a:	416b      	adcs	r3, r5
10004c5c:	2f00      	cmp	r7, #0
10004c5e:	dae0      	bge.n	10004c22 <__wrap_round+0x3a>
10004c60:	2420      	movs	r4, #32
10004c62:	2502      	movs	r5, #2
10004c64:	1ba4      	subs	r4, r4, r6
10004c66:	40e5      	lsrs	r5, r4
10004c68:	0029      	movs	r1, r5
10004c6a:	e7dd      	b.n	10004c28 <__wrap_round+0x40>
10004c6c:	0fcb      	lsrs	r3, r1, #31
10004c6e:	4a04      	ldr	r2, [pc, #16]	@ (10004c80 <__wrap_round+0x98>)
10004c70:	07db      	lsls	r3, r3, #31
10004c72:	431a      	orrs	r2, r3
10004c74:	2000      	movs	r0, #0
10004c76:	0011      	movs	r1, r2
10004c78:	e7e1      	b.n	10004c3e <__wrap_round+0x56>
10004c7a:	46c0      	nop			@ (mov r8, r8)
10004c7c:	fffffc01 	.word	0xfffffc01
10004c80:	3ff00000 	.word	0x3ff00000

10004c84 <double_table_shim_on_use_helper>:
10004c84:	b507      	push	{r0, r1, r2, lr}
10004c86:	4660      	mov	r0, ip
10004c88:	8801      	ldrh	r1, [r0, #0]
10004c8a:	0a0a      	lsrs	r2, r1, #8
10004c8c:	3002      	adds	r0, #2
10004c8e:	2adf      	cmp	r2, #223	@ 0xdf
10004c90:	d1fa      	bne.n	10004c88 <double_table_shim_on_use_helper+0x4>
10004c92:	b2c9      	uxtb	r1, r1
10004c94:	0882      	lsrs	r2, r0, #2
10004c96:	d304      	bcc.n	10004ca2 <double_table_shim_on_use_helper+0x1e>
10004c98:	8802      	ldrh	r2, [r0, #0]
10004c9a:	8840      	ldrh	r0, [r0, #2]
10004c9c:	0400      	lsls	r0, r0, #16
10004c9e:	4310      	orrs	r0, r2
10004ca0:	e000      	b.n	10004ca4 <double_table_shim_on_use_helper+0x20>
10004ca2:	6800      	ldr	r0, [r0, #0]
10004ca4:	4a01      	ldr	r2, [pc, #4]	@ (10004cac <double_table_shim_on_use_helper+0x28>)
10004ca6:	5050      	str	r0, [r2, r1]
10004ca8:	9003      	str	r0, [sp, #12]
10004caa:	bd07      	pop	{r0, r1, r2, pc}
10004cac:	20001a48 	.word	0x20001a48

10004cb0 <drsub_shim>:
10004cb0:	b40f      	push	{r0, r1, r2, r3}
10004cb2:	bc03      	pop	{r0, r1}
10004cb4:	bc0c      	pop	{r2, r3}

10004cb6 <dsub_shim>:
10004cb6:	b5f0      	push	{r4, r5, r6, r7, lr}
10004cb8:	2401      	movs	r4, #1
10004cba:	07e4      	lsls	r4, r4, #31
10004cbc:	4063      	eors	r3, r4
10004cbe:	e000      	b.n	10004cc2 <da_entry>

10004cc0 <dadd_shim>:
10004cc0:	b5f0      	push	{r4, r5, r6, r7, lr}

10004cc2 <da_entry>:
10004cc2:	0d0c      	lsrs	r4, r1, #20
10004cc4:	0fcf      	lsrs	r7, r1, #31
10004cc6:	1e66      	subs	r6, r4, #1
10004cc8:	0536      	lsls	r6, r6, #20
10004cca:	1b89      	subs	r1, r1, r6
10004ccc:	0564      	lsls	r4, r4, #21
10004cce:	d303      	bcc.n	10004cd8 <l8_1>
10004cd0:	43c9      	mvns	r1, r1
10004cd2:	4240      	negs	r0, r0
10004cd4:	d300      	bcc.n	10004cd8 <l8_1>
10004cd6:	3101      	adds	r1, #1

10004cd8 <l8_1>:
10004cd8:	0d64      	lsrs	r4, r4, #21
10004cda:	d003      	beq.n	10004ce4 <l8_2>
10004cdc:	1c66      	adds	r6, r4, #1
10004cde:	0af6      	lsrs	r6, r6, #11
10004ce0:	d007      	beq.n	10004cf2 <l8_3>
10004ce2:	1be4      	subs	r4, r4, r7

10004ce4 <l8_2>:
10004ce4:	2000      	movs	r0, #0
10004ce6:	007f      	lsls	r7, r7, #1
10004ce8:	1c79      	adds	r1, r7, #1
10004cea:	0789      	lsls	r1, r1, #30
10004cec:	1289      	asrs	r1, r1, #10
10004cee:	3c80      	subs	r4, #128	@ 0x80
10004cf0:	0324      	lsls	r4, r4, #12

10004cf2 <l8_3>:
10004cf2:	0d1d      	lsrs	r5, r3, #20
10004cf4:	0fdf      	lsrs	r7, r3, #31
10004cf6:	1e6e      	subs	r6, r5, #1
10004cf8:	0536      	lsls	r6, r6, #20
10004cfa:	1b9b      	subs	r3, r3, r6
10004cfc:	056d      	lsls	r5, r5, #21
10004cfe:	d303      	bcc.n	10004d08 <l9_1>
10004d00:	43db      	mvns	r3, r3
10004d02:	4252      	negs	r2, r2
10004d04:	d300      	bcc.n	10004d08 <l9_1>
10004d06:	3301      	adds	r3, #1

10004d08 <l9_1>:
10004d08:	0d6d      	lsrs	r5, r5, #21
10004d0a:	d003      	beq.n	10004d14 <l9_2>
10004d0c:	1c6e      	adds	r6, r5, #1
10004d0e:	0af6      	lsrs	r6, r6, #11
10004d10:	d007      	beq.n	10004d22 <l9_3>
10004d12:	1bed      	subs	r5, r5, r7

10004d14 <l9_2>:
10004d14:	2200      	movs	r2, #0
10004d16:	007f      	lsls	r7, r7, #1
10004d18:	1c7b      	adds	r3, r7, #1
10004d1a:	079b      	lsls	r3, r3, #30
10004d1c:	129b      	asrs	r3, r3, #10
10004d1e:	3d80      	subs	r5, #128	@ 0x80
10004d20:	032d      	lsls	r5, r5, #12

10004d22 <l9_3>:
10004d22:	1b2f      	subs	r7, r5, r4
10004d24:	1b66      	subs	r6, r4, r5
10004d26:	d458      	bmi.n	10004dda <da_ygtx>
10004d28:	46a4      	mov	ip, r4
10004d2a:	2e20      	cmp	r6, #32
10004d2c:	da46      	bge.n	10004dbc <da_xrgty>
10004d2e:	3720      	adds	r7, #32
10004d30:	0014      	movs	r4, r2
10004d32:	40bc      	lsls	r4, r7

10004d34 <da_xgty0>:
10004d34:	001d      	movs	r5, r3
10004d36:	40bd      	lsls	r5, r7
10004d38:	40f2      	lsrs	r2, r6
10004d3a:	4133      	asrs	r3, r6
10004d3c:	432a      	orrs	r2, r5

10004d3e <da_add>:
10004d3e:	1880      	adds	r0, r0, r2
10004d40:	4159      	adcs	r1, r3

10004d42 <da_pack>:
10004d42:	0fcb      	lsrs	r3, r1, #31
10004d44:	d005      	beq.n	10004d52 <da_pack+0x10>
10004d46:	43c9      	mvns	r1, r1
10004d48:	43c0      	mvns	r0, r0
10004d4a:	2200      	movs	r2, #0
10004d4c:	4264      	negs	r4, r4
10004d4e:	4150      	adcs	r0, r2
10004d50:	4151      	adcs	r1, r2
10004d52:	4662      	mov	r2, ip
10004d54:	0d4d      	lsrs	r5, r1, #21
10004d56:	d128      	bne.n	10004daa <da_0>
10004d58:	0d0d      	lsrs	r5, r1, #20
10004d5a:	d107      	bne.n	10004d6c <da_1>
10004d5c:	2800      	cmp	r0, #0
10004d5e:	d01f      	beq.n	10004da0 <da_5>

10004d60 <da_2>:
10004d60:	1924      	adds	r4, r4, r4
10004d62:	4140      	adcs	r0, r0
10004d64:	4149      	adcs	r1, r1
10004d66:	3a01      	subs	r2, #1
10004d68:	0d0d      	lsrs	r5, r1, #20
10004d6a:	d0f9      	beq.n	10004d60 <da_2>

10004d6c <da_1>:
10004d6c:	0064      	lsls	r4, r4, #1
10004d6e:	d306      	bcc.n	10004d7e <da_3>

10004d70 <da_4>:
10004d70:	3001      	adds	r0, #1
10004d72:	d300      	bcc.n	10004d76 <da_4+0x6>
10004d74:	3101      	adds	r1, #1
10004d76:	2c00      	cmp	r4, #0
10004d78:	d101      	bne.n	10004d7e <da_3>
10004d7a:	0840      	lsrs	r0, r0, #1
10004d7c:	0040      	lsls	r0, r0, #1

10004d7e <da_3>:
10004d7e:	3a01      	subs	r2, #1
10004d80:	d40b      	bmi.n	10004d9a <da_6>
10004d82:	1c94      	adds	r4, r2, #2
10004d84:	0ae4      	lsrs	r4, r4, #11
10004d86:	d104      	bne.n	10004d92 <da_7>
10004d88:	0512      	lsls	r2, r2, #20
10004d8a:	4411      	add	r1, r2
10004d8c:	07db      	lsls	r3, r3, #31
10004d8e:	4419      	add	r1, r3
10004d90:	bdf0      	pop	{r4, r5, r6, r7, pc}

10004d92 <da_7>:
10004d92:	07d9      	lsls	r1, r3, #31
10004d94:	4b20      	ldr	r3, [pc, #128]	@ (10004e18 <da_xmgty+0x4>)
10004d96:	4319      	orrs	r1, r3
10004d98:	e000      	b.n	10004d9c <da_6+0x2>

10004d9a <da_6>:
10004d9a:	07d9      	lsls	r1, r3, #31
10004d9c:	2000      	movs	r0, #0
10004d9e:	bdf0      	pop	{r4, r5, r6, r7, pc}

10004da0 <da_5>:
10004da0:	2900      	cmp	r1, #0
10004da2:	d1dd      	bne.n	10004d60 <da_2>
10004da4:	2c00      	cmp	r4, #0
10004da6:	d1db      	bne.n	10004d60 <da_2>
10004da8:	bdf0      	pop	{r4, r5, r6, r7, pc}

10004daa <da_0>:
10004daa:	3201      	adds	r2, #1
10004dac:	07c6      	lsls	r6, r0, #31
10004dae:	0840      	lsrs	r0, r0, #1
10004db0:	07cd      	lsls	r5, r1, #31
10004db2:	4328      	orrs	r0, r5
10004db4:	0849      	lsrs	r1, r1, #1
10004db6:	2e00      	cmp	r6, #0
10004db8:	d0e1      	beq.n	10004d7e <da_3>
10004dba:	e7d9      	b.n	10004d70 <da_4>

10004dbc <da_xrgty>:
10004dbc:	2e3c      	cmp	r6, #60	@ 0x3c
10004dbe:	da29      	bge.n	10004e14 <da_xmgty>
10004dc0:	3e20      	subs	r6, #32
10004dc2:	3740      	adds	r7, #64	@ 0x40
10004dc4:	0014      	movs	r4, r2
10004dc6:	40bc      	lsls	r4, r7
10004dc8:	d000      	beq.n	10004dcc <da_xrgty+0x10>
10004dca:	2401      	movs	r4, #1
10004dcc:	40f2      	lsrs	r2, r6
10004dce:	4314      	orrs	r4, r2
10004dd0:	001a      	movs	r2, r3
10004dd2:	40bb      	lsls	r3, r7
10004dd4:	431c      	orrs	r4, r3
10004dd6:	17d3      	asrs	r3, r2, #31
10004dd8:	e7ac      	b.n	10004d34 <da_xgty0>

10004dda <da_ygtx>:
10004dda:	46ac      	mov	ip, r5
10004ddc:	2f20      	cmp	r7, #32
10004dde:	da08      	bge.n	10004df2 <da_yrgtx>
10004de0:	3620      	adds	r6, #32
10004de2:	0004      	movs	r4, r0
10004de4:	40b4      	lsls	r4, r6

10004de6 <da_ygtx0>:
10004de6:	000d      	movs	r5, r1
10004de8:	40b5      	lsls	r5, r6
10004dea:	40f8      	lsrs	r0, r7
10004dec:	4139      	asrs	r1, r7
10004dee:	4328      	orrs	r0, r5
10004df0:	e7a5      	b.n	10004d3e <da_add>

10004df2 <da_yrgtx>:
10004df2:	2f3c      	cmp	r7, #60	@ 0x3c
10004df4:	da0c      	bge.n	10004e10 <da_ymgtx>
10004df6:	3f20      	subs	r7, #32
10004df8:	3640      	adds	r6, #64	@ 0x40
10004dfa:	0004      	movs	r4, r0
10004dfc:	40b4      	lsls	r4, r6
10004dfe:	d000      	beq.n	10004e02 <da_yrgtx+0x10>
10004e00:	2401      	movs	r4, #1
10004e02:	40f8      	lsrs	r0, r7
10004e04:	4304      	orrs	r4, r0
10004e06:	0008      	movs	r0, r1
10004e08:	40b1      	lsls	r1, r6
10004e0a:	430c      	orrs	r4, r1
10004e0c:	17c1      	asrs	r1, r0, #31
10004e0e:	e7ea      	b.n	10004de6 <da_ygtx0>

10004e10 <da_ymgtx>:
10004e10:	0010      	movs	r0, r2
10004e12:	0019      	movs	r1, r3

10004e14 <da_xmgty>:
10004e14:	2400      	movs	r4, #0
10004e16:	e794      	b.n	10004d42 <da_pack>
10004e18:	7ff00000 	.word	0x7ff00000

10004e1c <dmul_shim>:
10004e1c:	b5f0      	push	{r4, r5, r6, r7, lr}
10004e1e:	0d0c      	lsrs	r4, r1, #20
10004e20:	1e66      	subs	r6, r4, #1
10004e22:	0536      	lsls	r6, r6, #20
10004e24:	1b89      	subs	r1, r1, r6
10004e26:	0ae6      	lsrs	r6, r4, #11
10004e28:	0564      	lsls	r4, r4, #21
10004e2a:	0d64      	lsrs	r4, r4, #21
10004e2c:	d002      	beq.n	10004e34 <l12_1>
10004e2e:	1c65      	adds	r5, r4, #1
10004e30:	0aed      	lsrs	r5, r5, #11
10004e32:	d004      	beq.n	10004e3e <l12_2>

10004e34 <l12_1>:
10004e34:	2000      	movs	r0, #0
10004e36:	2101      	movs	r1, #1
10004e38:	0509      	lsls	r1, r1, #20
10004e3a:	3c80      	subs	r4, #128	@ 0x80
10004e3c:	0324      	lsls	r4, r4, #12

10004e3e <l12_2>:
10004e3e:	46a4      	mov	ip, r4
10004e40:	0d1c      	lsrs	r4, r3, #20
10004e42:	1e67      	subs	r7, r4, #1
10004e44:	053f      	lsls	r7, r7, #20
10004e46:	1bdb      	subs	r3, r3, r7
10004e48:	0ae7      	lsrs	r7, r4, #11
10004e4a:	0564      	lsls	r4, r4, #21
10004e4c:	0d64      	lsrs	r4, r4, #21
10004e4e:	d002      	beq.n	10004e56 <l13_1>
10004e50:	1c65      	adds	r5, r4, #1
10004e52:	0aed      	lsrs	r5, r5, #11
10004e54:	d004      	beq.n	10004e60 <l13_2>

10004e56 <l13_1>:
10004e56:	2200      	movs	r2, #0
10004e58:	2301      	movs	r3, #1
10004e5a:	051b      	lsls	r3, r3, #20
10004e5c:	3c80      	subs	r4, #128	@ 0x80
10004e5e:	0324      	lsls	r4, r4, #12

10004e60 <l13_2>:
10004e60:	4077      	eors	r7, r6
10004e62:	4464      	add	r4, ip
10004e64:	b497      	push	{r0, r1, r2, r4, r7}
10004e66:	b284      	uxth	r4, r0
10004e68:	b296      	uxth	r6, r2
10004e6a:	4374      	muls	r4, r6
10004e6c:	0c07      	lsrs	r7, r0, #16
10004e6e:	437e      	muls	r6, r7
10004e70:	0c15      	lsrs	r5, r2, #16
10004e72:	436f      	muls	r7, r5
10004e74:	b280      	uxth	r0, r0
10004e76:	4368      	muls	r0, r5
10004e78:	1836      	adds	r6, r6, r0
10004e7a:	d302      	bcc.n	10004e82 <l14_1>
10004e7c:	2001      	movs	r0, #1
10004e7e:	0400      	lsls	r0, r0, #16
10004e80:	183f      	adds	r7, r7, r0

10004e82 <l14_1>:
10004e82:	0430      	lsls	r0, r6, #16
10004e84:	0c35      	lsrs	r5, r6, #16
10004e86:	1900      	adds	r0, r0, r4
10004e88:	417d      	adcs	r5, r7
10004e8a:	4684      	mov	ip, r0
10004e8c:	b288      	uxth	r0, r1
10004e8e:	b29a      	uxth	r2, r3
10004e90:	4350      	muls	r0, r2
10004e92:	0c0c      	lsrs	r4, r1, #16
10004e94:	4362      	muls	r2, r4
10004e96:	0c1f      	lsrs	r7, r3, #16
10004e98:	437c      	muls	r4, r7
10004e9a:	b28e      	uxth	r6, r1
10004e9c:	437e      	muls	r6, r7
10004e9e:	1992      	adds	r2, r2, r6
10004ea0:	d302      	bcc.n	10004ea8 <l15_1>
10004ea2:	2601      	movs	r6, #1
10004ea4:	0436      	lsls	r6, r6, #16
10004ea6:	19a4      	adds	r4, r4, r6

10004ea8 <l15_1>:
10004ea8:	0416      	lsls	r6, r2, #16
10004eaa:	0c17      	lsrs	r7, r2, #16
10004eac:	1836      	adds	r6, r6, r0
10004eae:	4167      	adcs	r7, r4
10004eb0:	bc01      	pop	{r0}
10004eb2:	b281      	uxth	r1, r0
10004eb4:	b29a      	uxth	r2, r3
10004eb6:	4351      	muls	r1, r2
10004eb8:	0c04      	lsrs	r4, r0, #16
10004eba:	4362      	muls	r2, r4
10004ebc:	0c1b      	lsrs	r3, r3, #16
10004ebe:	435c      	muls	r4, r3
10004ec0:	b280      	uxth	r0, r0
10004ec2:	4358      	muls	r0, r3
10004ec4:	1812      	adds	r2, r2, r0
10004ec6:	d302      	bcc.n	10004ece <l16_1>
10004ec8:	2001      	movs	r0, #1
10004eca:	0400      	lsls	r0, r0, #16
10004ecc:	1824      	adds	r4, r4, r0

10004ece <l16_1>:
10004ece:	0410      	lsls	r0, r2, #16
10004ed0:	0c13      	lsrs	r3, r2, #16
10004ed2:	1840      	adds	r0, r0, r1
10004ed4:	4163      	adcs	r3, r4
10004ed6:	182d      	adds	r5, r5, r0
10004ed8:	415e      	adcs	r6, r3
10004eda:	2000      	movs	r0, #0
10004edc:	4147      	adcs	r7, r0
10004ede:	bc06      	pop	{r1, r2}
10004ee0:	b288      	uxth	r0, r1
10004ee2:	b293      	uxth	r3, r2
10004ee4:	4358      	muls	r0, r3
10004ee6:	0c0c      	lsrs	r4, r1, #16
10004ee8:	4363      	muls	r3, r4
10004eea:	0c12      	lsrs	r2, r2, #16
10004eec:	4354      	muls	r4, r2
10004eee:	b289      	uxth	r1, r1
10004ef0:	4351      	muls	r1, r2
10004ef2:	185b      	adds	r3, r3, r1
10004ef4:	d302      	bcc.n	10004efc <l17_1>
10004ef6:	2101      	movs	r1, #1
10004ef8:	0409      	lsls	r1, r1, #16
10004efa:	1864      	adds	r4, r4, r1

10004efc <l17_1>:
10004efc:	0419      	lsls	r1, r3, #16
10004efe:	0c1a      	lsrs	r2, r3, #16
10004f00:	1809      	adds	r1, r1, r0
10004f02:	4162      	adcs	r2, r4
10004f04:	186d      	adds	r5, r5, r1
10004f06:	4156      	adcs	r6, r2
10004f08:	2000      	movs	r0, #0
10004f0a:	4147      	adcs	r7, r0
10004f0c:	bc18      	pop	{r3, r4}
10004f0e:	02f9      	lsls	r1, r7, #11
10004f10:	0d72      	lsrs	r2, r6, #21
10004f12:	4311      	orrs	r1, r2
10004f14:	02f0      	lsls	r0, r6, #11
10004f16:	0d6a      	lsrs	r2, r5, #21
10004f18:	4310      	orrs	r0, r2
10004f1a:	02ed      	lsls	r5, r5, #11
10004f1c:	0d0a      	lsrs	r2, r1, #20
10004f1e:	d103      	bne.n	10004f28 <l17_1+0x2c>
10004f20:	196d      	adds	r5, r5, r5
10004f22:	4140      	adcs	r0, r0
10004f24:	4149      	adcs	r1, r1
10004f26:	3b01      	subs	r3, #1
10004f28:	4e12      	ldr	r6, [pc, #72]	@ (10004f74 <dm_1+0xa>)
10004f2a:	1b9b      	subs	r3, r3, r6
10004f2c:	0076      	lsls	r6, r6, #1
10004f2e:	42b3      	cmp	r3, r6
10004f30:	d20e      	bcs.n	10004f50 <dm_0>
10004f32:	006d      	lsls	r5, r5, #1
10004f34:	d307      	bcc.n	10004f46 <l17_1+0x4a>
10004f36:	3001      	adds	r0, #1
10004f38:	2600      	movs	r6, #0
10004f3a:	4171      	adcs	r1, r6
10004f3c:	4666      	mov	r6, ip
10004f3e:	4335      	orrs	r5, r6
10004f40:	d101      	bne.n	10004f46 <l17_1+0x4a>
10004f42:	0840      	lsrs	r0, r0, #1
10004f44:	0040      	lsls	r0, r0, #1
10004f46:	051b      	lsls	r3, r3, #20
10004f48:	18c9      	adds	r1, r1, r3

10004f4a <dm_2>:
10004f4a:	07e4      	lsls	r4, r4, #31
10004f4c:	4421      	add	r1, r4
10004f4e:	bdf0      	pop	{r4, r5, r6, r7, pc}

10004f50 <dm_0>:
10004f50:	da0b      	bge.n	10004f6a <dm_1>
10004f52:	3301      	adds	r3, #1
10004f54:	d106      	bne.n	10004f64 <dm_0+0x14>
10004f56:	3001      	adds	r0, #1
10004f58:	d104      	bne.n	10004f64 <dm_0+0x14>
10004f5a:	3101      	adds	r1, #1
10004f5c:	0d4f      	lsrs	r7, r1, #21
10004f5e:	d001      	beq.n	10004f64 <dm_0+0x14>
10004f60:	0849      	lsrs	r1, r1, #1
10004f62:	e7f2      	b.n	10004f4a <dm_2>
10004f64:	07e1      	lsls	r1, r4, #31
10004f66:	2000      	movs	r0, #0
10004f68:	bdf0      	pop	{r4, r5, r6, r7, pc}

10004f6a <dm_1>:
10004f6a:	3601      	adds	r6, #1
10004f6c:	0531      	lsls	r1, r6, #20
10004f6e:	2000      	movs	r0, #0
10004f70:	e7eb      	b.n	10004f4a <dm_2>
10004f72:	0000      	.short	0x0000
10004f74:	000003ff 	.word	0x000003ff

10004f78 <ddiv_shim>:
10004f78:	b5f0      	push	{r4, r5, r6, r7, lr}

10004f7a <ddiv0>:
10004f7a:	0d1c      	lsrs	r4, r3, #20
10004f7c:	1e67      	subs	r7, r4, #1
10004f7e:	053f      	lsls	r7, r7, #20
10004f80:	1bdb      	subs	r3, r3, r7
10004f82:	0ae7      	lsrs	r7, r4, #11
10004f84:	0564      	lsls	r4, r4, #21
10004f86:	0d64      	lsrs	r4, r4, #21
10004f88:	d002      	beq.n	10004f90 <l20_1>
10004f8a:	1c66      	adds	r6, r4, #1
10004f8c:	0af6      	lsrs	r6, r6, #11
10004f8e:	d004      	beq.n	10004f9a <l20_2>

10004f90 <l20_1>:
10004f90:	2200      	movs	r2, #0
10004f92:	2301      	movs	r3, #1
10004f94:	051b      	lsls	r3, r3, #20
10004f96:	3c80      	subs	r4, #128	@ 0x80
10004f98:	0324      	lsls	r4, r4, #12

10004f9a <l20_2>:
10004f9a:	25d0      	movs	r5, #208	@ 0xd0
10004f9c:	062d      	lsls	r5, r5, #24
10004f9e:	2600      	movs	r6, #0
10004fa0:	43f6      	mvns	r6, r6
10004fa2:	662e      	str	r6, [r5, #96]	@ 0x60
10004fa4:	091e      	lsrs	r6, r3, #4
10004fa6:	666e      	str	r6, [r5, #100]	@ 0x64
10004fa8:	0fce      	lsrs	r6, r1, #31
10004faa:	19f6      	adds	r6, r6, r7
10004fac:	46b4      	mov	ip, r6
10004fae:	0049      	lsls	r1, r1, #1
10004fb0:	0d4f      	lsrs	r7, r1, #21
10004fb2:	d002      	beq.n	10004fba <l20_2+0x20>
10004fb4:	1c7e      	adds	r6, r7, #1
10004fb6:	0af6      	lsrs	r6, r6, #11
10004fb8:	d003      	beq.n	10004fc2 <l20_2+0x28>
10004fba:	2000      	movs	r0, #0
10004fbc:	2100      	movs	r1, #0
10004fbe:	3f40      	subs	r7, #64	@ 0x40
10004fc0:	033f      	lsls	r7, r7, #12
10004fc2:	1b3e      	subs	r6, r7, r4
10004fc4:	00b6      	lsls	r6, r6, #2
10004fc6:	44b4      	add	ip, r6
10004fc8:	3f01      	subs	r7, #1
10004fca:	057f      	lsls	r7, r7, #21
10004fcc:	1bc9      	subs	r1, r1, r7
10004fce:	0849      	lsrs	r1, r1, #1
10004fd0:	6f2e      	ldr	r6, [r5, #112]	@ 0x70
10004fd2:	3601      	adds	r6, #1
10004fd4:	0876      	lsrs	r6, r6, #1
10004fd6:	029c      	lsls	r4, r3, #10
10004fd8:	0d95      	lsrs	r5, r2, #22
10004fda:	4325      	orrs	r5, r4
10004fdc:	4375      	muls	r5, r6
10004fde:	13ed      	asrs	r5, r5, #15
10004fe0:	4375      	muls	r5, r6
10004fe2:	13ad      	asrs	r5, r5, #14
10004fe4:	3501      	adds	r5, #1
10004fe6:	106d      	asrs	r5, r5, #1
10004fe8:	03f6      	lsls	r6, r6, #15
10004fea:	1b76      	subs	r6, r6, r5
10004fec:	b40c      	push	{r2, r3}
10004fee:	02cc      	lsls	r4, r1, #11
10004ff0:	0d45      	lsrs	r5, r0, #21
10004ff2:	432c      	orrs	r4, r5
10004ff4:	b2a2      	uxth	r2, r4
10004ff6:	b2b3      	uxth	r3, r6
10004ff8:	435a      	muls	r2, r3
10004ffa:	0c27      	lsrs	r7, r4, #16
10004ffc:	437b      	muls	r3, r7
10004ffe:	0c35      	lsrs	r5, r6, #16
10005000:	436f      	muls	r7, r5
10005002:	b2a4      	uxth	r4, r4
10005004:	436c      	muls	r4, r5
10005006:	191b      	adds	r3, r3, r4
10005008:	d302      	bcc.n	10005010 <l21_1>
1000500a:	2401      	movs	r4, #1
1000500c:	0424      	lsls	r4, r4, #16
1000500e:	193f      	adds	r7, r7, r4

10005010 <l21_1>:
10005010:	041c      	lsls	r4, r3, #16
10005012:	0c1d      	lsrs	r5, r3, #16
10005014:	18a4      	adds	r4, r4, r2
10005016:	417d      	adcs	r5, r7
10005018:	1924      	adds	r4, r4, r4
1000501a:	416d      	adcs	r5, r5
1000501c:	9a00      	ldr	r2, [sp, #0]
1000501e:	b291      	uxth	r1, r2
10005020:	b2ac      	uxth	r4, r5
10005022:	4361      	muls	r1, r4
10005024:	0c17      	lsrs	r7, r2, #16
10005026:	437c      	muls	r4, r7
10005028:	0c2b      	lsrs	r3, r5, #16
1000502a:	435f      	muls	r7, r3
1000502c:	b292      	uxth	r2, r2
1000502e:	435a      	muls	r2, r3
10005030:	18a4      	adds	r4, r4, r2
10005032:	d302      	bcc.n	1000503a <l22_1>
10005034:	2201      	movs	r2, #1
10005036:	0412      	lsls	r2, r2, #16
10005038:	18bf      	adds	r7, r7, r2

1000503a <l22_1>:
1000503a:	0422      	lsls	r2, r4, #16
1000503c:	0c23      	lsrs	r3, r4, #16
1000503e:	1852      	adds	r2, r2, r1
10005040:	417b      	adcs	r3, r7
10005042:	9c01      	ldr	r4, [sp, #4]
10005044:	436c      	muls	r4, r5
10005046:	191b      	adds	r3, r3, r4
10005048:	0e52      	lsrs	r2, r2, #25
1000504a:	01d9      	lsls	r1, r3, #7
1000504c:	430a      	orrs	r2, r1
1000504e:	0144      	lsls	r4, r0, #5
10005050:	1aa0      	subs	r0, r4, r2
10005052:	b281      	uxth	r1, r0
10005054:	b2b2      	uxth	r2, r6
10005056:	4351      	muls	r1, r2
10005058:	1403      	asrs	r3, r0, #16
1000505a:	435a      	muls	r2, r3
1000505c:	0c36      	lsrs	r6, r6, #16
1000505e:	4373      	muls	r3, r6
10005060:	b287      	uxth	r7, r0
10005062:	4377      	muls	r7, r6
10005064:	17d6      	asrs	r6, r2, #31
10005066:	19d2      	adds	r2, r2, r7
10005068:	2700      	movs	r7, #0
1000506a:	417e      	adcs	r6, r7
1000506c:	0436      	lsls	r6, r6, #16
1000506e:	199b      	adds	r3, r3, r6
10005070:	0417      	lsls	r7, r2, #16
10005072:	0c16      	lsrs	r6, r2, #16
10005074:	187f      	adds	r7, r7, r1
10005076:	415e      	adcs	r6, r3
10005078:	1673      	asrs	r3, r6, #25
1000507a:	18ed      	adds	r5, r5, r3
1000507c:	01f3      	lsls	r3, r6, #7
1000507e:	2600      	movs	r6, #0
10005080:	3380      	adds	r3, #128	@ 0x80
10005082:	4175      	adcs	r5, r6
10005084:	0fa9      	lsrs	r1, r5, #30
10005086:	d106      	bne.n	10005096 <dd_0>
10005088:	0064      	lsls	r4, r4, #1
1000508a:	0a69      	lsrs	r1, r5, #9
1000508c:	05e8      	lsls	r0, r5, #23
1000508e:	0a5b      	lsrs	r3, r3, #9
10005090:	4318      	orrs	r0, r3
10005092:	d209      	bcs.n	100050a8 <dd_1>
10005094:	e02f      	b.n	100050f6 <dd_2>

10005096 <dd_0>:
10005096:	2204      	movs	r2, #4
10005098:	4494      	add	ip, r2
1000509a:	3380      	adds	r3, #128	@ 0x80
1000509c:	4175      	adcs	r5, r6
1000509e:	0aa9      	lsrs	r1, r5, #10
100050a0:	05a8      	lsls	r0, r5, #22
100050a2:	0a9b      	lsrs	r3, r3, #10
100050a4:	4318      	orrs	r0, r3
100050a6:	d326      	bcc.n	100050f6 <dd_2>

100050a8 <dd_1>:
100050a8:	4140      	adcs	r0, r0
100050aa:	4149      	adcs	r1, r1
100050ac:	0424      	lsls	r4, r4, #16
100050ae:	9a00      	ldr	r2, [sp, #0]
100050b0:	9b01      	ldr	r3, [sp, #4]
100050b2:	000d      	movs	r5, r1
100050b4:	4355      	muls	r5, r2
100050b6:	1b64      	subs	r4, r4, r5
100050b8:	4343      	muls	r3, r0
100050ba:	1ae4      	subs	r4, r4, r3
100050bc:	b295      	uxth	r5, r2
100050be:	b286      	uxth	r6, r0
100050c0:	4375      	muls	r5, r6
100050c2:	0c17      	lsrs	r7, r2, #16
100050c4:	437e      	muls	r6, r7
100050c6:	0c03      	lsrs	r3, r0, #16
100050c8:	435f      	muls	r7, r3
100050ca:	b292      	uxth	r2, r2
100050cc:	435a      	muls	r2, r3
100050ce:	18b6      	adds	r6, r6, r2
100050d0:	d302      	bcc.n	100050d8 <l24_1>
100050d2:	2201      	movs	r2, #1
100050d4:	0412      	lsls	r2, r2, #16
100050d6:	18bf      	adds	r7, r7, r2

100050d8 <l24_1>:
100050d8:	0432      	lsls	r2, r6, #16
100050da:	0c33      	lsrs	r3, r6, #16
100050dc:	1952      	adds	r2, r2, r5
100050de:	417b      	adcs	r3, r7
100050e0:	4252      	negs	r2, r2
100050e2:	419c      	sbcs	r4, r3
100050e4:	2c00      	cmp	r4, #0
100050e6:	d402      	bmi.n	100050ee <l24_1+0x16>
100050e8:	2200      	movs	r2, #0
100050ea:	3001      	adds	r0, #1
100050ec:	4151      	adcs	r1, r2
100050ee:	0840      	lsrs	r0, r0, #1
100050f0:	07ca      	lsls	r2, r1, #31
100050f2:	4310      	orrs	r0, r2
100050f4:	0849      	lsrs	r1, r1, #1

100050f6 <dd_2>:
100050f6:	b002      	add	sp, #8
100050f8:	4662      	mov	r2, ip
100050fa:	07d7      	lsls	r7, r2, #31
100050fc:	1092      	asrs	r2, r2, #2
100050fe:	4b08      	ldr	r3, [pc, #32]	@ (10005120 <dd_4+0x6>)
10005100:	18d2      	adds	r2, r2, r3
10005102:	4b08      	ldr	r3, [pc, #32]	@ (10005124 <dd_4+0xa>)
10005104:	429a      	cmp	r2, r3
10005106:	d203      	bcs.n	10005110 <dd_3>
10005108:	0512      	lsls	r2, r2, #20
1000510a:	1889      	adds	r1, r1, r2

1000510c <dd_5>:
1000510c:	19c9      	adds	r1, r1, r7
1000510e:	bdf0      	pop	{r4, r5, r6, r7, pc}

10005110 <dd_3>:
10005110:	2000      	movs	r0, #0
10005112:	2a00      	cmp	r2, #0
10005114:	dc01      	bgt.n	1000511a <dd_4>
10005116:	0039      	movs	r1, r7
10005118:	bdf0      	pop	{r4, r5, r6, r7, pc}

1000511a <dd_4>:
1000511a:	3301      	adds	r3, #1
1000511c:	0519      	lsls	r1, r3, #20
1000511e:	e7f5      	b.n	1000510c <dd_5>
10005120:	000003fd 	.word	0x000003fd
10005124:	000007fe 	.word	0x000007fe

10005128 <double2int64_shim>:
10005128:	2200      	movs	r2, #0

1000512a <double2fix64_shim>:
1000512a:	b500      	push	{lr}
1000512c:	f000 f80d 	bl	1000514a <d2fix>
10005130:	17ca      	asrs	r2, r1, #31
10005132:	429a      	cmp	r2, r3
10005134:	d100      	bne.n	10005138 <double2fix64_shim+0xe>
10005136:	bd00      	pop	{pc}
10005138:	43d8      	mvns	r0, r3
1000513a:	2101      	movs	r1, #1
1000513c:	07c9      	lsls	r1, r1, #31
1000513e:	4041      	eors	r1, r0
10005140:	bd00      	pop	{pc}
	...

10005144 <double2uint64_shim>:
10005144:	2200      	movs	r2, #0

10005146 <double2ufix64_shim>:
10005146:	150b      	asrs	r3, r1, #20
10005148:	d40a      	bmi.n	10005160 <ret_dzero>

1000514a <d2fix>:
1000514a:	b510      	push	{r4, lr}
1000514c:	4694      	mov	ip, r2
1000514e:	f000 f831 	bl	100051b4 <dunpacks>
10005152:	1414      	asrs	r4, r2, #16
10005154:	3401      	adds	r4, #1
10005156:	da00      	bge.n	1000515a <d2fix+0x10>
10005158:	2100      	movs	r1, #0
1000515a:	17cb      	asrs	r3, r1, #31
1000515c:	4c14      	ldr	r4, [pc, #80]	@ (100051b0 <d2fix_a+0x4a>)
1000515e:	4720      	bx	r4

10005160 <ret_dzero>:
10005160:	2000      	movs	r0, #0
10005162:	2100      	movs	r1, #0
10005164:	4770      	bx	lr

10005166 <d2fix_a>:
10005166:	4462      	add	r2, ip
10005168:	3a34      	subs	r2, #52	@ 0x34
1000516a:	d40c      	bmi.n	10005186 <d2fix_a+0x20>
1000516c:	2a0c      	cmp	r2, #12
1000516e:	da07      	bge.n	10005180 <d2fix_a+0x1a>
10005170:	0004      	movs	r4, r0
10005172:	4091      	lsls	r1, r2
10005174:	4090      	lsls	r0, r2
10005176:	4252      	negs	r2, r2
10005178:	3220      	adds	r2, #32
1000517a:	40d4      	lsrs	r4, r2
1000517c:	4321      	orrs	r1, r4
1000517e:	bd10      	pop	{r4, pc}
10005180:	43d8      	mvns	r0, r3
10005182:	43d9      	mvns	r1, r3
10005184:	bd10      	pop	{r4, pc}
10005186:	3220      	adds	r2, #32
10005188:	d407      	bmi.n	1000519a <d2fix_a+0x34>
1000518a:	460c      	mov	r4, r1
1000518c:	4094      	lsls	r4, r2
1000518e:	4252      	negs	r2, r2
10005190:	3220      	adds	r2, #32
10005192:	4111      	asrs	r1, r2
10005194:	40d0      	lsrs	r0, r2
10005196:	4320      	orrs	r0, r4
10005198:	bd10      	pop	{r4, pc}
1000519a:	0008      	movs	r0, r1
1000519c:	17c9      	asrs	r1, r1, #31
1000519e:	3220      	adds	r2, #32
100051a0:	d403      	bmi.n	100051aa <d2fix_a+0x44>
100051a2:	4252      	negs	r2, r2
100051a4:	3220      	adds	r2, #32
100051a6:	4110      	asrs	r0, r2
100051a8:	bd10      	pop	{r4, pc}
100051aa:	0018      	movs	r0, r3
100051ac:	0019      	movs	r1, r3
100051ae:	bd10      	pop	{r4, pc}
100051b0:	10005167 	.word	0x10005167

100051b4 <dunpacks>:
100051b4:	0d0a      	lsrs	r2, r1, #20
100051b6:	0fcc      	lsrs	r4, r1, #31
100051b8:	1e53      	subs	r3, r2, #1
100051ba:	051b      	lsls	r3, r3, #20
100051bc:	1ac9      	subs	r1, r1, r3
100051be:	0552      	lsls	r2, r2, #21
100051c0:	d303      	bcc.n	100051ca <l60_1>
100051c2:	43c9      	mvns	r1, r1
100051c4:	4240      	negs	r0, r0
100051c6:	d300      	bcc.n	100051ca <l60_1>
100051c8:	3101      	adds	r1, #1

100051ca <l60_1>:
100051ca:	0d52      	lsrs	r2, r2, #21
100051cc:	d003      	beq.n	100051d6 <l60_2>
100051ce:	1c53      	adds	r3, r2, #1
100051d0:	0adb      	lsrs	r3, r3, #11
100051d2:	d007      	beq.n	100051e4 <l60_3>
100051d4:	1b12      	subs	r2, r2, r4

100051d6 <l60_2>:
100051d6:	2000      	movs	r0, #0
100051d8:	0064      	lsls	r4, r4, #1
100051da:	1c61      	adds	r1, r4, #1
100051dc:	0789      	lsls	r1, r1, #30
100051de:	1289      	asrs	r1, r1, #10
100051e0:	3a80      	subs	r2, #128	@ 0x80
100051e2:	0312      	lsls	r2, r2, #12

100051e4 <l60_3>:
100051e4:	4b01      	ldr	r3, [pc, #4]	@ (100051ec <l60_3+0x8>)
100051e6:	1ad2      	subs	r2, r2, r3
100051e8:	4770      	bx	lr
100051ea:	0000      	.short	0x0000
100051ec:	000003ff 	.word	0x000003ff

100051f0 <__wrap___aeabi_lmul>:
100051f0:	4351      	muls	r1, r2
100051f2:	4343      	muls	r3, r0
100051f4:	18c9      	adds	r1, r1, r3
100051f6:	468c      	mov	ip, r1
100051f8:	0c11      	lsrs	r1, r2, #16
100051fa:	b283      	uxth	r3, r0
100051fc:	434b      	muls	r3, r1
100051fe:	b410      	push	{r4}
10005200:	0c04      	lsrs	r4, r0, #16
10005202:	4361      	muls	r1, r4
10005204:	b292      	uxth	r2, r2
10005206:	b280      	uxth	r0, r0
10005208:	4350      	muls	r0, r2
1000520a:	4362      	muls	r2, r4
1000520c:	041c      	lsls	r4, r3, #16
1000520e:	0c1b      	lsrs	r3, r3, #16
10005210:	1900      	adds	r0, r0, r4
10005212:	bc10      	pop	{r4}
10005214:	4159      	adcs	r1, r3
10005216:	0413      	lsls	r3, r2, #16
10005218:	0c12      	lsrs	r2, r2, #16
1000521a:	18c0      	adds	r0, r0, r3
1000521c:	4151      	adcs	r1, r2
1000521e:	4461      	add	r1, ip
10005220:	4770      	bx	lr
	...

10005224 <__wrap___aeabi_frsub>:
10005224:	4048      	eors	r0, r1
10005226:	4041      	eors	r1, r0
10005228:	4048      	eors	r0, r1

1000522a <__wrap___aeabi_fsub>:
1000522a:	4b0e      	ldr	r3, [pc, #56]	@ (10005264 <__wrap___aeabi_fmul+0x6>)
1000522c:	685b      	ldr	r3, [r3, #4]
1000522e:	4718      	bx	r3

10005230 <__wrap___aeabi_fadd>:
10005230:	4b0c      	ldr	r3, [pc, #48]	@ (10005264 <__wrap___aeabi_fmul+0x6>)
10005232:	681b      	ldr	r3, [r3, #0]
10005234:	4718      	bx	r3

10005236 <__wrap___aeabi_fdiv>:
10005236:	4a0c      	ldr	r2, [pc, #48]	@ (10005268 <__wrap___aeabi_fmul+0xa>)
10005238:	6f93      	ldr	r3, [r2, #120]	@ 0x78
1000523a:	089b      	lsrs	r3, r3, #2
1000523c:	d202      	bcs.n	10005244 <fdiv_save_state>

1000523e <fdiv_shim_call>:
1000523e:	4b09      	ldr	r3, [pc, #36]	@ (10005264 <__wrap___aeabi_fmul+0x6>)
10005240:	68db      	ldr	r3, [r3, #12]
10005242:	4718      	bx	r3

10005244 <fdiv_save_state>:
10005244:	b5f0      	push	{r4, r5, r6, r7, lr}
10005246:	6e14      	ldr	r4, [r2, #96]	@ 0x60
10005248:	6e55      	ldr	r5, [r2, #100]	@ 0x64
1000524a:	6f57      	ldr	r7, [r2, #116]	@ 0x74
1000524c:	6f16      	ldr	r6, [r2, #112]	@ 0x70
1000524e:	f7ff fff6 	bl	1000523e <fdiv_shim_call>
10005252:	4a05      	ldr	r2, [pc, #20]	@ (10005268 <__wrap___aeabi_fmul+0xa>)
10005254:	6614      	str	r4, [r2, #96]	@ 0x60
10005256:	6655      	str	r5, [r2, #100]	@ 0x64
10005258:	6757      	str	r7, [r2, #116]	@ 0x74
1000525a:	6716      	str	r6, [r2, #112]	@ 0x70
1000525c:	bdf0      	pop	{r4, r5, r6, r7, pc}

1000525e <__wrap___aeabi_fmul>:
1000525e:	4b01      	ldr	r3, [pc, #4]	@ (10005264 <__wrap___aeabi_fmul+0x6>)
10005260:	689b      	ldr	r3, [r3, #8]
10005262:	4718      	bx	r3
10005264:	20001b48 	.word	0x20001b48
10005268:	d0000000 	.word	0xd0000000

1000526c <__wrap___aeabi_cfrcmple>:
1000526c:	b507      	push	{r0, r1, r2, lr}
1000526e:	4048      	eors	r0, r1
10005270:	4041      	eors	r1, r0
10005272:	4048      	eors	r0, r1
10005274:	e001      	b.n	1000527a <__aeabi_cfcmple_guts>
10005276:	46c0      	nop			@ (mov r8, r8)

10005278 <__wrap___aeabi_cfcmpeq>:
10005278:	b507      	push	{r0, r1, r2, lr}

1000527a <__aeabi_cfcmple_guts>:
1000527a:	0042      	lsls	r2, r0, #1
1000527c:	0e12      	lsrs	r2, r2, #24
1000527e:	d003      	beq.n	10005288 <__aeabi_cfcmple_guts+0xe>
10005280:	2aff      	cmp	r2, #255	@ 0xff
10005282:	d103      	bne.n	1000528c <__aeabi_cfcmple_guts+0x12>
10005284:	0242      	lsls	r2, r0, #9
10005286:	d818      	bhi.n	100052ba <__aeabi_cfcmple_guts+0x40>
10005288:	0dc0      	lsrs	r0, r0, #23
1000528a:	05c0      	lsls	r0, r0, #23
1000528c:	004a      	lsls	r2, r1, #1
1000528e:	0e12      	lsrs	r2, r2, #24
10005290:	d003      	beq.n	1000529a <__aeabi_cfcmple_guts+0x20>
10005292:	2aff      	cmp	r2, #255	@ 0xff
10005294:	d103      	bne.n	1000529e <__aeabi_cfcmple_guts+0x24>
10005296:	024a      	lsls	r2, r1, #9
10005298:	d80f      	bhi.n	100052ba <__aeabi_cfcmple_guts+0x40>
1000529a:	0dc9      	lsrs	r1, r1, #23
1000529c:	05c9      	lsls	r1, r1, #23
1000529e:	2201      	movs	r2, #1
100052a0:	4041      	eors	r1, r0
100052a2:	d405      	bmi.n	100052b0 <__aeabi_cfcmple_guts+0x36>
100052a4:	4041      	eors	r1, r0
100052a6:	d501      	bpl.n	100052ac <__aeabi_cfcmple_guts+0x32>
100052a8:	4281      	cmp	r1, r0
100052aa:	bd07      	pop	{r0, r1, r2, pc}
100052ac:	4288      	cmp	r0, r1
100052ae:	bd07      	pop	{r0, r1, r2, pc}
100052b0:	4301      	orrs	r1, r0
100052b2:	1849      	adds	r1, r1, r1
100052b4:	d001      	beq.n	100052ba <__aeabi_cfcmple_guts+0x40>
100052b6:	43c0      	mvns	r0, r0
100052b8:	1800      	adds	r0, r0, r0
100052ba:	bd07      	pop	{r0, r1, r2, pc}

100052bc <__wrap___aeabi_fcmpeq>:
100052bc:	b500      	push	{lr}
100052be:	f7ff ffdb 	bl	10005278 <__wrap___aeabi_cfcmpeq>
100052c2:	d001      	beq.n	100052c8 <__wrap___aeabi_fcmpeq+0xc>
100052c4:	2000      	movs	r0, #0
100052c6:	bd00      	pop	{pc}
100052c8:	2001      	movs	r0, #1
100052ca:	bd00      	pop	{pc}

100052cc <__wrap___aeabi_fcmplt>:
100052cc:	b500      	push	{lr}
100052ce:	f7ff ffd3 	bl	10005278 <__wrap___aeabi_cfcmpeq>
100052d2:	4180      	sbcs	r0, r0
100052d4:	bd00      	pop	{pc}
100052d6:	46c0      	nop			@ (mov r8, r8)

100052d8 <__wrap___aeabi_fcmpgt>:
100052d8:	b500      	push	{lr}
100052da:	f7ff ffc7 	bl	1000526c <__wrap___aeabi_cfrcmple>
100052de:	4180      	sbcs	r0, r0
100052e0:	bd00      	pop	{pc}

100052e2 <__wrap___aeabi_ui2f>:
100052e2:	1a49      	subs	r1, r1, r1
100052e4:	2800      	cmp	r0, #0
100052e6:	d107      	bne.n	100052f8 <__aeabi_i2f_main>
100052e8:	4608      	mov	r0, r1
100052ea:	4770      	bx	lr

100052ec <__wrap___aeabi_i2f>:
100052ec:	0fc1      	lsrs	r1, r0, #31
100052ee:	07c9      	lsls	r1, r1, #31
100052f0:	d500      	bpl.n	100052f4 <__wrap___aeabi_i2f+0x8>
100052f2:	4240      	negs	r0, r0
100052f4:	2800      	cmp	r0, #0
100052f6:	d017      	beq.n	10005328 <__aeabi_i2f_main+0x30>

100052f8 <__aeabi_i2f_main>:
100052f8:	46f4      	mov	ip, lr
100052fa:	b403      	push	{r0, r1}
100052fc:	4b0b      	ldr	r3, [pc, #44]	@ (1000532c <__aeabi_i2f_main+0x34>)
100052fe:	681b      	ldr	r3, [r3, #0]
10005300:	4798      	blx	r3
10005302:	bc06      	pop	{r1, r2}
10005304:	4081      	lsls	r1, r0
10005306:	389e      	subs	r0, #158	@ 0x9e
10005308:	4240      	negs	r0, r0
1000530a:	3180      	adds	r1, #128	@ 0x80
1000530c:	d207      	bcs.n	1000531e <__aeabi_i2f_main+0x26>
1000530e:	060b      	lsls	r3, r1, #24
10005310:	d007      	beq.n	10005322 <__aeabi_i2f_main+0x2a>
10005312:	0049      	lsls	r1, r1, #1
10005314:	0a49      	lsrs	r1, r1, #9
10005316:	05c0      	lsls	r0, r0, #23
10005318:	4310      	orrs	r0, r2
1000531a:	4308      	orrs	r0, r1
1000531c:	4760      	bx	ip
1000531e:	3001      	adds	r0, #1
10005320:	e7f8      	b.n	10005314 <__aeabi_i2f_main+0x1c>
10005322:	0a49      	lsrs	r1, r1, #9
10005324:	0289      	lsls	r1, r1, #10
10005326:	e7f5      	b.n	10005314 <__aeabi_i2f_main+0x1c>
10005328:	4770      	bx	lr
1000532a:	0000      	.short	0x0000
1000532c:	200051bc 	.word	0x200051bc

10005330 <__wrap___aeabi_f2d>:
10005330:	4b03      	ldr	r3, [pc, #12]	@ (10005340 <__wrap___aeabi_f2d+0x10>)
10005332:	6fdb      	ldr	r3, [r3, #124]	@ 0x7c
10005334:	46fc      	mov	ip, pc
10005336:	4718      	bx	r3
10005338:	542ddf7c 	.word	0x542ddf7c
1000533c:	00001000 	.word	0x00001000
10005340:	20001b48 	.word	0x20001b48

10005344 <__wrap_expf>:
10005344:	4b01      	ldr	r3, [pc, #4]	@ (1000534c <__wrap_expf+0x8>)
10005346:	6cdb      	ldr	r3, [r3, #76]	@ 0x4c
10005348:	4718      	bx	r3
1000534a:	0000      	.short	0x0000
1000534c:	20001b48 	.word	0x20001b48

10005350 <__aeabi_float_init>:
10005350:	2313      	movs	r3, #19
10005352:	b510      	push	{r4, lr}
10005354:	4812      	ldr	r0, [pc, #72]	@ (100053a0 <__aeabi_float_init+0x50>)
10005356:	781c      	ldrb	r4, [r3, #0]
10005358:	f7fe ff58 	bl	1000420c <rom_data_lookup>
1000535c:	0001      	movs	r1, r0
1000535e:	2c01      	cmp	r4, #1
10005360:	d00a      	beq.n	10005378 <__aeabi_float_init+0x28>
10005362:	dd03      	ble.n	1000536c <__aeabi_float_init+0x1c>
10005364:	2280      	movs	r2, #128	@ 0x80
10005366:	480f      	ldr	r0, [pc, #60]	@ (100053a4 <__aeabi_float_init+0x54>)
10005368:	f000 f8a4 	bl	100054b4 <__wrap___aeabi_memcpy>
1000536c:	480e      	ldr	r0, [pc, #56]	@ (100053a8 <__aeabi_float_init+0x58>)
1000536e:	f7fe ff45 	bl	100041fc <rom_func_lookup>
10005372:	4b0e      	ldr	r3, [pc, #56]	@ (100053ac <__aeabi_float_init+0x5c>)
10005374:	6018      	str	r0, [r3, #0]
10005376:	bd10      	pop	{r4, pc}
10005378:	4c0a      	ldr	r4, [pc, #40]	@ (100053a4 <__aeabi_float_init+0x54>)
1000537a:	2254      	movs	r2, #84	@ 0x54
1000537c:	0020      	movs	r0, r4
1000537e:	f000 f899 	bl	100054b4 <__wrap___aeabi_memcpy>
10005382:	4b0b      	ldr	r3, [pc, #44]	@ (100053b0 <__aeabi_float_init+0x60>)
10005384:	6563      	str	r3, [r4, #84]	@ 0x54
10005386:	65a3      	str	r3, [r4, #88]	@ 0x58
10005388:	65e3      	str	r3, [r4, #92]	@ 0x5c
1000538a:	6623      	str	r3, [r4, #96]	@ 0x60
1000538c:	6663      	str	r3, [r4, #100]	@ 0x64
1000538e:	66a3      	str	r3, [r4, #104]	@ 0x68
10005390:	66e3      	str	r3, [r4, #108]	@ 0x6c
10005392:	6723      	str	r3, [r4, #112]	@ 0x70
10005394:	6763      	str	r3, [r4, #116]	@ 0x74
10005396:	67a3      	str	r3, [r4, #120]	@ 0x78
10005398:	67e3      	str	r3, [r4, #124]	@ 0x7c
1000539a:	6223      	str	r3, [r4, #32]
1000539c:	61e3      	str	r3, [r4, #28]
1000539e:	e7e5      	b.n	1000536c <__aeabi_float_init+0x1c>
100053a0:	00004653 	.word	0x00004653
100053a4:	20001b48 	.word	0x20001b48
100053a8:	0000334c 	.word	0x0000334c
100053ac:	200051bc 	.word	0x200051bc
100053b0:	10005401 	.word	0x10005401

100053b4 <__wrap_tanhf>:
100053b4:	0043      	lsls	r3, r0, #1
100053b6:	b570      	push	{r4, r5, r6, lr}
100053b8:	0e1b      	lsrs	r3, r3, #24
100053ba:	2b82      	cmp	r3, #130	@ 0x82
100053bc:	d904      	bls.n	100053c8 <__wrap_tanhf+0x14>
100053be:	2800      	cmp	r0, #0
100053c0:	db19      	blt.n	100053f6 <__wrap_tanhf+0x42>
100053c2:	20fe      	movs	r0, #254	@ 0xfe
100053c4:	0580      	lsls	r0, r0, #22
100053c6:	e015      	b.n	100053f4 <__wrap_tanhf+0x40>
100053c8:	2b00      	cmp	r3, #0
100053ca:	d002      	beq.n	100053d2 <__wrap_tanhf+0x1e>
100053cc:	2380      	movs	r3, #128	@ 0x80
100053ce:	041b      	lsls	r3, r3, #16
100053d0:	18c0      	adds	r0, r0, r3
100053d2:	f7ff ffb7 	bl	10005344 <__wrap_expf>
100053d6:	21fe      	movs	r1, #254	@ 0xfe
100053d8:	0589      	lsls	r1, r1, #22
100053da:	1c04      	adds	r4, r0, #0
100053dc:	f7ff ff25 	bl	1000522a <__wrap___aeabi_fsub>
100053e0:	21fe      	movs	r1, #254	@ 0xfe
100053e2:	1c05      	adds	r5, r0, #0
100053e4:	0589      	lsls	r1, r1, #22
100053e6:	1c20      	adds	r0, r4, #0
100053e8:	f7ff ff22 	bl	10005230 <__wrap___aeabi_fadd>
100053ec:	1c01      	adds	r1, r0, #0
100053ee:	1c28      	adds	r0, r5, #0
100053f0:	f7ff ff21 	bl	10005236 <__wrap___aeabi_fdiv>
100053f4:	bd70      	pop	{r4, r5, r6, pc}
100053f6:	4801      	ldr	r0, [pc, #4]	@ (100053fc <__wrap_tanhf+0x48>)
100053f8:	e7fc      	b.n	100053f4 <__wrap_tanhf+0x40>
100053fa:	46c0      	nop			@ (mov r8, r8)
100053fc:	bf800000 	.word	0xbf800000

10005400 <float_table_shim_on_use_helper>:
10005400:	b507      	push	{r0, r1, r2, lr}
10005402:	4660      	mov	r0, ip
10005404:	8801      	ldrh	r1, [r0, #0]
10005406:	0a0a      	lsrs	r2, r1, #8
10005408:	3002      	adds	r0, #2
1000540a:	2adf      	cmp	r2, #223	@ 0xdf
1000540c:	d1fa      	bne.n	10005404 <float_table_shim_on_use_helper+0x4>
1000540e:	b2c9      	uxtb	r1, r1
10005410:	0882      	lsrs	r2, r0, #2
10005412:	d304      	bcc.n	1000541e <float_table_shim_on_use_helper+0x1e>
10005414:	8802      	ldrh	r2, [r0, #0]
10005416:	8840      	ldrh	r0, [r0, #2]
10005418:	0400      	lsls	r0, r0, #16
1000541a:	4310      	orrs	r0, r2
1000541c:	e000      	b.n	10005420 <float_table_shim_on_use_helper+0x20>
1000541e:	6800      	ldr	r0, [r0, #0]
10005420:	4a01      	ldr	r2, [pc, #4]	@ (10005428 <float_table_shim_on_use_helper+0x28>)
10005422:	5050      	str	r0, [r2, r1]
10005424:	9003      	str	r0, [sp, #12]
10005426:	bd07      	pop	{r0, r1, r2, pc}
10005428:	20001b48 	.word	0x20001b48

1000542c <float2double_shim>:
1000542c:	0fc3      	lsrs	r3, r0, #31
1000542e:	07db      	lsls	r3, r3, #31
10005430:	0041      	lsls	r1, r0, #1
10005432:	0e0a      	lsrs	r2, r1, #24
10005434:	d007      	beq.n	10005446 <float2double_shim+0x1a>
10005436:	2aff      	cmp	r2, #255	@ 0xff
10005438:	d008      	beq.n	1000544c <float2double_shim+0x20>
1000543a:	0909      	lsrs	r1, r1, #4
1000543c:	4a05      	ldr	r2, [pc, #20]	@ (10005454 <float2double_shim+0x28>)
1000543e:	1889      	adds	r1, r1, r2
10005440:	4319      	orrs	r1, r3
10005442:	0740      	lsls	r0, r0, #29
10005444:	4770      	bx	lr
10005446:	0019      	movs	r1, r3
10005448:	2000      	movs	r0, #0
1000544a:	4770      	bx	lr
1000544c:	4902      	ldr	r1, [pc, #8]	@ (10005458 <float2double_shim+0x2c>)
1000544e:	18c9      	adds	r1, r1, r3
10005450:	e7fa      	b.n	10005448 <float2double_shim+0x1c>
10005452:	0000      	.short	0x0000
10005454:	38000000 	.word	0x38000000
10005458:	7ff00000 	.word	0x7ff00000

1000545c <__wrap_malloc>:
1000545c:	b570      	push	{r4, r5, r6, lr}
1000545e:	0004      	movs	r4, r0
10005460:	4e0a      	ldr	r6, [pc, #40]	@ (1000548c <__wrap_malloc+0x30>)
10005462:	0030      	movs	r0, r6
10005464:	f00a ff30 	bl	100102c8 <__mutex_enter_blocking_veneer>
10005468:	0020      	movs	r0, r4
1000546a:	f007 fcbd 	bl	1000cde8 <malloc>
1000546e:	0005      	movs	r5, r0
10005470:	0030      	movs	r0, r6
10005472:	f00a fec1 	bl	100101f8 <__mutex_exit_veneer>
10005476:	2d00      	cmp	r5, #0
10005478:	d005      	beq.n	10005486 <__wrap_malloc+0x2a>
1000547a:	4b05      	ldr	r3, [pc, #20]	@ (10005490 <__wrap_malloc+0x34>)
1000547c:	192c      	adds	r4, r5, r4
1000547e:	429c      	cmp	r4, r3
10005480:	d801      	bhi.n	10005486 <__wrap_malloc+0x2a>
10005482:	0028      	movs	r0, r5
10005484:	bd70      	pop	{r4, r5, r6, pc}
10005486:	4803      	ldr	r0, [pc, #12]	@ (10005494 <__wrap_malloc+0x38>)
10005488:	f7fd fe6a 	bl	10003160 <panic>
1000548c:	200018b0 	.word	0x200018b0
10005490:	20040000 	.word	0x20040000
10005494:	10010770 	.word	0x10010770

10005498 <__aeabi_mem_init>:
10005498:	4801      	ldr	r0, [pc, #4]	@ (100054a0 <__aeabi_mem_init+0x8>)
1000549a:	2104      	movs	r1, #4
1000549c:	4b01      	ldr	r3, [pc, #4]	@ (100054a4 <__aeabi_mem_init+0xc>)
1000549e:	4718      	bx	r3
100054a0:	20001190 	.word	0x20001190
100054a4:	1000421d 	.word	0x1000421d

100054a8 <__wrap_memset>:
100054a8:	4b01      	ldr	r3, [pc, #4]	@ (100054b0 <__wrap_memset+0x8>)
100054aa:	681b      	ldr	r3, [r3, #0]
100054ac:	4718      	bx	r3
100054ae:	0000      	.short	0x0000
100054b0:	20001190 	.word	0x20001190

100054b4 <__wrap___aeabi_memcpy>:
100054b4:	4b01      	ldr	r3, [pc, #4]	@ (100054bc <__wrap___aeabi_memcpy+0x8>)
100054b6:	685b      	ldr	r3, [r3, #4]
100054b8:	4718      	bx	r3
100054ba:	0000      	.short	0x0000
100054bc:	20001190 	.word	0x20001190

100054c0 <_out_char>:
100054c0:	b510      	push	{r4, lr}
100054c2:	2800      	cmp	r0, #0
100054c4:	d100      	bne.n	100054c8 <_out_char+0x8>
100054c6:	bd10      	pop	{r4, pc}
100054c8:	f000 f9f8 	bl	100058bc <__wrap_putchar>
100054cc:	e7fb      	b.n	100054c6 <_out_char+0x6>
100054ce:	46c0      	nop			@ (mov r8, r8)

100054d0 <weak_raw_printf>:
100054d0:	b40f      	push	{r0, r1, r2, r3}
100054d2:	b530      	push	{r4, r5, lr}
100054d4:	490c      	ldr	r1, [pc, #48]	@ (10005508 <weak_raw_printf+0x38>)
100054d6:	b085      	sub	sp, #20
100054d8:	aa08      	add	r2, sp, #32
100054da:	ca08      	ldmia	r2!, {r3}
100054dc:	680d      	ldr	r5, [r1, #0]
100054de:	9203      	str	r2, [sp, #12]
100054e0:	2d00      	cmp	r5, #0
100054e2:	d00c      	beq.n	100054fe <weak_raw_printf+0x2e>
100054e4:	9200      	str	r2, [sp, #0]
100054e6:	2201      	movs	r2, #1
100054e8:	4c08      	ldr	r4, [pc, #32]	@ (1000550c <weak_raw_printf+0x3c>)
100054ea:	4252      	negs	r2, r2
100054ec:	0020      	movs	r0, r4
100054ee:	a902      	add	r1, sp, #8
100054f0:	47a8      	blx	r5
100054f2:	2001      	movs	r0, #1
100054f4:	b005      	add	sp, #20
100054f6:	bc30      	pop	{r4, r5}
100054f8:	bc08      	pop	{r3}
100054fa:	b004      	add	sp, #16
100054fc:	4718      	bx	r3
100054fe:	0018      	movs	r0, r3
10005500:	f000 fa28 	bl	10005954 <__wrap_puts>
10005504:	2000      	movs	r0, #0
10005506:	e7f5      	b.n	100054f4 <weak_raw_printf+0x24>
10005508:	20005178 	.word	0x20005178
1000550c:	100054c1 	.word	0x100054c1

10005510 <weak_raw_vprintf>:
10005510:	b510      	push	{r4, lr}
10005512:	4a09      	ldr	r2, [pc, #36]	@ (10005538 <weak_raw_vprintf+0x28>)
10005514:	0003      	movs	r3, r0
10005516:	6814      	ldr	r4, [r2, #0]
10005518:	b084      	sub	sp, #16
1000551a:	2c00      	cmp	r4, #0
1000551c:	d008      	beq.n	10005530 <weak_raw_vprintf+0x20>
1000551e:	2201      	movs	r2, #1
10005520:	9100      	str	r1, [sp, #0]
10005522:	4806      	ldr	r0, [pc, #24]	@ (1000553c <weak_raw_vprintf+0x2c>)
10005524:	4252      	negs	r2, r2
10005526:	a903      	add	r1, sp, #12
10005528:	47a0      	blx	r4
1000552a:	2001      	movs	r0, #1
1000552c:	b004      	add	sp, #16
1000552e:	bd10      	pop	{r4, pc}
10005530:	f000 fa10 	bl	10005954 <__wrap_puts>
10005534:	2000      	movs	r0, #0
10005536:	e7f9      	b.n	1000552c <weak_raw_vprintf+0x1c>
10005538:	20005178 	.word	0x20005178
1000553c:	100054c1 	.word	0x100054c1

10005540 <_exit>:
10005540:	be00      	bkpt	0x0000
10005542:	e7fd      	b.n	10005540 <_exit>

10005544 <_sbrk>:
10005544:	4a09      	ldr	r2, [pc, #36]	@ (1000556c <_sbrk+0x28>)
10005546:	0003      	movs	r3, r0
10005548:	6810      	ldr	r0, [r2, #0]
1000554a:	2800      	cmp	r0, #0
1000554c:	d005      	beq.n	1000555a <_sbrk+0x16>
1000554e:	4908      	ldr	r1, [pc, #32]	@ (10005570 <_sbrk+0x2c>)
10005550:	18c3      	adds	r3, r0, r3
10005552:	428b      	cmp	r3, r1
10005554:	d807      	bhi.n	10005566 <_sbrk+0x22>
10005556:	6013      	str	r3, [r2, #0]
10005558:	4770      	bx	lr
1000555a:	4806      	ldr	r0, [pc, #24]	@ (10005574 <_sbrk+0x30>)
1000555c:	4904      	ldr	r1, [pc, #16]	@ (10005570 <_sbrk+0x2c>)
1000555e:	18c3      	adds	r3, r0, r3
10005560:	6010      	str	r0, [r2, #0]
10005562:	428b      	cmp	r3, r1
10005564:	d9f7      	bls.n	10005556 <_sbrk+0x12>
10005566:	2001      	movs	r0, #1
10005568:	4240      	negs	r0, r0
1000556a:	e7f5      	b.n	10005558 <_sbrk+0x14>
1000556c:	20004d70 	.word	0x20004d70
10005570:	20040000 	.word	0x20040000
10005574:	200051e8 	.word	0x200051e8

10005578 <_getpid>:
10005578:	2000      	movs	r0, #0
1000557a:	4770      	bx	lr

1000557c <_kill>:
1000557c:	2001      	movs	r0, #1
1000557e:	4240      	negs	r0, r0
10005580:	4770      	bx	lr
10005582:	46c0      	nop			@ (mov r8, r8)

10005584 <_read>:
10005584:	0003      	movs	r3, r0
10005586:	b510      	push	{r4, lr}
10005588:	0008      	movs	r0, r1
1000558a:	0011      	movs	r1, r2
1000558c:	2b00      	cmp	r3, #0
1000558e:	d105      	bne.n	1000559c <_read+0x18>
10005590:	4b04      	ldr	r3, [pc, #16]	@ (100055a4 <_read+0x20>)
10005592:	681a      	ldr	r2, [r3, #0]
10005594:	685b      	ldr	r3, [r3, #4]
10005596:	f000 f933 	bl	10005800 <stdio_get_until>
1000559a:	bd10      	pop	{r4, pc}
1000559c:	2001      	movs	r0, #1
1000559e:	4240      	negs	r0, r0
100055a0:	e7fb      	b.n	1000559a <_read+0x16>
100055a2:	46c0      	nop			@ (mov r8, r8)
100055a4:	10013d30 	.word	0x10013d30

100055a8 <_write>:
100055a8:	0003      	movs	r3, r0
100055aa:	3b01      	subs	r3, #1
100055ac:	b510      	push	{r4, lr}
100055ae:	0008      	movs	r0, r1
100055b0:	0014      	movs	r4, r2
100055b2:	2b01      	cmp	r3, #1
100055b4:	d806      	bhi.n	100055c4 <_write+0x1c>
100055b6:	2301      	movs	r3, #1
100055b8:	2200      	movs	r2, #0
100055ba:	0021      	movs	r1, r4
100055bc:	f000 f8a0 	bl	10005700 <stdio_put_string>
100055c0:	0020      	movs	r0, r4
100055c2:	bd10      	pop	{r4, pc}
100055c4:	2001      	movs	r0, #1
100055c6:	4240      	negs	r0, r0
100055c8:	e7fb      	b.n	100055c2 <_write+0x1a>
100055ca:	46c0      	nop			@ (mov r8, r8)

100055cc <_close>:
100055cc:	2001      	movs	r0, #1
100055ce:	4240      	negs	r0, r0
100055d0:	4770      	bx	lr
100055d2:	46c0      	nop			@ (mov r8, r8)

100055d4 <_lseek>:
100055d4:	2001      	movs	r0, #1
100055d6:	4240      	negs	r0, r0
100055d8:	4770      	bx	lr
100055da:	46c0      	nop			@ (mov r8, r8)

100055dc <_fstat>:
100055dc:	2001      	movs	r0, #1
100055de:	4240      	negs	r0, r0
100055e0:	4770      	bx	lr
100055e2:	46c0      	nop			@ (mov r8, r8)

100055e4 <_isatty>:
100055e4:	0003      	movs	r3, r0
100055e6:	2202      	movs	r2, #2
100055e8:	2000      	movs	r0, #0
100055ea:	429a      	cmp	r2, r3
100055ec:	4140      	adcs	r0, r0
100055ee:	4770      	bx	lr

100055f0 <exit>:
100055f0:	b510      	push	{r4, lr}
100055f2:	f7ff ffa5 	bl	10005540 <_exit>
100055f6:	46c0      	nop			@ (mov r8, r8)

100055f8 <__assert_func>:
100055f8:	b530      	push	{r4, r5, lr}
100055fa:	000d      	movs	r5, r1
100055fc:	b083      	sub	sp, #12
100055fe:	0019      	movs	r1, r3
10005600:	2a00      	cmp	r2, #0
10005602:	d00b      	beq.n	1000561c <__assert_func+0x24>
10005604:	4b07      	ldr	r3, [pc, #28]	@ (10005624 <__assert_func+0x2c>)
10005606:	4c08      	ldr	r4, [pc, #32]	@ (10005628 <__assert_func+0x30>)
10005608:	9201      	str	r2, [sp, #4]
1000560a:	9300      	str	r3, [sp, #0]
1000560c:	0002      	movs	r2, r0
1000560e:	002b      	movs	r3, r5
10005610:	0020      	movs	r0, r4
10005612:	f7ff ff5d 	bl	100054d0 <weak_raw_printf>
10005616:	2001      	movs	r0, #1
10005618:	f7ff ff92 	bl	10005540 <_exit>
1000561c:	4b03      	ldr	r3, [pc, #12]	@ (1000562c <__assert_func+0x34>)
1000561e:	001a      	movs	r2, r3
10005620:	e7f1      	b.n	10005606 <__assert_func+0xe>
10005622:	46c0      	nop			@ (mov r8, r8)
10005624:	100107c8 	.word	0x100107c8
10005628:	100107d8 	.word	0x100107d8
1000562c:	100106f0 	.word	0x100106f0

10005630 <runtime_init>:
10005630:	b570      	push	{r4, r5, r6, lr}
10005632:	f7fe fe45 	bl	100042c0 <runtime_run_initializers>
10005636:	4d07      	ldr	r5, [pc, #28]	@ (10005654 <runtime_init+0x24>)
10005638:	4e07      	ldr	r6, [pc, #28]	@ (10005658 <runtime_init+0x28>)
1000563a:	42b5      	cmp	r5, r6
1000563c:	d209      	bcs.n	10005652 <runtime_init+0x22>
1000563e:	2400      	movs	r4, #0
10005640:	3e01      	subs	r6, #1
10005642:	1b76      	subs	r6, r6, r5
10005644:	08b6      	lsrs	r6, r6, #2
10005646:	cd08      	ldmia	r5!, {r3}
10005648:	4798      	blx	r3
1000564a:	0023      	movs	r3, r4
1000564c:	3401      	adds	r4, #1
1000564e:	42b3      	cmp	r3, r6
10005650:	d1f9      	bne.n	10005646 <runtime_init+0x16>
10005652:	bd70      	pop	{r4, r5, r6, pc}
10005654:	10010324 	.word	0x10010324
10005658:	10010330 	.word	0x10010330

1000565c <stdio_out_chars_no_crlf>:
1000565c:	0003      	movs	r3, r0
1000565e:	b510      	push	{r4, lr}
10005660:	0008      	movs	r0, r1
10005662:	0011      	movs	r1, r2
10005664:	681b      	ldr	r3, [r3, #0]
10005666:	4798      	blx	r3
10005668:	bd10      	pop	{r4, pc}
1000566a:	46c0      	nop			@ (mov r8, r8)

1000566c <stdio_out_chars_crlf>:
1000566c:	b5f0      	push	{r4, r5, r6, r7, lr}
1000566e:	46c6      	mov	lr, r8
10005670:	b500      	push	{lr}
10005672:	7d43      	ldrb	r3, [r0, #21]
10005674:	0007      	movs	r7, r0
10005676:	000d      	movs	r5, r1
10005678:	0016      	movs	r6, r2
1000567a:	2b00      	cmp	r3, #0
1000567c:	d038      	beq.n	100056f0 <stdio_out_chars_crlf+0x84>
1000567e:	2a00      	cmp	r2, #0
10005680:	dd2e      	ble.n	100056e0 <stdio_out_chars_crlf+0x74>
10005682:	2100      	movs	r1, #0
10005684:	1e6a      	subs	r2, r5, #1
10005686:	4690      	mov	r8, r2
10005688:	5c6a      	ldrb	r2, [r5, r1]
1000568a:	7d03      	ldrb	r3, [r0, #20]
1000568c:	1c4c      	adds	r4, r1, #1
1000568e:	2000      	movs	r0, #0
10005690:	2a0a      	cmp	r2, #10
10005692:	d00c      	beq.n	100056ae <stdio_out_chars_crlf+0x42>
10005694:	42a6      	cmp	r6, r4
10005696:	d016      	beq.n	100056c6 <stdio_out_chars_crlf+0x5a>
10005698:	4643      	mov	r3, r8
1000569a:	5d1b      	ldrb	r3, [r3, r4]
1000569c:	0021      	movs	r1, r4
1000569e:	3b0d      	subs	r3, #13
100056a0:	425a      	negs	r2, r3
100056a2:	4153      	adcs	r3, r2
100056a4:	5c6a      	ldrb	r2, [r5, r1]
100056a6:	b2db      	uxtb	r3, r3
100056a8:	1c4c      	adds	r4, r1, #1
100056aa:	2a0a      	cmp	r2, #10
100056ac:	d1f2      	bne.n	10005694 <stdio_out_chars_crlf+0x28>
100056ae:	2b00      	cmp	r3, #0
100056b0:	d1f0      	bne.n	10005694 <stdio_out_chars_crlf+0x28>
100056b2:	4288      	cmp	r0, r1
100056b4:	db17      	blt.n	100056e6 <stdio_out_chars_crlf+0x7a>
100056b6:	2102      	movs	r1, #2
100056b8:	4810      	ldr	r0, [pc, #64]	@ (100056fc <stdio_out_chars_crlf+0x90>)
100056ba:	683b      	ldr	r3, [r7, #0]
100056bc:	4798      	blx	r3
100056be:	42a6      	cmp	r6, r4
100056c0:	d007      	beq.n	100056d2 <stdio_out_chars_crlf+0x66>
100056c2:	0020      	movs	r0, r4
100056c4:	e7e8      	b.n	10005698 <stdio_out_chars_crlf+0x2c>
100056c6:	4286      	cmp	r6, r0
100056c8:	dd03      	ble.n	100056d2 <stdio_out_chars_crlf+0x66>
100056ca:	1a31      	subs	r1, r6, r0
100056cc:	683b      	ldr	r3, [r7, #0]
100056ce:	1828      	adds	r0, r5, r0
100056d0:	4798      	blx	r3
100056d2:	19ad      	adds	r5, r5, r6
100056d4:	3d01      	subs	r5, #1
100056d6:	782b      	ldrb	r3, [r5, #0]
100056d8:	3b0d      	subs	r3, #13
100056da:	425a      	negs	r2, r3
100056dc:	4153      	adcs	r3, r2
100056de:	753b      	strb	r3, [r7, #20]
100056e0:	bc80      	pop	{r7}
100056e2:	46b8      	mov	r8, r7
100056e4:	bdf0      	pop	{r4, r5, r6, r7, pc}
100056e6:	1a09      	subs	r1, r1, r0
100056e8:	683b      	ldr	r3, [r7, #0]
100056ea:	1828      	adds	r0, r5, r0
100056ec:	4798      	blx	r3
100056ee:	e7e2      	b.n	100056b6 <stdio_out_chars_crlf+0x4a>
100056f0:	6803      	ldr	r3, [r0, #0]
100056f2:	0011      	movs	r1, r2
100056f4:	0028      	movs	r0, r5
100056f6:	4798      	blx	r3
100056f8:	e7f2      	b.n	100056e0 <stdio_out_chars_crlf+0x74>
100056fa:	46c0      	nop			@ (mov r8, r8)
100056fc:	10013d8c 	.word	0x10013d8c

10005700 <stdio_put_string>:
10005700:	b5f0      	push	{r4, r5, r6, r7, lr}
10005702:	46de      	mov	lr, fp
10005704:	4657      	mov	r7, sl
10005706:	464e      	mov	r6, r9
10005708:	4645      	mov	r5, r8
1000570a:	b5e0      	push	{r5, r6, r7, lr}
1000570c:	b085      	sub	sp, #20
1000570e:	0017      	movs	r7, r2
10005710:	001c      	movs	r4, r3
10005712:	0006      	movs	r6, r0
10005714:	000d      	movs	r5, r1
10005716:	f7fe fb97 	bl	10003e48 <time_us_64>
1000571a:	2300      	movs	r3, #0
1000571c:	4a31      	ldr	r2, [pc, #196]	@ (100057e4 <stdio_put_string+0xe4>)
1000571e:	1812      	adds	r2, r2, r0
10005720:	414b      	adcs	r3, r1
10005722:	2180      	movs	r1, #128	@ 0x80
10005724:	0609      	lsls	r1, r1, #24
10005726:	428b      	cmp	r3, r1
10005728:	d302      	bcc.n	10005730 <stdio_put_string+0x30>
1000572a:	2201      	movs	r2, #1
1000572c:	4b2e      	ldr	r3, [pc, #184]	@ (100057e8 <stdio_put_string+0xe8>)
1000572e:	4252      	negs	r2, r2
10005730:	492e      	ldr	r1, [pc, #184]	@ (100057ec <stdio_put_string+0xec>)
10005732:	0008      	movs	r0, r1
10005734:	468a      	mov	sl, r1
10005736:	f00a fda7 	bl	10010288 <__mutex_try_enter_block_until_veneer>
1000573a:	9001      	str	r0, [sp, #4]
1000573c:	1c6b      	adds	r3, r5, #1
1000573e:	d103      	bne.n	10005748 <stdio_put_string+0x48>
10005740:	0030      	movs	r0, r6
10005742:	f005 fab5 	bl	1000acb0 <strlen>
10005746:	0005      	movs	r5, r0
10005748:	2c00      	cmp	r4, #0
1000574a:	d026      	beq.n	1000579a <stdio_put_string+0x9a>
1000574c:	4b28      	ldr	r3, [pc, #160]	@ (100057f0 <stdio_put_string+0xf0>)
1000574e:	4698      	mov	r8, r3
10005750:	4b28      	ldr	r3, [pc, #160]	@ (100057f4 <stdio_put_string+0xf4>)
10005752:	681c      	ldr	r4, [r3, #0]
10005754:	2c00      	cmp	r4, #0
10005756:	d015      	beq.n	10005784 <stdio_put_string+0x84>
10005758:	2f00      	cmp	r7, #0
1000575a:	d121      	bne.n	100057a0 <stdio_put_string+0xa0>
1000575c:	4f26      	ldr	r7, [pc, #152]	@ (100057f8 <stdio_put_string+0xf8>)
1000575e:	e002      	b.n	10005766 <stdio_put_string+0x66>
10005760:	6924      	ldr	r4, [r4, #16]
10005762:	2c00      	cmp	r4, #0
10005764:	d00e      	beq.n	10005784 <stdio_put_string+0x84>
10005766:	6823      	ldr	r3, [r4, #0]
10005768:	2b00      	cmp	r3, #0
1000576a:	d0f9      	beq.n	10005760 <stdio_put_string+0x60>
1000576c:	683b      	ldr	r3, [r7, #0]
1000576e:	2b00      	cmp	r3, #0
10005770:	d001      	beq.n	10005776 <stdio_put_string+0x76>
10005772:	429c      	cmp	r4, r3
10005774:	d1f4      	bne.n	10005760 <stdio_put_string+0x60>
10005776:	0020      	movs	r0, r4
10005778:	002a      	movs	r2, r5
1000577a:	0031      	movs	r1, r6
1000577c:	47c0      	blx	r8
1000577e:	6924      	ldr	r4, [r4, #16]
10005780:	2c00      	cmp	r4, #0
10005782:	d1f0      	bne.n	10005766 <stdio_put_string+0x66>
10005784:	9b01      	ldr	r3, [sp, #4]
10005786:	2b00      	cmp	r3, #0
10005788:	d128      	bne.n	100057dc <stdio_put_string+0xdc>
1000578a:	0028      	movs	r0, r5
1000578c:	b005      	add	sp, #20
1000578e:	bcf0      	pop	{r4, r5, r6, r7}
10005790:	46bb      	mov	fp, r7
10005792:	46b2      	mov	sl, r6
10005794:	46a9      	mov	r9, r5
10005796:	46a0      	mov	r8, r4
10005798:	bdf0      	pop	{r4, r5, r6, r7, pc}
1000579a:	4b18      	ldr	r3, [pc, #96]	@ (100057fc <stdio_put_string+0xfc>)
1000579c:	4698      	mov	r8, r3
1000579e:	e7d7      	b.n	10005750 <stdio_put_string+0x50>
100057a0:	4b15      	ldr	r3, [pc, #84]	@ (100057f8 <stdio_put_string+0xf8>)
100057a2:	4699      	mov	r9, r3
100057a4:	ab02      	add	r3, sp, #8
100057a6:	1ddf      	adds	r7, r3, #7
100057a8:	230a      	movs	r3, #10
100057aa:	469b      	mov	fp, r3
100057ac:	e002      	b.n	100057b4 <stdio_put_string+0xb4>
100057ae:	6924      	ldr	r4, [r4, #16]
100057b0:	2c00      	cmp	r4, #0
100057b2:	d0e7      	beq.n	10005784 <stdio_put_string+0x84>
100057b4:	6823      	ldr	r3, [r4, #0]
100057b6:	2b00      	cmp	r3, #0
100057b8:	d0f9      	beq.n	100057ae <stdio_put_string+0xae>
100057ba:	464b      	mov	r3, r9
100057bc:	681b      	ldr	r3, [r3, #0]
100057be:	2b00      	cmp	r3, #0
100057c0:	d001      	beq.n	100057c6 <stdio_put_string+0xc6>
100057c2:	42a3      	cmp	r3, r4
100057c4:	d1f3      	bne.n	100057ae <stdio_put_string+0xae>
100057c6:	002a      	movs	r2, r5
100057c8:	0031      	movs	r1, r6
100057ca:	0020      	movs	r0, r4
100057cc:	47c0      	blx	r8
100057ce:	465b      	mov	r3, fp
100057d0:	2201      	movs	r2, #1
100057d2:	0039      	movs	r1, r7
100057d4:	0020      	movs	r0, r4
100057d6:	703b      	strb	r3, [r7, #0]
100057d8:	47c0      	blx	r8
100057da:	e7e8      	b.n	100057ae <stdio_put_string+0xae>
100057dc:	4650      	mov	r0, sl
100057de:	f00a fd0b 	bl	100101f8 <__mutex_exit_veneer>
100057e2:	e7d2      	b.n	1000578a <stdio_put_string+0x8a>
100057e4:	000f4240 	.word	0x000f4240
100057e8:	7fffffff 	.word	0x7fffffff
100057ec:	200018b8 	.word	0x200018b8
100057f0:	1000566d 	.word	0x1000566d
100057f4:	20004d60 	.word	0x20004d60
100057f8:	20004d6c 	.word	0x20004d6c
100057fc:	1000565d 	.word	0x1000565d

10005800 <stdio_get_until>:
10005800:	b5f8      	push	{r3, r4, r5, r6, r7, lr}
10005802:	4657      	mov	r7, sl
10005804:	464e      	mov	r6, r9
10005806:	4645      	mov	r5, r8
10005808:	46de      	mov	lr, fp
1000580a:	4698      	mov	r8, r3
1000580c:	4b1a      	ldr	r3, [pc, #104]	@ (10005878 <stdio_get_until+0x78>)
1000580e:	b5e0      	push	{r5, r6, r7, lr}
10005810:	469b      	mov	fp, r3
10005812:	4b1a      	ldr	r3, [pc, #104]	@ (1000587c <stdio_get_until+0x7c>)
10005814:	0007      	movs	r7, r0
10005816:	000e      	movs	r6, r1
10005818:	4691      	mov	r9, r2
1000581a:	469a      	mov	sl, r3
1000581c:	4d18      	ldr	r5, [pc, #96]	@ (10005880 <stdio_get_until+0x80>)
1000581e:	465b      	mov	r3, fp
10005820:	681c      	ldr	r4, [r3, #0]
10005822:	2c00      	cmp	r4, #0
10005824:	d103      	bne.n	1000582e <stdio_get_until+0x2e>
10005826:	e015      	b.n	10005854 <stdio_get_until+0x54>
10005828:	6924      	ldr	r4, [r4, #16]
1000582a:	2c00      	cmp	r4, #0
1000582c:	d012      	beq.n	10005854 <stdio_get_until+0x54>
1000582e:	682b      	ldr	r3, [r5, #0]
10005830:	2b00      	cmp	r3, #0
10005832:	d001      	beq.n	10005838 <stdio_get_until+0x38>
10005834:	42a3      	cmp	r3, r4
10005836:	d1f7      	bne.n	10005828 <stdio_get_until+0x28>
10005838:	68a3      	ldr	r3, [r4, #8]
1000583a:	2b00      	cmp	r3, #0
1000583c:	d0f4      	beq.n	10005828 <stdio_get_until+0x28>
1000583e:	0031      	movs	r1, r6
10005840:	0038      	movs	r0, r7
10005842:	4798      	blx	r3
10005844:	2800      	cmp	r0, #0
10005846:	ddef      	ble.n	10005828 <stdio_get_until+0x28>
10005848:	bcf0      	pop	{r4, r5, r6, r7}
1000584a:	46bb      	mov	fp, r7
1000584c:	46b2      	mov	sl, r6
1000584e:	46a9      	mov	r9, r5
10005850:	46a0      	mov	r8, r4
10005852:	bdf8      	pop	{r3, r4, r5, r6, r7, pc}
10005854:	4653      	mov	r3, sl
10005856:	6a5b      	ldr	r3, [r3, #36]	@ 0x24
10005858:	4598      	cmp	r8, r3
1000585a:	d808      	bhi.n	1000586e <stdio_get_until+0x6e>
1000585c:	4652      	mov	r2, sl
1000585e:	6a92      	ldr	r2, [r2, #40]	@ 0x28
10005860:	454a      	cmp	r2, r9
10005862:	d302      	bcc.n	1000586a <stdio_get_until+0x6a>
10005864:	2002      	movs	r0, #2
10005866:	4240      	negs	r0, r0
10005868:	e7ee      	b.n	10005848 <stdio_get_until+0x48>
1000586a:	4598      	cmp	r8, r3
1000586c:	d1fa      	bne.n	10005864 <stdio_get_until+0x64>
1000586e:	2001      	movs	r0, #1
10005870:	2100      	movs	r1, #0
10005872:	f7fe faf3 	bl	10003e5c <busy_wait_us>
10005876:	e7d2      	b.n	1000581e <stdio_get_until+0x1e>
10005878:	20004d60 	.word	0x20004d60
1000587c:	40054000 	.word	0x40054000
10005880:	20004d6c 	.word	0x20004d6c

10005884 <stdio_set_driver_enabled>:
10005884:	4a0a      	ldr	r2, [pc, #40]	@ (100058b0 <stdio_set_driver_enabled+0x2c>)
10005886:	6813      	ldr	r3, [r2, #0]
10005888:	2b00      	cmp	r3, #0
1000588a:	d105      	bne.n	10005898 <stdio_set_driver_enabled+0x14>
1000588c:	e00c      	b.n	100058a8 <stdio_set_driver_enabled+0x24>
1000588e:	001a      	movs	r2, r3
10005890:	691b      	ldr	r3, [r3, #16]
10005892:	3210      	adds	r2, #16
10005894:	2b00      	cmp	r3, #0
10005896:	d007      	beq.n	100058a8 <stdio_set_driver_enabled+0x24>
10005898:	4298      	cmp	r0, r3
1000589a:	d1f8      	bne.n	1000588e <stdio_set_driver_enabled+0xa>
1000589c:	2900      	cmp	r1, #0
1000589e:	d102      	bne.n	100058a6 <stdio_set_driver_enabled+0x22>
100058a0:	6903      	ldr	r3, [r0, #16]
100058a2:	6013      	str	r3, [r2, #0]
100058a4:	6101      	str	r1, [r0, #16]
100058a6:	4770      	bx	lr
100058a8:	2900      	cmp	r1, #0
100058aa:	d0fc      	beq.n	100058a6 <stdio_set_driver_enabled+0x22>
100058ac:	6010      	str	r0, [r2, #0]
100058ae:	e7fa      	b.n	100058a6 <stdio_set_driver_enabled+0x22>
100058b0:	20004d60 	.word	0x20004d60

100058b4 <stdio_init_all>:
100058b4:	b510      	push	{r4, lr}
100058b6:	f000 fa8d 	bl	10005dd4 <stdio_usb_init>
100058ba:	bd10      	pop	{r4, pc}

100058bc <__wrap_putchar>:
100058bc:	b5f0      	push	{r4, r5, r6, r7, lr}
100058be:	46ce      	mov	lr, r9
100058c0:	4647      	mov	r7, r8
100058c2:	b580      	push	{r7, lr}
100058c4:	b083      	sub	sp, #12
100058c6:	466b      	mov	r3, sp
100058c8:	0006      	movs	r6, r0
100058ca:	1ddd      	adds	r5, r3, #7
100058cc:	7028      	strb	r0, [r5, #0]
100058ce:	f7fe fabb 	bl	10003e48 <time_us_64>
100058d2:	2300      	movs	r3, #0
100058d4:	4a1a      	ldr	r2, [pc, #104]	@ (10005940 <__wrap_putchar+0x84>)
100058d6:	1812      	adds	r2, r2, r0
100058d8:	414b      	adcs	r3, r1
100058da:	2180      	movs	r1, #128	@ 0x80
100058dc:	0609      	lsls	r1, r1, #24
100058de:	428b      	cmp	r3, r1
100058e0:	d302      	bcc.n	100058e8 <__wrap_putchar+0x2c>
100058e2:	2201      	movs	r2, #1
100058e4:	4b17      	ldr	r3, [pc, #92]	@ (10005944 <__wrap_putchar+0x88>)
100058e6:	4252      	negs	r2, r2
100058e8:	4917      	ldr	r1, [pc, #92]	@ (10005948 <__wrap_putchar+0x8c>)
100058ea:	0008      	movs	r0, r1
100058ec:	4688      	mov	r8, r1
100058ee:	f00a fccb 	bl	10010288 <__mutex_try_enter_block_until_veneer>
100058f2:	4b16      	ldr	r3, [pc, #88]	@ (1000594c <__wrap_putchar+0x90>)
100058f4:	4681      	mov	r9, r0
100058f6:	681c      	ldr	r4, [r3, #0]
100058f8:	2c00      	cmp	r4, #0
100058fa:	d014      	beq.n	10005926 <__wrap_putchar+0x6a>
100058fc:	4f14      	ldr	r7, [pc, #80]	@ (10005950 <__wrap_putchar+0x94>)
100058fe:	e002      	b.n	10005906 <__wrap_putchar+0x4a>
10005900:	6924      	ldr	r4, [r4, #16]
10005902:	2c00      	cmp	r4, #0
10005904:	d00f      	beq.n	10005926 <__wrap_putchar+0x6a>
10005906:	6823      	ldr	r3, [r4, #0]
10005908:	2b00      	cmp	r3, #0
1000590a:	d0f9      	beq.n	10005900 <__wrap_putchar+0x44>
1000590c:	683b      	ldr	r3, [r7, #0]
1000590e:	2b00      	cmp	r3, #0
10005910:	d001      	beq.n	10005916 <__wrap_putchar+0x5a>
10005912:	429c      	cmp	r4, r3
10005914:	d1f4      	bne.n	10005900 <__wrap_putchar+0x44>
10005916:	0020      	movs	r0, r4
10005918:	2201      	movs	r2, #1
1000591a:	0029      	movs	r1, r5
1000591c:	f7ff fea6 	bl	1000566c <stdio_out_chars_crlf>
10005920:	6924      	ldr	r4, [r4, #16]
10005922:	2c00      	cmp	r4, #0
10005924:	d1ef      	bne.n	10005906 <__wrap_putchar+0x4a>
10005926:	464b      	mov	r3, r9
10005928:	2b00      	cmp	r3, #0
1000592a:	d105      	bne.n	10005938 <__wrap_putchar+0x7c>
1000592c:	0030      	movs	r0, r6
1000592e:	b003      	add	sp, #12
10005930:	bcc0      	pop	{r6, r7}
10005932:	46b9      	mov	r9, r7
10005934:	46b0      	mov	r8, r6
10005936:	bdf0      	pop	{r4, r5, r6, r7, pc}
10005938:	4640      	mov	r0, r8
1000593a:	f00a fc5d 	bl	100101f8 <__mutex_exit_veneer>
1000593e:	e7f5      	b.n	1000592c <__wrap_putchar+0x70>
10005940:	000f4240 	.word	0x000f4240
10005944:	7fffffff 	.word	0x7fffffff
10005948:	200018b8 	.word	0x200018b8
1000594c:	20004d60 	.word	0x20004d60
10005950:	20004d6c 	.word	0x20004d6c

10005954 <__wrap_puts>:
10005954:	b570      	push	{r4, r5, r6, lr}
10005956:	0004      	movs	r4, r0
10005958:	f005 f9aa 	bl	1000acb0 <strlen>
1000595c:	2301      	movs	r3, #1
1000595e:	0001      	movs	r1, r0
10005960:	0005      	movs	r5, r0
10005962:	2201      	movs	r2, #1
10005964:	0020      	movs	r0, r4
10005966:	f7ff fecb 	bl	10005700 <stdio_put_string>
1000596a:	4b08      	ldr	r3, [pc, #32]	@ (1000598c <__wrap_puts+0x38>)
1000596c:	681c      	ldr	r4, [r3, #0]
1000596e:	2c00      	cmp	r4, #0
10005970:	d006      	beq.n	10005980 <__wrap_puts+0x2c>
10005972:	6863      	ldr	r3, [r4, #4]
10005974:	2b00      	cmp	r3, #0
10005976:	d005      	beq.n	10005984 <__wrap_puts+0x30>
10005978:	4798      	blx	r3
1000597a:	6924      	ldr	r4, [r4, #16]
1000597c:	2c00      	cmp	r4, #0
1000597e:	d1f8      	bne.n	10005972 <__wrap_puts+0x1e>
10005980:	0028      	movs	r0, r5
10005982:	bd70      	pop	{r4, r5, r6, pc}
10005984:	6924      	ldr	r4, [r4, #16]
10005986:	2c00      	cmp	r4, #0
10005988:	d1f3      	bne.n	10005972 <__wrap_puts+0x1e>
1000598a:	e7f9      	b.n	10005980 <__wrap_puts+0x2c>
1000598c:	20004d60 	.word	0x20004d60

10005990 <resetd_init>:
10005990:	4770      	bx	lr
10005992:	46c0      	nop			@ (mov r8, r8)

10005994 <resetd_reset>:
10005994:	2200      	movs	r2, #0
10005996:	4b01      	ldr	r3, [pc, #4]	@ (1000599c <resetd_reset+0x8>)
10005998:	701a      	strb	r2, [r3, #0]
1000599a:	4770      	bx	lr
1000599c:	200051e4 	.word	0x200051e4

100059a0 <resetd_open>:
100059a0:	794b      	ldrb	r3, [r1, #5]
100059a2:	2000      	movs	r0, #0
100059a4:	2bff      	cmp	r3, #255	@ 0xff
100059a6:	d10b      	bne.n	100059c0 <resetd_open+0x20>
100059a8:	798b      	ldrb	r3, [r1, #6]
100059aa:	2b00      	cmp	r3, #0
100059ac:	d108      	bne.n	100059c0 <resetd_open+0x20>
100059ae:	79cb      	ldrb	r3, [r1, #7]
100059b0:	2b01      	cmp	r3, #1
100059b2:	d105      	bne.n	100059c0 <resetd_open+0x20>
100059b4:	2a08      	cmp	r2, #8
100059b6:	d903      	bls.n	100059c0 <resetd_open+0x20>
100059b8:	4b02      	ldr	r3, [pc, #8]	@ (100059c4 <resetd_open+0x24>)
100059ba:	788a      	ldrb	r2, [r1, #2]
100059bc:	3009      	adds	r0, #9
100059be:	701a      	strb	r2, [r3, #0]
100059c0:	4770      	bx	lr
100059c2:	46c0      	nop			@ (mov r8, r8)
100059c4:	200051e4 	.word	0x200051e4

100059c8 <resetd_xfer_cb>:
100059c8:	2001      	movs	r0, #1
100059ca:	4770      	bx	lr

100059cc <resetd_control_xfer_cb>:
100059cc:	b510      	push	{r4, lr}
100059ce:	2901      	cmp	r1, #1
100059d0:	d001      	beq.n	100059d6 <resetd_control_xfer_cb+0xa>
100059d2:	2001      	movs	r0, #1
100059d4:	bd10      	pop	{r4, pc}
100059d6:	4913      	ldr	r1, [pc, #76]	@ (10005a24 <resetd_control_xfer_cb+0x58>)
100059d8:	7953      	ldrb	r3, [r2, #5]
100059da:	7910      	ldrb	r0, [r2, #4]
100059dc:	7809      	ldrb	r1, [r1, #0]
100059de:	021b      	lsls	r3, r3, #8
100059e0:	4303      	orrs	r3, r0
100059e2:	2000      	movs	r0, #0
100059e4:	4299      	cmp	r1, r3
100059e6:	d1f5      	bne.n	100059d4 <resetd_control_xfer_cb+0x8>
100059e8:	7853      	ldrb	r3, [r2, #1]
100059ea:	2b01      	cmp	r3, #1
100059ec:	d008      	beq.n	10005a00 <resetd_control_xfer_cb+0x34>
100059ee:	2b02      	cmp	r3, #2
100059f0:	d1f0      	bne.n	100059d4 <resetd_control_xfer_cb+0x8>
100059f2:	2000      	movs	r0, #0
100059f4:	2264      	movs	r2, #100	@ 0x64
100059f6:	2100      	movs	r1, #0
100059f8:	f7fe fbaa 	bl	10004150 <watchdog_reboot>
100059fc:	2001      	movs	r0, #1
100059fe:	e7e9      	b.n	100059d4 <resetd_control_xfer_cb+0x8>
10005a00:	78d3      	ldrb	r3, [r2, #3]
10005a02:	7891      	ldrb	r1, [r2, #2]
10005a04:	021b      	lsls	r3, r3, #8
10005a06:	4319      	orrs	r1, r3
10005a08:	05db      	lsls	r3, r3, #23
10005a0a:	d507      	bpl.n	10005a1c <resetd_control_xfer_cb+0x50>
10005a0c:	0a4a      	lsrs	r2, r1, #9
10005a0e:	0010      	movs	r0, r2
10005a10:	2301      	movs	r3, #1
10005a12:	401a      	ands	r2, r3
10005a14:	337e      	adds	r3, #126	@ 0x7e
10005a16:	4019      	ands	r1, r3
10005a18:	f7fe fc22 	bl	10004260 <rom_reset_usb_boot_extra>
10005a1c:	2001      	movs	r0, #1
10005a1e:	0a4a      	lsrs	r2, r1, #9
10005a20:	4240      	negs	r0, r0
10005a22:	e7f5      	b.n	10005a10 <resetd_control_xfer_cb+0x44>
10005a24:	200051e4 	.word	0x200051e4

10005a28 <tud_descriptor_bos_cb>:
10005a28:	4800      	ldr	r0, [pc, #0]	@ (10005a2c <tud_descriptor_bos_cb+0x4>)
10005a2a:	4770      	bx	lr
10005a2c:	10013e58 	.word	0x10013e58

10005a30 <tud_vendor_control_xfer_cb>:
10005a30:	b570      	push	{r4, r5, r6, lr}
10005a32:	0005      	movs	r5, r0
10005a34:	0014      	movs	r4, r2
10005a36:	2001      	movs	r0, #1
10005a38:	2901      	cmp	r1, #1
10005a3a:	d109      	bne.n	10005a50 <tud_vendor_control_xfer_cb+0x20>
10005a3c:	7853      	ldrb	r3, [r2, #1]
10005a3e:	2000      	movs	r0, #0
10005a40:	2b01      	cmp	r3, #1
10005a42:	d105      	bne.n	10005a50 <tud_vendor_control_xfer_cb+0x20>
10005a44:	7963      	ldrb	r3, [r4, #5]
10005a46:	7912      	ldrb	r2, [r2, #4]
10005a48:	021b      	lsls	r3, r3, #8
10005a4a:	4313      	orrs	r3, r2
10005a4c:	2b07      	cmp	r3, #7
10005a4e:	d000      	beq.n	10005a52 <tud_vendor_control_xfer_cb+0x22>
10005a50:	bd70      	pop	{r4, r5, r6, pc}
10005a52:	0021      	movs	r1, r4
10005a54:	0028      	movs	r0, r5
10005a56:	4a02      	ldr	r2, [pc, #8]	@ (10005a60 <tud_vendor_control_xfer_cb+0x30>)
10005a58:	339f      	adds	r3, #159	@ 0x9f
10005a5a:	f001 fa49 	bl	10006ef0 <tud_control_xfer>
10005a5e:	e7f7      	b.n	10005a50 <tud_vendor_control_xfer_cb+0x20>
10005a60:	10013db0 	.word	0x10013db0

10005a64 <usbd_app_driver_get_cb>:
10005a64:	2301      	movs	r3, #1
10005a66:	7003      	strb	r3, [r0, #0]
10005a68:	4800      	ldr	r0, [pc, #0]	@ (10005a6c <usbd_app_driver_get_cb+0x8>)
10005a6a:	4770      	bx	lr
10005a6c:	10013d90 	.word	0x10013d90

10005a70 <tud_cdc_line_coding_cb>:
10005a70:	784b      	ldrb	r3, [r1, #1]
10005a72:	780a      	ldrb	r2, [r1, #0]
10005a74:	021b      	lsls	r3, r3, #8
10005a76:	4313      	orrs	r3, r2
10005a78:	788a      	ldrb	r2, [r1, #2]
10005a7a:	b510      	push	{r4, lr}
10005a7c:	0412      	lsls	r2, r2, #16
10005a7e:	431a      	orrs	r2, r3
10005a80:	78cb      	ldrb	r3, [r1, #3]
10005a82:	061b      	lsls	r3, r3, #24
10005a84:	4313      	orrs	r3, r2
10005a86:	2296      	movs	r2, #150	@ 0x96
10005a88:	00d2      	lsls	r2, r2, #3
10005a8a:	4293      	cmp	r3, r2
10005a8c:	d000      	beq.n	10005a90 <tud_cdc_line_coding_cb+0x20>
10005a8e:	bd10      	pop	{r4, pc}
10005a90:	2200      	movs	r2, #0
10005a92:	2001      	movs	r0, #1
10005a94:	0011      	movs	r1, r2
10005a96:	4240      	negs	r0, r0
10005a98:	f7fe fbe2 	bl	10004260 <rom_reset_usb_boot_extra>

10005a9c <stdio_usb_set_chars_available_callback>:
10005a9c:	4b02      	ldr	r3, [pc, #8]	@ (10005aa8 <stdio_usb_set_chars_available_callback+0xc>)
10005a9e:	6018      	str	r0, [r3, #0]
10005aa0:	4b02      	ldr	r3, [pc, #8]	@ (10005aac <stdio_usb_set_chars_available_callback+0x10>)
10005aa2:	6019      	str	r1, [r3, #0]
10005aa4:	4770      	bx	lr
10005aa6:	46c0      	nop			@ (mov r8, r8)
10005aa8:	20004d00 	.word	0x20004d00
10005aac:	20004d04 	.word	0x20004d04

10005ab0 <usb_irq>:
10005ab0:	b510      	push	{r4, lr}
10005ab2:	4b02      	ldr	r3, [pc, #8]	@ (10005abc <usb_irq+0xc>)
10005ab4:	7818      	ldrb	r0, [r3, #0]
10005ab6:	f7fd fc37 	bl	10003328 <irq_set_pending>
10005aba:	bd10      	pop	{r4, pc}
10005abc:	200051e5 	.word	0x200051e5

10005ac0 <timer_task>:
10005ac0:	4b15      	ldr	r3, [pc, #84]	@ (10005b18 <timer_task+0x58>)
10005ac2:	b570      	push	{r4, r5, r6, lr}
10005ac4:	681a      	ldr	r2, [r3, #0]
10005ac6:	2a00      	cmp	r2, #0
10005ac8:	d022      	beq.n	10005b10 <timer_task+0x50>
10005aca:	f3ef 8110 	mrs	r1, PRIMASK
10005ace:	b672      	cpsid	i
10005ad0:	6810      	ldr	r0, [r2, #0]
10005ad2:	2800      	cmp	r0, #0
10005ad4:	d0fc      	beq.n	10005ad0 <timer_task+0x10>
10005ad6:	f3bf 8f5f 	dmb	sy
10005ada:	2000      	movs	r0, #0
10005adc:	4a0f      	ldr	r2, [pc, #60]	@ (10005b1c <timer_task+0x5c>)
10005ade:	6059      	str	r1, [r3, #4]
10005ae0:	7010      	strb	r0, [r2, #0]
10005ae2:	681b      	ldr	r3, [r3, #0]
10005ae4:	f3bf 8f5f 	dmb	sy
10005ae8:	6018      	str	r0, [r3, #0]
10005aea:	f381 8810 	msr	PRIMASK, r1
10005aee:	2400      	movs	r4, #0
10005af0:	2500      	movs	r5, #0
10005af2:	4e0b      	ldr	r6, [pc, #44]	@ (10005b20 <timer_task+0x60>)
10005af4:	7830      	ldrb	r0, [r6, #0]
10005af6:	f7fd fc0b 	bl	10003310 <irq_is_enabled>
10005afa:	2800      	cmp	r0, #0
10005afc:	d104      	bne.n	10005b08 <timer_task+0x48>
10005afe:	2400      	movs	r4, #0
10005b00:	2500      	movs	r5, #0
10005b02:	0029      	movs	r1, r5
10005b04:	0020      	movs	r0, r4
10005b06:	bd70      	pop	{r4, r5, r6, pc}
10005b08:	7830      	ldrb	r0, [r6, #0]
10005b0a:	f7fd fc0d 	bl	10003328 <irq_set_pending>
10005b0e:	e7f8      	b.n	10005b02 <timer_task+0x42>
10005b10:	24fa      	movs	r4, #250	@ 0xfa
10005b12:	2500      	movs	r5, #0
10005b14:	00a4      	lsls	r4, r4, #2
10005b16:	e7ec      	b.n	10005af2 <timer_task+0x32>
10005b18:	2000519c 	.word	0x2000519c
10005b1c:	200051e6 	.word	0x200051e6
10005b20:	200051e5 	.word	0x200051e5

10005b24 <stdio_usb_in_chars>:
10005b24:	b570      	push	{r4, r5, r6, lr}
10005b26:	0004      	movs	r4, r0
10005b28:	2000      	movs	r0, #0
10005b2a:	000e      	movs	r6, r1
10005b2c:	f001 faf8 	bl	10007120 <tud_cdc_n_connected>
10005b30:	2800      	cmp	r0, #0
10005b32:	d036      	beq.n	10005ba2 <stdio_usb_in_chars+0x7e>
10005b34:	2000      	movs	r0, #0
10005b36:	f001 fb0b 	bl	10007150 <tud_cdc_n_available>
10005b3a:	2800      	cmp	r0, #0
10005b3c:	d031      	beq.n	10005ba2 <stdio_usb_in_chars+0x7e>
10005b3e:	f7fe f983 	bl	10003e48 <time_us_64>
10005b42:	2300      	movs	r3, #0
10005b44:	4a18      	ldr	r2, [pc, #96]	@ (10005ba8 <stdio_usb_in_chars+0x84>)
10005b46:	1812      	adds	r2, r2, r0
10005b48:	414b      	adcs	r3, r1
10005b4a:	2180      	movs	r1, #128	@ 0x80
10005b4c:	0609      	lsls	r1, r1, #24
10005b4e:	428b      	cmp	r3, r1
10005b50:	d216      	bcs.n	10005b80 <stdio_usb_in_chars+0x5c>
10005b52:	4d16      	ldr	r5, [pc, #88]	@ (10005bac <stdio_usb_in_chars+0x88>)
10005b54:	0028      	movs	r0, r5
10005b56:	f00a fb97 	bl	10010288 <__mutex_try_enter_block_until_veneer>
10005b5a:	2800      	cmp	r0, #0
10005b5c:	d021      	beq.n	10005ba2 <stdio_usb_in_chars+0x7e>
10005b5e:	2000      	movs	r0, #0
10005b60:	f001 fade 	bl	10007120 <tud_cdc_n_connected>
10005b64:	2800      	cmp	r0, #0
10005b66:	d10f      	bne.n	10005b88 <stdio_usb_in_chars+0x64>
10005b68:	2001      	movs	r0, #1
10005b6a:	2100      	movs	r1, #0
10005b6c:	4240      	negs	r0, r0
10005b6e:	f000 fcf3 	bl	10006558 <tud_task_ext>
10005b72:	2403      	movs	r4, #3
10005b74:	4264      	negs	r4, r4
10005b76:	0028      	movs	r0, r5
10005b78:	f00a fb3e 	bl	100101f8 <__mutex_exit_veneer>
10005b7c:	0020      	movs	r0, r4
10005b7e:	bd70      	pop	{r4, r5, r6, pc}
10005b80:	2201      	movs	r2, #1
10005b82:	4b0b      	ldr	r3, [pc, #44]	@ (10005bb0 <stdio_usb_in_chars+0x8c>)
10005b84:	4252      	negs	r2, r2
10005b86:	e7e4      	b.n	10005b52 <stdio_usb_in_chars+0x2e>
10005b88:	2000      	movs	r0, #0
10005b8a:	f001 fae1 	bl	10007150 <tud_cdc_n_available>
10005b8e:	2800      	cmp	r0, #0
10005b90:	d0ea      	beq.n	10005b68 <stdio_usb_in_chars+0x44>
10005b92:	0021      	movs	r1, r4
10005b94:	0032      	movs	r2, r6
10005b96:	2000      	movs	r0, #0
10005b98:	f001 fae6 	bl	10007168 <tud_cdc_n_read>
10005b9c:	1e04      	subs	r4, r0, #0
10005b9e:	d1ea      	bne.n	10005b76 <stdio_usb_in_chars+0x52>
10005ba0:	e7e7      	b.n	10005b72 <stdio_usb_in_chars+0x4e>
10005ba2:	2403      	movs	r4, #3
10005ba4:	4264      	negs	r4, r4
10005ba6:	e7e9      	b.n	10005b7c <stdio_usb_in_chars+0x58>
10005ba8:	000f4240 	.word	0x000f4240
10005bac:	200051c4 	.word	0x200051c4
10005bb0:	7fffffff 	.word	0x7fffffff

10005bb4 <stdio_usb_out_flush>:
10005bb4:	b510      	push	{r4, lr}
10005bb6:	f7fe f947 	bl	10003e48 <time_us_64>
10005bba:	2300      	movs	r3, #0
10005bbc:	4a0e      	ldr	r2, [pc, #56]	@ (10005bf8 <stdio_usb_out_flush+0x44>)
10005bbe:	1812      	adds	r2, r2, r0
10005bc0:	414b      	adcs	r3, r1
10005bc2:	2180      	movs	r1, #128	@ 0x80
10005bc4:	0609      	lsls	r1, r1, #24
10005bc6:	428b      	cmp	r3, r1
10005bc8:	d302      	bcc.n	10005bd0 <stdio_usb_out_flush+0x1c>
10005bca:	2201      	movs	r2, #1
10005bcc:	4b0b      	ldr	r3, [pc, #44]	@ (10005bfc <stdio_usb_out_flush+0x48>)
10005bce:	4252      	negs	r2, r2
10005bd0:	4c0b      	ldr	r4, [pc, #44]	@ (10005c00 <stdio_usb_out_flush+0x4c>)
10005bd2:	0020      	movs	r0, r4
10005bd4:	f00a fb58 	bl	10010288 <__mutex_try_enter_block_until_veneer>
10005bd8:	2800      	cmp	r0, #0
10005bda:	d00c      	beq.n	10005bf6 <stdio_usb_out_flush+0x42>
10005bdc:	2001      	movs	r0, #1
10005bde:	2100      	movs	r1, #0
10005be0:	4240      	negs	r0, r0
10005be2:	f000 fcb9 	bl	10006558 <tud_task_ext>
10005be6:	2000      	movs	r0, #0
10005be8:	f001 fb0a 	bl	10007200 <tud_cdc_n_write_flush>
10005bec:	2800      	cmp	r0, #0
10005bee:	d1f5      	bne.n	10005bdc <stdio_usb_out_flush+0x28>
10005bf0:	0020      	movs	r0, r4
10005bf2:	f00a fb01 	bl	100101f8 <__mutex_exit_veneer>
10005bf6:	bd10      	pop	{r4, pc}
10005bf8:	000f4240 	.word	0x000f4240
10005bfc:	7fffffff 	.word	0x7fffffff
10005c00:	200051c4 	.word	0x200051c4

10005c04 <stdio_usb_out_chars>:
10005c04:	b5f8      	push	{r3, r4, r5, r6, r7, lr}
10005c06:	46de      	mov	lr, fp
10005c08:	4657      	mov	r7, sl
10005c0a:	b580      	push	{r7, lr}
10005c0c:	0005      	movs	r5, r0
10005c0e:	000c      	movs	r4, r1
10005c10:	f7fe f91a 	bl	10003e48 <time_us_64>
10005c14:	2300      	movs	r3, #0
10005c16:	4a37      	ldr	r2, [pc, #220]	@ (10005cf4 <stdio_usb_out_chars+0xf0>)
10005c18:	1812      	adds	r2, r2, r0
10005c1a:	414b      	adcs	r3, r1
10005c1c:	2180      	movs	r1, #128	@ 0x80
10005c1e:	0609      	lsls	r1, r1, #24
10005c20:	428b      	cmp	r3, r1
10005c22:	d302      	bcc.n	10005c2a <stdio_usb_out_chars+0x26>
10005c24:	2201      	movs	r2, #1
10005c26:	4b34      	ldr	r3, [pc, #208]	@ (10005cf8 <stdio_usb_out_chars+0xf4>)
10005c28:	4252      	negs	r2, r2
10005c2a:	4934      	ldr	r1, [pc, #208]	@ (10005cfc <stdio_usb_out_chars+0xf8>)
10005c2c:	0008      	movs	r0, r1
10005c2e:	468a      	mov	sl, r1
10005c30:	f00a fb2a 	bl	10010288 <__mutex_try_enter_block_until_veneer>
10005c34:	2800      	cmp	r0, #0
10005c36:	d103      	bne.n	10005c40 <stdio_usb_out_chars+0x3c>
10005c38:	bcc0      	pop	{r6, r7}
10005c3a:	46bb      	mov	fp, r7
10005c3c:	46b2      	mov	sl, r6
10005c3e:	bdf8      	pop	{r3, r4, r5, r6, r7, pc}
10005c40:	2000      	movs	r0, #0
10005c42:	f001 fa6d 	bl	10007120 <tud_cdc_n_connected>
10005c46:	2800      	cmp	r0, #0
10005c48:	d04a      	beq.n	10005ce0 <stdio_usb_out_chars+0xdc>
10005c4a:	2600      	movs	r6, #0
10005c4c:	2c00      	cmp	r4, #0
10005c4e:	dd43      	ble.n	10005cd8 <stdio_usb_out_chars+0xd4>
10005c50:	4b2b      	ldr	r3, [pc, #172]	@ (10005d00 <stdio_usb_out_chars+0xfc>)
10005c52:	469b      	mov	fp, r3
10005c54:	e014      	b.n	10005c80 <stdio_usb_out_chars+0x7c>
10005c56:	19a9      	adds	r1, r5, r6
10005c58:	2000      	movs	r0, #0
10005c5a:	f001 fb0d 	bl	10007278 <tud_cdc_n_write>
10005c5e:	0007      	movs	r7, r0
10005c60:	2001      	movs	r0, #1
10005c62:	2100      	movs	r1, #0
10005c64:	4240      	negs	r0, r0
10005c66:	f000 fc77 	bl	10006558 <tud_task_ext>
10005c6a:	2000      	movs	r0, #0
10005c6c:	f001 fac8 	bl	10007200 <tud_cdc_n_write_flush>
10005c70:	f7fe f8ea 	bl	10003e48 <time_us_64>
10005c74:	4b22      	ldr	r3, [pc, #136]	@ (10005d00 <stdio_usb_out_chars+0xfc>)
10005c76:	19f6      	adds	r6, r6, r7
10005c78:	6018      	str	r0, [r3, #0]
10005c7a:	6059      	str	r1, [r3, #4]
10005c7c:	42b4      	cmp	r4, r6
10005c7e:	dd2b      	ble.n	10005cd8 <stdio_usb_out_chars+0xd4>
10005c80:	2000      	movs	r0, #0
10005c82:	f001 fb19 	bl	100072b8 <tud_cdc_n_write_available>
10005c86:	1ba7      	subs	r7, r4, r6
10005c88:	0002      	movs	r2, r0
10005c8a:	42b8      	cmp	r0, r7
10005c8c:	dd00      	ble.n	10005c90 <stdio_usb_out_chars+0x8c>
10005c8e:	003a      	movs	r2, r7
10005c90:	2a00      	cmp	r2, #0
10005c92:	d1e0      	bne.n	10005c56 <stdio_usb_out_chars+0x52>
10005c94:	2001      	movs	r0, #1
10005c96:	2100      	movs	r1, #0
10005c98:	4240      	negs	r0, r0
10005c9a:	f000 fc5d 	bl	10006558 <tud_task_ext>
10005c9e:	2000      	movs	r0, #0
10005ca0:	f001 faae 	bl	10007200 <tud_cdc_n_write_flush>
10005ca4:	2000      	movs	r0, #0
10005ca6:	f001 fa3b 	bl	10007120 <tud_cdc_n_connected>
10005caa:	2800      	cmp	r0, #0
10005cac:	d014      	beq.n	10005cd8 <stdio_usb_out_chars+0xd4>
10005cae:	2000      	movs	r0, #0
10005cb0:	f001 fb02 	bl	100072b8 <tud_cdc_n_write_available>
10005cb4:	2800      	cmp	r0, #0
10005cb6:	d1e1      	bne.n	10005c7c <stdio_usb_out_chars+0x78>
10005cb8:	f7fe f8c6 	bl	10003e48 <time_us_64>
10005cbc:	465b      	mov	r3, fp
10005cbe:	000f      	movs	r7, r1
10005cc0:	681a      	ldr	r2, [r3, #0]
10005cc2:	685b      	ldr	r3, [r3, #4]
10005cc4:	2100      	movs	r1, #0
10005cc6:	4684      	mov	ip, r0
10005cc8:	480e      	ldr	r0, [pc, #56]	@ (10005d04 <stdio_usb_out_chars+0x100>)
10005cca:	1812      	adds	r2, r2, r0
10005ccc:	414b      	adcs	r3, r1
10005cce:	429f      	cmp	r7, r3
10005cd0:	d802      	bhi.n	10005cd8 <stdio_usb_out_chars+0xd4>
10005cd2:	d1d3      	bne.n	10005c7c <stdio_usb_out_chars+0x78>
10005cd4:	4594      	cmp	ip, r2
10005cd6:	d9d1      	bls.n	10005c7c <stdio_usb_out_chars+0x78>
10005cd8:	4650      	mov	r0, sl
10005cda:	f00a fa8d 	bl	100101f8 <__mutex_exit_veneer>
10005cde:	e7ab      	b.n	10005c38 <stdio_usb_out_chars+0x34>
10005ce0:	2000      	movs	r0, #0
10005ce2:	2100      	movs	r1, #0
10005ce4:	4b06      	ldr	r3, [pc, #24]	@ (10005d00 <stdio_usb_out_chars+0xfc>)
10005ce6:	6018      	str	r0, [r3, #0]
10005ce8:	6059      	str	r1, [r3, #4]
10005cea:	4650      	mov	r0, sl
10005cec:	f00a fa84 	bl	100101f8 <__mutex_exit_veneer>
10005cf0:	e7a2      	b.n	10005c38 <stdio_usb_out_chars+0x34>
10005cf2:	46c0      	nop			@ (mov r8, r8)
10005cf4:	000f4240 	.word	0x000f4240
10005cf8:	7fffffff 	.word	0x7fffffff
10005cfc:	200051c4 	.word	0x200051c4
10005d00:	20001a40 	.word	0x20001a40
10005d04:	0007a120 	.word	0x0007a120

10005d08 <low_priority_worker_irq>:
10005d08:	b530      	push	{r4, r5, lr}
10005d0a:	4c2b      	ldr	r4, [pc, #172]	@ (10005db8 <low_priority_worker_irq+0xb0>)
10005d0c:	b085      	sub	sp, #20
10005d0e:	2100      	movs	r1, #0
10005d10:	0020      	movs	r0, r4
10005d12:	f00a fa91 	bl	10010238 <__mutex_try_enter_veneer>
10005d16:	2800      	cmp	r0, #0
10005d18:	d11c      	bne.n	10005d54 <low_priority_worker_irq+0x4c>
10005d1a:	4b28      	ldr	r3, [pc, #160]	@ (10005dbc <low_priority_worker_irq+0xb4>)
10005d1c:	681a      	ldr	r2, [r3, #0]
10005d1e:	2a00      	cmp	r2, #0
10005d20:	d016      	beq.n	10005d50 <low_priority_worker_irq+0x48>
10005d22:	f3ef 8110 	mrs	r1, PRIMASK
10005d26:	b672      	cpsid	i
10005d28:	6810      	ldr	r0, [r2, #0]
10005d2a:	2800      	cmp	r0, #0
10005d2c:	d0fc      	beq.n	10005d28 <low_priority_worker_irq+0x20>
10005d2e:	f3bf 8f5f 	dmb	sy
10005d32:	2401      	movs	r4, #1
10005d34:	4822      	ldr	r0, [pc, #136]	@ (10005dc0 <low_priority_worker_irq+0xb8>)
10005d36:	6059      	str	r1, [r3, #4]
10005d38:	7802      	ldrb	r2, [r0, #0]
10005d3a:	681b      	ldr	r3, [r3, #0]
10005d3c:	b2d2      	uxtb	r2, r2
10005d3e:	7004      	strb	r4, [r0, #0]
10005d40:	f3bf 8f5f 	dmb	sy
10005d44:	2000      	movs	r0, #0
10005d46:	6018      	str	r0, [r3, #0]
10005d48:	f381 8810 	msr	PRIMASK, r1
10005d4c:	2a00      	cmp	r2, #0
10005d4e:	d017      	beq.n	10005d80 <low_priority_worker_irq+0x78>
10005d50:	b005      	add	sp, #20
10005d52:	bd30      	pop	{r4, r5, pc}
10005d54:	2001      	movs	r0, #1
10005d56:	2100      	movs	r1, #0
10005d58:	4240      	negs	r0, r0
10005d5a:	f000 fbfd 	bl	10006558 <tud_task_ext>
10005d5e:	2000      	movs	r0, #0
10005d60:	f001 f9f6 	bl	10007150 <tud_cdc_n_available>
10005d64:	0005      	movs	r5, r0
10005d66:	0020      	movs	r0, r4
10005d68:	f00a fa46 	bl	100101f8 <__mutex_exit_veneer>
10005d6c:	2d00      	cmp	r5, #0
10005d6e:	d0ef      	beq.n	10005d50 <low_priority_worker_irq+0x48>
10005d70:	4b14      	ldr	r3, [pc, #80]	@ (10005dc4 <low_priority_worker_irq+0xbc>)
10005d72:	681b      	ldr	r3, [r3, #0]
10005d74:	2b00      	cmp	r3, #0
10005d76:	d0eb      	beq.n	10005d50 <low_priority_worker_irq+0x48>
10005d78:	4a13      	ldr	r2, [pc, #76]	@ (10005dc8 <low_priority_worker_irq+0xc0>)
10005d7a:	6810      	ldr	r0, [r2, #0]
10005d7c:	4798      	blx	r3
10005d7e:	e7e7      	b.n	10005d50 <low_priority_worker_irq+0x48>
10005d80:	f7fd fede 	bl	10003b40 <alarm_pool_get_default>
10005d84:	0004      	movs	r4, r0
10005d86:	f7fe f85f 	bl	10003e48 <time_us_64>
10005d8a:	22fa      	movs	r2, #250	@ 0xfa
10005d8c:	2300      	movs	r3, #0
10005d8e:	0092      	lsls	r2, r2, #2
10005d90:	1812      	adds	r2, r2, r0
10005d92:	414b      	adcs	r3, r1
10005d94:	2180      	movs	r1, #128	@ 0x80
10005d96:	0609      	lsls	r1, r1, #24
10005d98:	428b      	cmp	r3, r1
10005d9a:	d302      	bcc.n	10005da2 <low_priority_worker_irq+0x9a>
10005d9c:	2201      	movs	r2, #1
10005d9e:	4b0b      	ldr	r3, [pc, #44]	@ (10005dcc <low_priority_worker_irq+0xc4>)
10005da0:	4252      	negs	r2, r2
10005da2:	2101      	movs	r1, #1
10005da4:	9102      	str	r1, [sp, #8]
10005da6:	2100      	movs	r1, #0
10005da8:	9101      	str	r1, [sp, #4]
10005daa:	4909      	ldr	r1, [pc, #36]	@ (10005dd0 <low_priority_worker_irq+0xc8>)
10005dac:	0020      	movs	r0, r4
10005dae:	9100      	str	r1, [sp, #0]
10005db0:	f7fd feca 	bl	10003b48 <alarm_pool_add_alarm_at>
10005db4:	e7cc      	b.n	10005d50 <low_priority_worker_irq+0x48>
10005db6:	46c0      	nop			@ (mov r8, r8)
10005db8:	200051c4 	.word	0x200051c4
10005dbc:	2000519c 	.word	0x2000519c
10005dc0:	200051e6 	.word	0x200051e6
10005dc4:	20004d00 	.word	0x20004d00
10005dc8:	20004d04 	.word	0x20004d04
10005dcc:	7fffffff 	.word	0x7fffffff
10005dd0:	10005ac1 	.word	0x10005ac1

10005dd4 <stdio_usb_init>:
10005dd4:	23d0      	movs	r3, #208	@ 0xd0
10005dd6:	b510      	push	{r4, lr}
10005dd8:	061b      	lsls	r3, r3, #24
10005dda:	b084      	sub	sp, #16
10005ddc:	681c      	ldr	r4, [r3, #0]
10005dde:	f7fd feaf 	bl	10003b40 <alarm_pool_get_default>
10005de2:	f7fd ffad 	bl	10003d40 <alarm_pool_core_num>
10005de6:	42a0      	cmp	r0, r4
10005de8:	d002      	beq.n	10005df0 <stdio_usb_init+0x1c>
10005dea:	2000      	movs	r0, #0
10005dec:	b004      	add	sp, #16
10005dee:	bd10      	pop	{r4, pc}
10005df0:	4b29      	ldr	r3, [pc, #164]	@ (10005e98 <stdio_usb_init+0xc4>)
10005df2:	781b      	ldrb	r3, [r3, #0]
10005df4:	f001 fd6a 	bl	100078cc <tusb_init>
10005df8:	4828      	ldr	r0, [pc, #160]	@ (10005e9c <stdio_usb_init+0xc8>)
10005dfa:	6803      	ldr	r3, [r0, #0]
10005dfc:	2b00      	cmp	r3, #0
10005dfe:	d047      	beq.n	10005e90 <stdio_usb_init+0xbc>
10005e00:	2001      	movs	r0, #1
10005e02:	f7fd fc2d 	bl	10003660 <user_irq_claim_unused>
10005e06:	23ff      	movs	r3, #255	@ 0xff
10005e08:	4c25      	ldr	r4, [pc, #148]	@ (10005ea0 <stdio_usb_init+0xcc>)
10005e0a:	4926      	ldr	r1, [pc, #152]	@ (10005ea4 <stdio_usb_init+0xd0>)
10005e0c:	7020      	strb	r0, [r4, #0]
10005e0e:	4018      	ands	r0, r3
10005e10:	f7fd faa8 	bl	10003364 <irq_set_exclusive_handler>
10005e14:	7820      	ldrb	r0, [r4, #0]
10005e16:	2101      	movs	r1, #1
10005e18:	f7fd fa68 	bl	100032ec <irq_set_enabled>
10005e1c:	2005      	movs	r0, #5
10005e1e:	f7fd fa8b 	bl	10003338 <irq_has_shared_handler>
10005e22:	2800      	cmp	r0, #0
10005e24:	d126      	bne.n	10005e74 <stdio_usb_init+0xa0>
10005e26:	2208      	movs	r2, #8
10005e28:	2100      	movs	r1, #0
10005e2a:	481f      	ldr	r0, [pc, #124]	@ (10005ea8 <stdio_usb_init+0xd4>)
10005e2c:	f7ff fb3c 	bl	100054a8 <__wrap_memset>
10005e30:	f7fd fe86 	bl	10003b40 <alarm_pool_get_default>
10005e34:	0004      	movs	r4, r0
10005e36:	f7fe f807 	bl	10003e48 <time_us_64>
10005e3a:	22fa      	movs	r2, #250	@ 0xfa
10005e3c:	2300      	movs	r3, #0
10005e3e:	0092      	lsls	r2, r2, #2
10005e40:	1812      	adds	r2, r2, r0
10005e42:	414b      	adcs	r3, r1
10005e44:	2180      	movs	r1, #128	@ 0x80
10005e46:	0609      	lsls	r1, r1, #24
10005e48:	428b      	cmp	r3, r1
10005e4a:	d302      	bcc.n	10005e52 <stdio_usb_init+0x7e>
10005e4c:	2201      	movs	r2, #1
10005e4e:	4b17      	ldr	r3, [pc, #92]	@ (10005eac <stdio_usb_init+0xd8>)
10005e50:	4252      	negs	r2, r2
10005e52:	2101      	movs	r1, #1
10005e54:	9102      	str	r1, [sp, #8]
10005e56:	2100      	movs	r1, #0
10005e58:	9101      	str	r1, [sp, #4]
10005e5a:	4915      	ldr	r1, [pc, #84]	@ (10005eb0 <stdio_usb_init+0xdc>)
10005e5c:	0020      	movs	r0, r4
10005e5e:	9100      	str	r1, [sp, #0]
10005e60:	f7fd fe72 	bl	10003b48 <alarm_pool_add_alarm_at>
10005e64:	2800      	cmp	r0, #0
10005e66:	dbc0      	blt.n	10005dea <stdio_usb_init+0x16>
10005e68:	4812      	ldr	r0, [pc, #72]	@ (10005eb4 <stdio_usb_init+0xe0>)
10005e6a:	2101      	movs	r1, #1
10005e6c:	f7ff fd0a 	bl	10005884 <stdio_set_driver_enabled>
10005e70:	2001      	movs	r0, #1
10005e72:	e7bb      	b.n	10005dec <stdio_usb_init+0x18>
10005e74:	2001      	movs	r0, #1
10005e76:	f7fd fa07 	bl	10003288 <spin_lock_claim_unused>
10005e7a:	4b0b      	ldr	r3, [pc, #44]	@ (10005ea8 <stdio_usb_init+0xd4>)
10005e7c:	0001      	movs	r1, r0
10005e7e:	0018      	movs	r0, r3
10005e80:	f7fd fc50 	bl	10003724 <critical_section_init_with_lock_num>
10005e84:	2200      	movs	r2, #0
10005e86:	2005      	movs	r0, #5
10005e88:	490b      	ldr	r1, [pc, #44]	@ (10005eb8 <stdio_usb_init+0xe4>)
10005e8a:	f7fd fa95 	bl	100033b8 <irq_add_shared_handler>
10005e8e:	e7eb      	b.n	10005e68 <stdio_usb_init+0x94>
10005e90:	f7fd fc2c 	bl	100036ec <mutex_init>
10005e94:	e7b4      	b.n	10005e00 <stdio_usb_init+0x2c>
10005e96:	46c0      	nop			@ (mov r8, r8)
10005e98:	100145dc 	.word	0x100145dc
10005e9c:	200051c4 	.word	0x200051c4
10005ea0:	200051e5 	.word	0x200051e5
10005ea4:	10005d09 	.word	0x10005d09
10005ea8:	2000519c 	.word	0x2000519c
10005eac:	7fffffff 	.word	0x7fffffff
10005eb0:	10005ac1 	.word	0x10005ac1
10005eb4:	200011a0 	.word	0x200011a0
10005eb8:	10005ab1 	.word	0x10005ab1

10005ebc <tud_descriptor_device_cb>:
10005ebc:	4800      	ldr	r0, [pc, #0]	@ (10005ec0 <tud_descriptor_device_cb+0x4>)
10005ebe:	4770      	bx	lr
10005ec0:	10013ef4 	.word	0x10013ef4

10005ec4 <tud_descriptor_configuration_cb>:
10005ec4:	4800      	ldr	r0, [pc, #0]	@ (10005ec8 <tud_descriptor_configuration_cb+0x4>)
10005ec6:	4770      	bx	lr
10005ec8:	10013ea0 	.word	0x10013ea0

10005ecc <tud_descriptor_string_cb>:
10005ecc:	b510      	push	{r4, lr}
10005ece:	0004      	movs	r4, r0
10005ed0:	4817      	ldr	r0, [pc, #92]	@ (10005f30 <tud_descriptor_string_cb+0x64>)
10005ed2:	7803      	ldrb	r3, [r0, #0]
10005ed4:	2b00      	cmp	r3, #0
10005ed6:	d020      	beq.n	10005f1a <tud_descriptor_string_cb+0x4e>
10005ed8:	2c00      	cmp	r4, #0
10005eda:	d106      	bne.n	10005eea <tud_descriptor_string_cb+0x1e>
10005edc:	4b15      	ldr	r3, [pc, #84]	@ (10005f34 <tud_descriptor_string_cb+0x68>)
10005ede:	4816      	ldr	r0, [pc, #88]	@ (10005f38 <tud_descriptor_string_cb+0x6c>)
10005ee0:	8043      	strh	r3, [r0, #2]
10005ee2:	3b06      	subs	r3, #6
10005ee4:	3bff      	subs	r3, #255	@ 0xff
10005ee6:	8003      	strh	r3, [r0, #0]
10005ee8:	bd10      	pop	{r4, pc}
10005eea:	2c05      	cmp	r4, #5
10005eec:	d819      	bhi.n	10005f22 <tud_descriptor_string_cb+0x56>
10005eee:	4b13      	ldr	r3, [pc, #76]	@ (10005f3c <tud_descriptor_string_cb+0x70>)
10005ef0:	00a4      	lsls	r4, r4, #2
10005ef2:	58e0      	ldr	r0, [r4, r3]
10005ef4:	4912      	ldr	r1, [pc, #72]	@ (10005f40 <tud_descriptor_string_cb+0x74>)
10005ef6:	2301      	movs	r3, #1
10005ef8:	3801      	subs	r0, #1
10005efa:	e004      	b.n	10005f06 <tud_descriptor_string_cb+0x3a>
10005efc:	3301      	adds	r3, #1
10005efe:	800a      	strh	r2, [r1, #0]
10005f00:	3102      	adds	r1, #2
10005f02:	2b14      	cmp	r3, #20
10005f04:	d00f      	beq.n	10005f26 <tud_descriptor_string_cb+0x5a>
10005f06:	5cc2      	ldrb	r2, [r0, r3]
10005f08:	2a00      	cmp	r2, #0
10005f0a:	d1f7      	bne.n	10005efc <tud_descriptor_string_cb+0x30>
10005f0c:	22c0      	movs	r2, #192	@ 0xc0
10005f0e:	b2db      	uxtb	r3, r3
10005f10:	005b      	lsls	r3, r3, #1
10005f12:	0092      	lsls	r2, r2, #2
10005f14:	4808      	ldr	r0, [pc, #32]	@ (10005f38 <tud_descriptor_string_cb+0x6c>)
10005f16:	4313      	orrs	r3, r2
10005f18:	e7e5      	b.n	10005ee6 <tud_descriptor_string_cb+0x1a>
10005f1a:	2111      	movs	r1, #17
10005f1c:	f000 f81a 	bl	10005f54 <pico_get_unique_board_id_string>
10005f20:	e7da      	b.n	10005ed8 <tud_descriptor_string_cb+0xc>
10005f22:	2000      	movs	r0, #0
10005f24:	e7e0      	b.n	10005ee8 <tud_descriptor_string_cb+0x1c>
10005f26:	23ca      	movs	r3, #202	@ 0xca
10005f28:	4803      	ldr	r0, [pc, #12]	@ (10005f38 <tud_descriptor_string_cb+0x6c>)
10005f2a:	009b      	lsls	r3, r3, #2
10005f2c:	e7db      	b.n	10005ee6 <tud_descriptor_string_cb+0x1a>
10005f2e:	46c0      	nop			@ (mov r8, r8)
10005f30:	200051cc 	.word	0x200051cc
10005f34:	00000409 	.word	0x00000409
10005f38:	20004d38 	.word	0x20004d38
10005f3c:	10013e88 	.word	0x10013e88
10005f40:	20004d3a 	.word	0x20004d3a

10005f44 <_retrieve_unique_id_on_boot>:
10005f44:	b510      	push	{r4, lr}
10005f46:	4802      	ldr	r0, [pc, #8]	@ (10005f50 <_retrieve_unique_id_on_boot+0xc>)
10005f48:	f000 f8d8 	bl	100060fc <flash_get_unique_id>
10005f4c:	bd10      	pop	{r4, pc}
10005f4e:	46c0      	nop			@ (mov r8, r8)
10005f50:	200051b4 	.word	0x200051b4

10005f54 <pico_get_unique_board_id_string>:
10005f54:	b530      	push	{r4, r5, lr}
10005f56:	1e4b      	subs	r3, r1, #1
10005f58:	2901      	cmp	r1, #1
10005f5a:	d100      	bne.n	10005f5e <pico_get_unique_board_id_string+0xa>
10005f5c:	e0a7      	b.n	100060ae <pico_get_unique_board_id_string+0x15a>
10005f5e:	4a66      	ldr	r2, [pc, #408]	@ (100060f8 <pico_get_unique_board_id_string+0x1a4>)
10005f60:	7811      	ldrb	r1, [r2, #0]
10005f62:	090d      	lsrs	r5, r1, #4
10005f64:	002c      	movs	r4, r5
10005f66:	3430      	adds	r4, #48	@ 0x30
10005f68:	299f      	cmp	r1, #159	@ 0x9f
10005f6a:	d900      	bls.n	10005f6e <pico_get_unique_board_id_string+0x1a>
10005f6c:	e0a2      	b.n	100060b4 <pico_get_unique_board_id_string+0x160>
10005f6e:	7004      	strb	r4, [r0, #0]
10005f70:	2b01      	cmp	r3, #1
10005f72:	d100      	bne.n	10005f76 <pico_get_unique_board_id_string+0x22>
10005f74:	e0be      	b.n	100060f4 <pico_get_unique_board_id_string+0x1a0>
10005f76:	210f      	movs	r1, #15
10005f78:	7814      	ldrb	r4, [r2, #0]
10005f7a:	4021      	ands	r1, r4
10005f7c:	000c      	movs	r4, r1
10005f7e:	3430      	adds	r4, #48	@ 0x30
10005f80:	2909      	cmp	r1, #9
10005f82:	d900      	bls.n	10005f86 <pico_get_unique_board_id_string+0x32>
10005f84:	e098      	b.n	100060b8 <pico_get_unique_board_id_string+0x164>
10005f86:	7044      	strb	r4, [r0, #1]
10005f88:	2b02      	cmp	r3, #2
10005f8a:	d100      	bne.n	10005f8e <pico_get_unique_board_id_string+0x3a>
10005f8c:	e0b2      	b.n	100060f4 <pico_get_unique_board_id_string+0x1a0>
10005f8e:	7854      	ldrb	r4, [r2, #1]
10005f90:	0925      	lsrs	r5, r4, #4
10005f92:	0029      	movs	r1, r5
10005f94:	3130      	adds	r1, #48	@ 0x30
10005f96:	2c9f      	cmp	r4, #159	@ 0x9f
10005f98:	d900      	bls.n	10005f9c <pico_get_unique_board_id_string+0x48>
10005f9a:	e090      	b.n	100060be <pico_get_unique_board_id_string+0x16a>
10005f9c:	7081      	strb	r1, [r0, #2]
10005f9e:	2b03      	cmp	r3, #3
10005fa0:	d100      	bne.n	10005fa4 <pico_get_unique_board_id_string+0x50>
10005fa2:	e0a7      	b.n	100060f4 <pico_get_unique_board_id_string+0x1a0>
10005fa4:	210f      	movs	r1, #15
10005fa6:	4021      	ands	r1, r4
10005fa8:	000c      	movs	r4, r1
10005faa:	3430      	adds	r4, #48	@ 0x30
10005fac:	2909      	cmp	r1, #9
10005fae:	d900      	bls.n	10005fb2 <pico_get_unique_board_id_string+0x5e>
10005fb0:	e087      	b.n	100060c2 <pico_get_unique_board_id_string+0x16e>
10005fb2:	70c4      	strb	r4, [r0, #3]
10005fb4:	2b04      	cmp	r3, #4
10005fb6:	d100      	bne.n	10005fba <pico_get_unique_board_id_string+0x66>
10005fb8:	e09c      	b.n	100060f4 <pico_get_unique_board_id_string+0x1a0>
10005fba:	7894      	ldrb	r4, [r2, #2]
10005fbc:	0925      	lsrs	r5, r4, #4
10005fbe:	0029      	movs	r1, r5
10005fc0:	3130      	adds	r1, #48	@ 0x30
10005fc2:	2c9f      	cmp	r4, #159	@ 0x9f
10005fc4:	d900      	bls.n	10005fc8 <pico_get_unique_board_id_string+0x74>
10005fc6:	e07f      	b.n	100060c8 <pico_get_unique_board_id_string+0x174>
10005fc8:	7101      	strb	r1, [r0, #4]
10005fca:	2b05      	cmp	r3, #5
10005fcc:	d100      	bne.n	10005fd0 <pico_get_unique_board_id_string+0x7c>
10005fce:	e091      	b.n	100060f4 <pico_get_unique_board_id_string+0x1a0>
10005fd0:	210f      	movs	r1, #15
10005fd2:	4021      	ands	r1, r4
10005fd4:	000c      	movs	r4, r1
10005fd6:	3430      	adds	r4, #48	@ 0x30
10005fd8:	2909      	cmp	r1, #9
10005fda:	d900      	bls.n	10005fde <pico_get_unique_board_id_string+0x8a>
10005fdc:	e076      	b.n	100060cc <pico_get_unique_board_id_string+0x178>
10005fde:	7144      	strb	r4, [r0, #5]
10005fe0:	2b06      	cmp	r3, #6
10005fe2:	d100      	bne.n	10005fe6 <pico_get_unique_board_id_string+0x92>
10005fe4:	e086      	b.n	100060f4 <pico_get_unique_board_id_string+0x1a0>
10005fe6:	78d4      	ldrb	r4, [r2, #3]
10005fe8:	0925      	lsrs	r5, r4, #4
10005fea:	0029      	movs	r1, r5
10005fec:	3130      	adds	r1, #48	@ 0x30
10005fee:	2c9f      	cmp	r4, #159	@ 0x9f
10005ff0:	d900      	bls.n	10005ff4 <pico_get_unique_board_id_string+0xa0>
10005ff2:	e06e      	b.n	100060d2 <pico_get_unique_board_id_string+0x17e>
10005ff4:	7181      	strb	r1, [r0, #6]
10005ff6:	2b07      	cmp	r3, #7
10005ff8:	d100      	bne.n	10005ffc <pico_get_unique_board_id_string+0xa8>
10005ffa:	e07b      	b.n	100060f4 <pico_get_unique_board_id_string+0x1a0>
10005ffc:	210f      	movs	r1, #15
10005ffe:	4021      	ands	r1, r4
10006000:	000c      	movs	r4, r1
10006002:	3430      	adds	r4, #48	@ 0x30
10006004:	2909      	cmp	r1, #9
10006006:	d866      	bhi.n	100060d6 <pico_get_unique_board_id_string+0x182>
10006008:	71c4      	strb	r4, [r0, #7]
1000600a:	2b08      	cmp	r3, #8
1000600c:	d100      	bne.n	10006010 <pico_get_unique_board_id_string+0xbc>
1000600e:	e071      	b.n	100060f4 <pico_get_unique_board_id_string+0x1a0>
10006010:	7914      	ldrb	r4, [r2, #4]
10006012:	0925      	lsrs	r5, r4, #4
10006014:	0029      	movs	r1, r5
10006016:	3130      	adds	r1, #48	@ 0x30
10006018:	2c9f      	cmp	r4, #159	@ 0x9f
1000601a:	d85f      	bhi.n	100060dc <pico_get_unique_board_id_string+0x188>
1000601c:	7201      	strb	r1, [r0, #8]
1000601e:	2b09      	cmp	r3, #9
10006020:	d068      	beq.n	100060f4 <pico_get_unique_board_id_string+0x1a0>
10006022:	210f      	movs	r1, #15
10006024:	4021      	ands	r1, r4
10006026:	000c      	movs	r4, r1
